Sections:
00: "seg8000" (8000-11A10)


Source: "3-assembled-output/Lander.arm"
                            	     1: 
                            	     2: .org 0x8000
                            	     3: 
                            	     4: .set OS_WriteS, 1
                            	     5: 
00:00008000 000080FA        	     6: .long 0xFA800000
00:00008004 00000000        	     7: .long 0x00000000
00:00008008 00000014        	     8: .long 0x14000000
00:0000800C 00800000        	     9: .long 0x00008000
00:00008010 3A0DE30D        	    10: .long 0x0DE30D3A
00:00008014 E40DE30D        	    11: .long 0x0DE30DE4
00:00008018 E40DE30D        	    12: .long 0x0DE30DE4
00:0000801C E40DE30D        	    13: .long 0x0DE30DE4
00:00008020 E40DE30D        	    14: .long 0x0DE30DE4
00:00008024 E40DE30D        	    15: .long 0x0DE30DE4
00:00008028 10800000        	    16: .long 0x00008010
00:0000802C 00660200        	    17: .long 0x00026600
00:00008030 D4760200        	    18: .long 0x000276D4
00:00008034 A8870200        	    19: .long 0x000287A8
00:00008038 7C980200        	    20: .long 0x0002987C
00:0000803C 50A90200        	    21: .long 0x0002A950
00:00008040 24BA0200        	    22: .long 0x0002BA24
00:00008044 F8CA0200        	    23: .long 0x0002CAF8
00:00008048 CCDB0200        	    24: .long 0x0002DBCC
00:0000804C A0EC0200        	    25: .long 0x0002ECA0
00:00008050 74FD0200        	    26: .long 0x0002FD74
00:00008054 480E0300        	    27: .long 0x00030E48
00:00008058 1C1F0300        	    28: .long 0x00031F1C
00:0000805C 00660200        	    29: .long 0x00026600
00:00008060 D4760200        	    30: .long 0x000276D4
00:00008064 A8870200        	    31: .long 0x000287A8
00:00008068 7C980200        	    32: .long 0x0002987C
00:0000806C 50A90200        	    33: .long 0x0002A950
00:00008070 24BA0200        	    34: .long 0x0002BA24
00:00008074 F8CA0200        	    35: .long 0x0002CAF8
00:00008078 CCDB0200        	    36: .long 0x0002DBCC
00:0000807C A0EC0200        	    37: .long 0x0002ECA0
00:00008080 74FD0200        	    38: .long 0x0002FD74
00:00008084 480E0300        	    39: .long 0x00030E48
00:00008088 1C1F0300        	    40: .long 0x00031F1C
                            	    41: 
00:0000808C E0432DE9        	    42:  STMFD   R13!, {R5-R9, R14}
00:00008090 44319BE5        	    43:  LDR     R3, [R11, #0x144]
00:00008094 FF9403E2        	    44:  AND     R9, R3, #0xFF000000
00:00008098 093043E0        	    45:  SUB     R3, R3, R9
00:0000809C 50918BE5        	    46:  STR     R9, [R11, #0x150]
00:000080A0 3C419BE5        	    47:  LDR     R4, [R11, #0x13C]
00:000080A4 FF8404E2        	    48:  AND     R8, R4, #0xFF000000
00:000080A8 084044E0        	    49:  SUB     R4, R4, R8
00:000080AC 48818BE5        	    50:  STR     R8, [R11, #0x148]
00:000080B0 165E8BE2        	    51:  ADD     R5, R11, #0x160
00:000080B4 B0001FE5        	    52:  LDR     R0, 0x0000800C
00:000080B8 070090E8        	    53:  LDMIA   R0, {R0-R2}
00:000080BC 040040E0        	    54:  SUB     R0, R0, R4
00:000080C0 032042E0        	    55:  SUB     R2, R2, R3
00:000080C4 070085E8        	    56:  STMIA   R5, {R0-R2}
00:000080C8 0000A0E3        	    57:  MOV     R0, #0
00:000080CC E400CBE5        	    58:  STRB    R0, [R11, #0xE4]
00:000080D0 0060A0E3        	    59:  MOV     R6, #0
00:000080D4 017B8BE2        	    60:  ADD     R7, R11, #0x400
00:000080D8 F860CBE5        	    61:  STRB    R6, [R11, #0xF8]
00:000080DC E410DBE5        	    62:  LDRB    R1, [R11, #0xE4]
00:000080E0 C0001FE5        	    63:  LDR     R0, 0x00008028
00:000080E4 810080E0        	    64:  ADD     R0, R0, R1, LSL #1
00:000080E8 01A0D0E5        	    65:  LDRB    R10, [R0, #1]
00:000080EC 0000D0E5        	    66:  LDRB    R0, [R0]
00:000080F0 F000CBE5        	    67:  STRB    R0, [R11, #0xF0]
00:000080F4 160E8BE2        	    68:  ADD     R0, R11, #0x160
00:000080F8 070090E8        	    69:  LDMIA   R0, {R0-R2}
00:000080FC 174E8BE2        	    70:  ADD     R4, R11, #0x170
00:00008100 070084E8        	    71:  STMIA   R4, {R0-R2}
00:00008104 48819BE5        	    72:  LDR     R8, [R11, #0x148]
00:00008108 168548E2        	    73:  SUB     R8, R8, #0x5800000
00:0000810C 0201A0E3        	    74:  MOV     R0, #0x80000000
00:00008110 C4008BE5        	    75:  STR     R0, [R11, #0xC4]
00:00008114 360000EB        	    76:  BL      0x000081F4
00:00008118 40E19BE5        	    77:  LDR     R14, [R11, #0x140]
00:0000811C 0E0040E0        	    78:  SUB     R0, R0, R14
00:00008120 74018BE5        	    79:  STR     R0, [R11, #0x174]
00:00008124 170E8BE2        	    80:  ADD     R0, R11, #0x170
00:00008128 860500EB        	    81:  BL      0x00009748
00:0000812C 0F00002A        	    82:  BHS     0x00008170
00:00008130 0300A7E8        	    83:  STMIA   R7!, {R0-R1}
00:00008134 000056E3        	    84:  CMP     R6, #0
00:00008138 0C00000A        	    85:  BEQ     0x00008170
00:0000813C 0C00B6E8        	    86:  LDMIA   R6!, {R2-R3}
00:00008140 020152E3        	    87:  CMP     R2, #0x80000000
00:00008144 0060A003        	    88:  MOVEQ   R6, #0
00:00008148 0800000A        	    89:  BEQ     0x00008170
00:0000814C C0012DE9        	    90:  STMFD   R13!, {R6-R8}
00:00008150 C4E08BE2        	    91:  ADD     R14, R11, #0xC4
00:00008154 F0009EE8        	    92:  LDMIA   R14, {R4-R7}
00:00008158 0F008EE8        	    93:  STMIA   R14, {R0-R3}
00:0000815C 020154E3        	    94:  CMP     R4, #0x80000000
00:00008160 0100000A        	    95:  BEQ     0x0000816C
00:00008164 5C0000EB        	    96:  BL      0x000082DC
00:00008168 160700EB        	    97:  BL      0x00009DC8
00:0000816C C001BDE8        	    98:  LDMFD   R13!, {R6-R8}
00:00008170 01A05AE2        	    99:  SUBS    R10, R10, #1
00:00008174 70019B15        	   100:  LDRNE   R0, [R11, #0x170]
00:00008178 01048012        	   101:  ADDNE   R0, R0, #0x1000000
00:0000817C 70018B15        	   102:  STRNE   R0, [R11, #0x170]
00:00008180 01848812        	   103:  ADDNE   R8, R8, #0x1000000
00:00008184 E2FFFF1A        	   104:  BNE     0x00008114
00:00008188 E400DBE5        	   105:  LDRB    R0, [R11, #0xE4]
00:0000818C 020050E2        	   106:  SUBS    R0, R0, #2
00:00008190 D106005B        	   107:  BLPL    0x00009CDC
00:00008194 E400DBE5        	   108:  LDRB    R0, [R11, #0xE4]
00:00008198 010090E2        	   109:  ADDS    R0, R0, #1
00:0000819C 0B0050E3        	   110:  CMP     R0, #0xB
00:000081A0 0E00000A        	   111:  BEQ     0x000081E0
00:000081A4 E400CBE5        	   112:  STRB    R0, [R11, #0xE4]
00:000081A8 68019BE5        	   113:  LDR     R0, [R11, #0x168]
00:000081AC 010440E2        	   114:  SUB     R0, R0, #0x1000000
00:000081B0 68018BE5        	   115:  STR     R0, [R11, #0x168]
00:000081B4 019449E2        	   116:  SUB     R9, R9, #0x1000000
00:000081B8 0201A0E3        	   117:  MOV     R0, #0x80000000
00:000081BC 000087E5        	   118:  STR     R0, [R7]
00:000081C0 F800DBE5        	   119:  LDRB    R0, [R11, #0xF8]
00:000081C4 010030E2        	   120:  EORS    R0, R0, #1
00:000081C8 F800CBE5        	   121:  STRB    R0, [R11, #0xF8]
00:000081CC 016B8B12        	   122:  ADDNE   R6, R11, #0x400
00:000081D0 056C8B02        	   123:  ADDEQ   R6, R11, #0x500
00:000081D4 017B8B02        	   124:  ADDEQ   R7, R11, #0x400
00:000081D8 057C8B12        	   125:  ADDNE   R7, R11, #0x500
00:000081DC BEFFFFEA        	   126:  B       0x000080DC
00:000081E0 0900A0E3        	   127:  MOV     R0, #9
00:000081E4 BC0600EB        	   128:  BL      0x00009CDC
00:000081E8 0A00A0E3        	   129:  MOV     R0, #0xA
00:000081EC BA0600EB        	   130:  BL      0x00009CDC
00:000081F0 E083BDE8        	   131:  LDMFD   R13!, {R5-R9, PC}
00:000081F4 00019BE5        	   132:  LDR     R0, [R11, #0x100]
00:000081F8 04018BE5        	   133:  STR     R0, [R11, #0x104]
00:000081FC 890048E0        	   134:  SUB     R0, R8, R9, LSL #1
00:00008200 E82F9FE5        	   135:  LDR     R2, 0x000091F0
00:00008204 0306C0E3        	   136:  BIC     R0, R0, #0x300000
00:00008208 200A92E7        	   137:  LDR     R0, [R2, R0, LSR #20]
00:0000820C C003A0E1        	   138:  MOV     R0, R0, ASR #7
00:00008210 881089E0        	   139:  ADD     R1, R9, R8, LSL #1
00:00008214 811089E0        	   140:  ADD     R1, R9, R1, LSL #1
00:00008218 083081E0        	   141:  ADD     R3, R1, R8
00:0000821C CC2F9FE5        	   142:  LDR     R2, 0x000091F0
00:00008220 0316C1E3        	   143:  BIC     R1, R1, #0x300000
00:00008224 211A92E7        	   144:  LDR     R1, [R2, R1, LSR #20]
00:00008228 C10380E0        	   145:  ADD     R0, R0, R1, ASR #7
00:0000822C 881049E0        	   146:  SUB     R1, R9, R8, LSL #1
00:00008230 811068E0        	   147:  RSB     R1, R8, R1, LSL #1
00:00008234 091081E0        	   148:  ADD     R1, R1, R9
00:00008238 B02F9FE5        	   149:  LDR     R2, 0x000091F0
00:0000823C 0316C1E3        	   150:  BIC     R1, R1, #0x300000
00:00008240 211A92E7        	   151:  LDR     R1, [R2, R1, LSR #20]
00:00008244 C10380E0        	   152:  ADD     R0, R0, R1, ASR #7
00:00008248 881089E0        	   153:  ADD     R1, R9, R8, LSL #1
00:0000824C 011189E0        	   154:  ADD     R1, R9, R1, LSL #2
00:00008250 081041E0        	   155:  SUB     R1, R1, R8
00:00008254 942F9FE5        	   156:  LDR     R2, 0x000091F0
00:00008258 0316C1E3        	   157:  BIC     R1, R1, #0x300000
00:0000825C 211A92E7        	   158:  LDR     R1, [R2, R1, LSR #20]
00:00008260 C10380E0        	   159:  ADD     R0, R0, R1, ASR #7
00:00008264 891183E0        	   160:  ADD     R1, R3, R9, LSL #3
00:00008268 802F9FE5        	   161:  LDR     R2, 0x000091F0
00:0000826C 0316C1E3        	   162:  BIC     R1, R1, #0x300000
00:00008270 211A92E7        	   163:  LDR     R1, [R2, R1, LSR #20]
00:00008274 410480E0        	   164:  ADD     R0, R0, R1, ASR #8
00:00008278 831089E0        	   165:  ADD     R1, R9, R3, LSL #1
00:0000827C 6C2F9FE5        	   166:  LDR     R2, 0x000091F0
00:00008280 0316C1E3        	   167:  BIC     R1, R1, #0x300000
00:00008284 211A92E7        	   168:  LDR     R1, [R2, R1, LSR #20]
00:00008288 410480E0        	   169:  ADD     R0, R0, R1, ASR #8
00:0000828C 050460E2        	   170:  RSB     R0, R0, #0x5000000
00:00008290 550650E3        	   171:  CMP     R0, #0x5500000
00:00008294 5506A0C3        	   172:  MOVGT   R0, #0x5500000
00:00008298 020358E3        	   173:  CMP     R8, #0x8000000
00:0000829C 02035933        	   174:  CMPLO   R9, #0x8000000
00:000082A0 3506A033        	   175:  MOVLO   R0, #0x3500000
00:000082A4 00018BE5        	   176:  STR     R0, [R11, #0x100]
00:000082A8 0EF0A0E1        	   177:  MOV     PC, R14
00:000082AC 00432DE9        	   178:  STMFD   R13!, {R8-R9, R14}
00:000082B0 008090E5        	   179:  LDR     R8, [R0]
00:000082B4 3C119BE5        	   180:  LDR     R1, [R11, #0x13C]
00:000082B8 018088E0        	   181:  ADD     R8, R8, R1
00:000082BC 089090E5        	   182:  LDR     R9, [R0, #8]
00:000082C0 44119BE5        	   183:  LDR     R1, [R11, #0x144]
00:000082C4 019089E0        	   184:  ADD     R9, R9, R1
00:000082C8 059349E2        	   185:  SUB     R9, R9, #0x14000000
00:000082CC C8FFFFEB        	   186:  BL      0x000081F4
00:000082D0 40E19BE5        	   187:  LDR     R14, [R11, #0x140]
00:000082D4 0E0040E0        	   188:  SUB     R0, R0, R14
00:000082D8 0083BDE8        	   189:  LDMFD   R13!, {R8-R9, PC}
00:000082DC 1F402DE9        	   190:  STMFD   R13!, {R0-R4, R14}
00:000082E0 04319BE5        	   191:  LDR     R3, [R11, #0x104]
00:000082E4 00419BE5        	   192:  LDR     R4, [R11, #0x100]
00:000082E8 04E053E0        	   193:  SUBS    R14, R3, R4
00:000082EC 00E0A043        	   194:  MOVMI   R14, #0
00:000082F0 102004E2        	   195:  AND     R2, R4, #0x10
00:000082F4 0020A0E3        	   196:  MOV     R2, #0
00:000082F8 081004E2        	   197:  AND     R1, R4, #8
00:000082FC A110A0E1        	   198:  MOV     R1, R1, LSR #1
00:00008300 041081E2        	   199:  ADD     R1, R1, #4
00:00008304 040004E2        	   200:  AND     R0, R4, #4
00:00008308 350654E3        	   201:  CMP     R4, #0x3500000
00:0000830C 0400A003        	   202:  MOVEQ   R0, #4
00:00008310 0410A003        	   203:  MOVEQ   R1, #4
00:00008314 0420A003        	   204:  MOVEQ   R2, #4
00:00008318 550654E3        	   205:  CMP     R4, #0x5500000
00:0000831C 55065303        	   206:  CMPEQ   R3, #0x5500000
00:00008320 0010A003        	   207:  MOVEQ   R1, #0
00:00008324 0420A003        	   208:  MOVEQ   R2, #4
00:00008328 0000A003        	   209:  MOVEQ   R0, #0
00:0000832C E480DBE5        	   210:  LDRB    R8, [R11, #0xE4]
00:00008330 2E3B88E0        	   211:  ADD     R3, R8, R14, LSR #22
00:00008334 030080E0        	   212:  ADD     R0, R0, R3
00:00008338 031081E0        	   213:  ADD     R1, R1, R3
00:0000833C 032082E0        	   214:  ADD     R2, R2, R3
00:00008340 100050E3        	   215:  CMP     R0, #0x10
00:00008344 0F00A023        	   216:  MOVHS   R0, #0xF
00:00008348 100051E3        	   217:  CMP     R1, #0x10
00:0000834C 0F10A023        	   218:  MOVHS   R1, #0xF
00:00008350 100052E3        	   219:  CMP     R2, #0x10
00:00008354 0F20A023        	   220:  MOVHS   R2, #0xF
00:00008358 028081E1        	   221:  ORR     R8, R1, R2
00:0000835C 038008E2        	   222:  AND     R8, R8, #3
00:00008360 008088E1        	   223:  ORR     R8, R8, R0
00:00008364 078008E2        	   224:  AND     R8, R8, #7
00:00008368 080010E3        	   225:  TST     R0, #8
00:0000836C 10808813        	   226:  ORRNE   R8, R8, #0x10
00:00008370 0C1001E2        	   227:  AND     R1, R1, #0xC
00:00008374 818188E1        	   228:  ORR     R8, R8, R1, LSL #3
00:00008378 040012E3        	   229:  TST     R2, #4
00:0000837C 08808813        	   230:  ORRNE   R8, R8, #8
00:00008380 080012E3        	   231:  TST     R2, #8
00:00008384 80808813        	   232:  ORRNE   R8, R8, #0x80
00:00008388 088488E1        	   233:  ORR     R8, R8, R8, LSL #8
00:0000838C 088888E1        	   234:  ORR     R8, R8, R8, LSL #16
00:00008390 088C88E1        	   235:  ORR     R8, R8, R8, LSL #24
00:00008394 1F80BDE8        	   236:  LDMFD   R13!, {R0-R4, PC}
00:00008398 00402DE9        	   237:  STMDB   R13!, {R14}
00:0000839C 1C0000EF        	   238:  SWI     0x1C
00:000083A0 5C21CBE5        	   239:  STRB    R2, [R11, #0x15C]
00:000083A4 28E19BE5        	   240:  LDR     R14, [R11, #0x128]
00:000083A8 00005EE3        	   241:  CMP     R14, #0
00:000083AC 5CE1CB05        	   242:  STREQB  R14, [R11, #0x15C]
00:000083B0 010B50E3        	   243:  CMP     R0, #0x400
00:000083B4 010BA023        	   244:  MOVHS   R0, #0x400
00:000083B8 01004022        	   245:  SUBHS   R0, R0, #1
00:000083BC 020C40E2        	   246:  SUB     R0, R0, #0x200
00:000083C0 011B61E2        	   247:  RSB     R1, R1, #0x400
00:000083C4 021C41E2        	   248:  SUB     R1, R1, #0x200
00:000083C8 000BA0E1        	   249:  MOV     R0, R0, LSL #22
00:000083CC 011BA0E1        	   250:  MOV     R1, R1, LSL #22
00:000083D0 670400EB        	   251:  BL      0x00009574
00:000083D4 010150E3        	   252:  CMP     R0, #0x40000000
00:000083D8 0101A023        	   253:  MOVHS   R0, #0x40000000
00:000083DC 01004022        	   254:  SUBHS   R0, R0, #1
00:000083E0 8000A0E1        	   255:  MOV     R0, R0, LSL #1
00:000083E4 58219BE5        	   256:  LDR     R2, [R11, #0x158]
00:000083E8 54319BE5        	   257:  LDR     R3, [R11, #0x154]
00:000083EC 014053E0        	   258:  SUBS    R4, R3, R1
00:000083F0 0200004A        	   259:  BMI     0x00008400
00:000083F4 030254E3        	   260:  CMP     R4, #0x30000000
00:000083F8 0342A023        	   261:  MOVHS   R4, #0x30000000
00:000083FC 010000EA        	   262:  B       0x00008408
00:00008400 030274E3        	   263:  CMN     R4, #0x30000000
00:00008404 0342E033        	   264:  MVNLO   R4, #0x30000000
00:00008408 005052E0        	   265:  SUBS    R5, R2, R0
00:0000840C 020000DA        	   266:  BLE     0x0000841C
00:00008410 030255E3        	   267:  CMP     R5, #0x30000000
00:00008414 0352A023        	   268:  MOVHS   R5, #0x30000000
00:00008418 010000EA        	   269:  B       0x00008424
00:0000841C 030275E3        	   270:  CMN     R5, #0x30000000
00:00008420 0352E033        	   271:  MVNLO   R5, #0x30000000
00:00008424 C50042E0        	   272:  SUB     R0, R2, R5, ASR #1
00:00008428 C41043E0        	   273:  SUB     R1, R3, R4, ASR #1
00:0000842C 58018BE5        	   274:  STR     R0, [R11, #0x158]
00:00008430 54118BE5        	   275:  STR     R1, [R11, #0x154]
00:00008434 EA0300EB        	   276:  BL      0x000093E4
00:00008438 94E08BE2        	   277:  ADD     R14, R11, #0x94
00:0000843C 3F009EE8        	   278:  LDMIA   R14, {R0-R5}
00:00008440 0D0371E3        	   279:  CMN     R1, #0x34000000
00:00008444 5C91DBB5        	   280:  LDRLTB  R9, [R11, #0x15C]
00:00008448 0690C9B3        	   281:  BICLT   R9, R9, #6
00:0000844C 5C91CBB5        	   282:  STRLTB  R9, [R11, #0x15C]
00:00008450 34609BE5        	   283:  LDR     R6, [R11, #0x34]
00:00008454 40709BE5        	   284:  LDR     R7, [R11, #0x40]
00:00008458 4C809BE5        	   285:  LDR     R8, [R11, #0x4C]
00:0000845C 5C91DBE5        	   286:  LDRB    R9, [R11, #0x15C]
00:00008460 040019E3        	   287:  TST     R9, #4
00:00008464 433343E0        	   288:  SUB     R3, R3, R3, ASR #6
00:00008468 C6354310        	   289:  SUBNE   R3, R3, R6, ASR #11
00:0000846C 030080E0        	   290:  ADD     R0, R0, R3
00:00008470 444344E0        	   291:  SUB     R4, R4, R4, ASR #6
00:00008474 C7454410        	   292:  SUBNE   R4, R4, R7, ASR #11
00:00008478 041081E0        	   293:  ADD     R1, R1, R4
00:0000847C 455345E0        	   294:  SUB     R5, R5, R5, ASR #6
00:00008480 C8554510        	   295:  SUBNE   R5, R5, R8, ASR #11
00:00008484 052082E0        	   296:  ADD     R2, R2, R5
00:00008488 020019E3        	   297:  TST     R9, #2
00:0000848C C6364310        	   298:  SUBNE   R3, R3, R6, ASR #13
00:00008490 C7464410        	   299:  SUBNE   R4, R4, R7, ASR #13
00:00008494 C8564510        	   300:  SUBNE   R5, R5, R8, ASR #13
00:00008498 2C919BE5        	   301:  LDR     R9, [R11, #0x12C]
00:0000849C 094084E0        	   302:  ADD     R4, R4, R9
00:000084A0 FF018EE8        	   303:  STMIA   R14, {R0-R8}
00:000084A4 000051E3        	   304:  CMP     R1, #0
00:000084A8 0010A053        	   305:  MOVPL   R1, #0
00:000084AC 052482E2        	   306:  ADD     R2, R2, #0x5000000
00:000084B0 4FEF8BE2        	   307:  ADD     R14, R11, #0x13C
00:000084B4 07008EE8        	   308:  STMIA   R14, {R0-R2}
00:000084B8 0080A0E1        	   309:  MOV     R8, R0
00:000084BC 0290A0E1        	   310:  MOV     R9, R2
00:000084C0 059449E2        	   311:  SUB     R9, R9, #0x5000000
00:000084C4 4AFFFFEB        	   312:  BL      0x000081F4
00:000084C8 190740E2        	   313:  SUB     R0, R0, #0x640000
00:000084CC 98109BE5        	   314:  LDR     R1, [R11, #0x98]
00:000084D0 01E040E0        	   315:  SUB     R14, R0, R1
00:000084D4 06055EE3        	   316:  CMP     R14, #0x1800000
00:000084D8 0B00002A        	   317:  BHS     0x0000850C
00:000084DC 01002DE9        	   318:  STMDB   R13!, {R0}
00:000084E0 11EB8BE2        	   319:  ADD     R14, R11, #0x4400
00:000084E4 FF9409E2        	   320:  AND     R9, R9, #0xFF000000
00:000084E8 28EC8EE0        	   321:  ADD     R14, R14, R8, LSR #24
00:000084EC 29E88EE0        	   322:  ADD     R14, R14, R9, LSR #16
00:000084F0 0000DEE5        	   323:  LDRB    R0, [R14]
00:000084F4 000050E3        	   324:  CMP     R0, #0
00:000084F8 0200000A        	   325:  BEQ     0x00008508
00:000084FC 0C0050E3        	   326:  CMP     R0, #0xC
00:00008500 04D08D32        	   327:  ADDLO   R13, R13, #4
00:00008504 6F00003A        	   328:  BLO     0x000086C8
00:00008508 0100BDE8        	   329:  LDMIA   R13!, {R0}
00:0000850C 000051E1        	   330:  CMP     R1, R0
00:00008510 4F0000CB        	   331:  BLGT    0x00008654
00:00008514 000051E3        	   332:  CMP     R1, #0
00:00008518 0010A043        	   333:  MOVMI   R1, #0
00:0000851C 30308BE2        	   334:  ADD     R3, R11, #0x30
00:00008520 94E99FE5        	   335:  LDR     R14, 0x00008EBC
00:00008524 10E18BE5        	   336:  STR     R14, [R11, #0x110]
00:00008528 0000A0E3        	   337:  MOV     R0, #0
00:0000852C 0F24A0E3        	   338:  MOV     R2, #0xF000000
00:00008530 630200EB        	   339:  BL      0x00008EC4
00:00008534 20A1DBE5        	   340:  LDRB    R10, [R11, #0x120]
00:00008538 00005AE3        	   341:  CMP     R10, #0
00:0000853C 6100001B        	   342:  BLNE    0x000086C8
00:00008540 5CA1DBE5        	   343:  LDRB    R10, [R11, #0x15C]
00:00008544 06001AE3        	   344:  TST     R10, #6
00:00008548 2900000A        	   345:  BEQ     0x000085F4
00:0000854C A0E08BE2        	   346:  ADD     R14, R11, #0xA0
00:00008550 C7019EE8        	   347:  LDMIA   R14, {R0-R2, R6-R8}
00:00008554 C63380E0        	   348:  ADD     R3, R0, R6, ASR #7
00:00008558 C74381E0        	   349:  ADD     R4, R1, R7, ASR #7
00:0000855C C85382E0        	   350:  ADD     R5, R2, R8, ASR #7
00:00008560 C330A0E1        	   351:  MOV     R3, R3, ASR #1
00:00008564 C440A0E1        	   352:  MOV     R4, R4, ASR #1
00:00008568 C550A0E1        	   353:  MOV     R5, R5, ASR #1
00:0000856C 94008BE2        	   354:  ADD     R0, R11, #0x94
00:00008570 070090E8        	   355:  LDMIA   R0, {R0-R2}
00:00008574 030040E0        	   356:  SUB     R0, R0, R3
00:00008578 041041E0        	   357:  SUB     R1, R1, R4
00:0000857C 052042E0        	   358:  SUB     R2, R2, R5
00:00008580 C60380E0        	   359:  ADD     R0, R0, R6, ASR #7
00:00008584 C71381E0        	   360:  ADD     R1, R1, R7, ASR #7
00:00008588 C82382E0        	   361:  ADD     R2, R2, R8, ASR #7
00:0000858C 1D78A0E3        	   362:  MOV     R7, #0x1D0000
00:00008590 0860A0E3        	   363:  MOV     R6, #8
00:00008594 0A80A0E3        	   364:  MOV     R8, #0xA
00:00008598 1D90A0E3        	   365:  MOV     R9, #0x1D
00:0000859C FF032DE9        	   366:  STMFD   R13!, {R0-R9}
00:000085A0 390100EB        	   367:  BL      0x00008A8C
00:000085A4 04001AE3        	   368:  TST     R10, #4
00:000085A8 FF039D18        	   369:  LDMNEIA R13, {R0-R9}
00:000085AC 3601001B        	   370:  BLNE    0x00008A8C
00:000085B0 04001AE3        	   371:  TST     R10, #4
00:000085B4 FF039D18        	   372:  LDMNEIA R13, {R0-R9}
00:000085B8 3301001B        	   373:  BLNE    0x00008A8C
00:000085BC 04001AE3        	   374:  TST     R10, #4
00:000085C0 FF039D18        	   375:  LDMNEIA R13, {R0-R9}
00:000085C4 3001001B        	   376:  BLNE    0x00008A8C
00:000085C8 04001AE3        	   377:  TST     R10, #4
00:000085CC FF039D18        	   378:  LDMNEIA R13, {R0-R9}
00:000085D0 2D01001B        	   379:  BLNE    0x00008A8C
00:000085D4 04001AE3        	   380:  TST     R10, #4
00:000085D8 FF039D18        	   381:  LDMNEIA R13, {R0-R9}
00:000085DC 2A01001B        	   382:  BLNE    0x00008A8C
00:000085E0 04001AE3        	   383:  TST     R10, #4
00:000085E4 FF039D18        	   384:  LDMNEIA R13, {R0-R9}
00:000085E8 2701001B        	   385:  BLNE    0x00008A8C
00:000085EC FF03BDE8        	   386:  LDMFD   R13!, {R0-R9}
00:000085F0 250100EB        	   387:  BL      0x00008A8C
00:000085F4 01001AE3        	   388:  TST     R10, #1
00:000085F8 1400000A        	   389:  BEQ     0x00008650
00:000085FC 24819BE5        	   390:  LDR     R8, [R11, #0x124]
00:00008600 018048E2        	   391:  SUB     R8, R8, #1
00:00008604 24818BE5        	   392:  STR     R8, [R11, #0x124]
00:00008608 94E08BE2        	   393:  ADD     R14, R11, #0x94
00:0000860C 3F009EE8        	   394:  LDMIA   R14, {R0-R5}
00:00008610 30609BE5        	   395:  LDR     R6, [R11, #0x30]
00:00008614 3C709BE5        	   396:  LDR     R7, [R11, #0x3C]
00:00008618 48809BE5        	   397:  LDR     R8, [R11, #0x48]
00:0000861C 463483E0        	   398:  ADD     R3, R3, R6, ASR #8
00:00008620 474484E0        	   399:  ADD     R4, R4, R7, ASR #8
00:00008624 485485E0        	   400:  ADD     R5, R5, R8, ASR #8
00:00008628 030040E0        	   401:  SUB     R0, R0, R3
00:0000862C 041041E0        	   402:  SUB     R1, R1, R4
00:00008630 052042E0        	   403:  SUB     R2, R2, R5
00:00008634 C60380E0        	   404:  ADD     R0, R0, R6, ASR #7
00:00008638 C71381E0        	   405:  ADD     R1, R1, R7, ASR #7
00:0000863C C82382E0        	   406:  ADD     R2, R2, R8, ASR #7
00:00008640 1460A0E3        	   407:  MOV     R6, #0x14
00:00008644 6F77A0E3        	   408:  MOV     R7, #0x1BC0000
00:00008648 FF7087E3        	   409:  ORR     R7, R7, #0xFF
00:0000864C 0C0100EB        	   410:  BL      0x00008A84
00:00008650 0080BDE8        	   411:  LDMIA   R13!, {PC}
00:00008654 94308BE2        	   412:  ADD     R3, R11, #0x94
00:00008658 3F0093E8        	   413:  LDMIA   R3, {R0-R5}
00:0000865C 020350E3        	   414:  CMP     R0, #0x8000000
00:00008660 02035233        	   415:  CMPLO   R2, #0x8000000
00:00008664 1700002A        	   416:  BHS     0x000086C8
00:00008668 000053E3        	   417:  CMP     R3, #0
00:0000866C 00306342        	   418:  RSBMI   R3, R3, #0
00:00008670 000054E3        	   419:  CMP     R4, #0
00:00008674 00406442        	   420:  RSBMI   R4, R4, #0
00:00008678 000055E3        	   421:  CMP     R5, #0
00:0000867C 00506542        	   422:  RSBMI   R5, R5, #0
00:00008680 043083E0        	   423:  ADD     R3, R3, R4
00:00008684 053083E0        	   424:  ADD     R3, R3, R5
00:00008688 020653E3        	   425:  CMP     R3, #0x200000
00:0000868C 0EF0A021        	   426:  MOVHS   PC, R14
00:00008690 BB17A0E3        	   427:  MOV     R1, #0x2EC0000
00:00008694 28319BE5        	   428:  LDR     R3, [R11, #0x128]
00:00008698 203083E2        	   429:  ADD     R3, R3, #0x20
00:0000869C 050B53E3        	   430:  CMP     R3, #0x1400
00:000086A0 28318B35        	   431:  STRLO   R3, [R11, #0x128]
00:000086A4 0030A0E3        	   432:  MOV     R3, #0
00:000086A8 0040A0E3        	   433:  MOV     R4, #0
00:000086AC 0050A0E3        	   434:  MOV     R5, #0
00:000086B0 A0308BE5        	   435:  STR     R3, [R11, #0xA0]
00:000086B4 A4408BE5        	   436:  STR     R4, [R11, #0xA4]
00:000086B8 A8508BE5        	   437:  STR     R5, [R11, #0xA8]
00:000086BC 98108BE5        	   438:  STR     R1, [R11, #0x98]
00:000086C0 0EF0A0E1        	   439:  MOV     PC, R14
00:000086C4 0014BDE8        	   440:  LDMFD   R13!, {R10, R12}
00:000086C8 0000A0E3        	   441:  MOV     R0, #0
00:000086CC 30018BE5        	   442:  STR     R0, [R11, #0x130]
00:000086D0 1E00A0E3        	   443:  MOV     R0, #0x1E
00:000086D4 1C018BE5        	   444:  STR     R0, [R11, #0x11C]
00:000086D8 5180A0E3        	   445:  MOV     R8, #0x51
00:000086DC 94008BE2        	   446:  ADD     R0, R11, #0x94
00:000086E0 070090E8        	   447:  LDMIA   R0, {R0-R2}
00:000086E4 051641E2        	   448:  SUB     R1, R1, #0x500000
00:000086E8 730100EB        	   449:  BL      0x00008CBC
00:000086EC 18019BE5        	   450:  LDR     R0, [R11, #0x118]
00:000086F0 000CA0E1        	   451:  MOV     R0, R0, LSL #24
00:000086F4 8010A0E1        	   452:  MOV     R1, R0, LSL #1
00:000086F8 390300EB        	   453:  BL      0x000093E4
00:000086FC 3C0000EB        	   454:  BL      0x000087F4
00:00008700 B50100EB        	   455:  BL      0x00008DDC
00:00008704 7C0500EB        	   456:  BL      0x00009CFC
00:00008708 5FFEFFEB        	   457:  BL      0x0000808C
00:0000870C 7D0200EB        	   458:  BL      0x00009108
00:00008710 890500EB        	   459:  BL      0x00009D3C
00:00008714 18019BE5        	   460:  LDR     R0, [R11, #0x118]
00:00008718 010080E2        	   461:  ADD     R0, R0, #1
00:0000871C 18018BE5        	   462:  STR     R0, [R11, #0x118]
00:00008720 1C019BE5        	   463:  LDR     R0, [R11, #0x11C]
00:00008724 010050E2        	   464:  SUBS    R0, R0, #1
00:00008728 1C018BE5        	   465:  STR     R0, [R11, #0x11C]
00:0000872C EEFFFF5A        	   466:  BPL     0x000086EC
00:00008730 34019BE5        	   467:  LDR     R0, [R11, #0x134]
00:00008734 010050E2        	   468:  SUBS    R0, R0, #1
00:00008738 34018BE5        	   469:  STR     R0, [R11, #0x134]
00:0000873C 04D08DE2        	   470:  ADD     R13, R13, #4
00:00008740 2C08001A        	   471:  BNE     0x0000A7F8
00:00008744 7000A0E3        	   472:  MOV     R0, #0x70
00:00008748 0110A0E3        	   473:  MOV     R1, #1
00:0000874C 060000EF        	   474:  SWI     0x6
00:00008750 1F00A0E3        	   475:  MOV     R0, #0x1F
00:00008754 000000EF        	   476:  SWI     0x0
00:00008758 0100A0E3        	   477:  MOV     R0, #1
00:0000875C 000000EF        	   478:  SWI     0x0
00:00008760 1000A0E3        	   479:  MOV     R0, #0x10
00:00008764 000000EF        	   480:  SWI     0x0
00:00008768 010000EF        	   481:  SWI     OS_WriteS
                            	   482: 
00:0000876C 47414D45204F5645	   483: .byte "GAME OVER - press a key to start again"
00:00008774 52202D2070726573
00:0000877C 732061206B657920
00:00008784 746F207374617274
00:0000878C 20616761696E
00:00008792 00              	   484: .byte 0
                            	   485: .balign 4
                            	   486: 
00:00008794 7000A0E3        	   487:  MOV     R0, #0x70
00:00008798 0210A0E3        	   488:  MOV     R1, #2
00:0000879C 060000EF        	   489:  SWI     0x6
00:000087A0 1F00A0E3        	   490:  MOV     R0, #0x1F
00:000087A4 000000EF        	   491:  SWI     0x0
00:000087A8 0100A0E3        	   492:  MOV     R0, #1
00:000087AC 000000EF        	   493:  SWI     0x0
00:000087B0 1000A0E3        	   494:  MOV     R0, #0x10
00:000087B4 000000EF        	   495:  SWI     0x0
00:000087B8 010000EF        	   496:  SWI     OS_WriteS
                            	   497: 
00:000087BC 47414D45204F5645	   498: .byte "GAME OVER - press a key to start again"
00:000087C4 52202D2070726573
00:000087CC 732061206B657920
00:000087D4 746F207374617274
00:000087DC 20616761696E
00:000087E2 00              	   499: .byte 0
                            	   500: .balign 4
                            	   501: 
00:000087E4 040000EF        	   502:  SWI     0x4
00:000087E8 D10700EA        	   503:  B       0x0000A734
                            	   504: 
00:000087EC 5C800000        	   505: .long 0x0000805C
00:000087F0 2C800000        	   506: .long 0x0000802C
                            	   507: 
00:000087F4 00542DE9        	   508:  STMFD   R13!, {R10, R12, R14}
00:000087F8 07AC8BE2        	   509:  ADD     R10, R11, #0x700
00:000087FC 18C01FE5        	   510:  LDR     R12, 0x000087EC
00:00008800 FF009AE8        	   511:  LDMIA   R10, {R0-R7}
00:00008804 000057E3        	   512:  CMP     R7, #0
00:00008808 0094BD08        	   513:  LDMEQFD R13!, {R10, R12, PC}
00:0000880C 016056E2        	   514:  SUBS    R6, R6, #1
00:00008810 9000000A        	   515:  BEQ     0x00008A58
00:00008814 030080E0        	   516:  ADD     R0, R0, R3
00:00008818 041081E0        	   517:  ADD     R1, R1, R4
00:0000881C 052082E0        	   518:  ADD     R2, R2, R5
00:00008820 010617E3        	   519:  TST     R7, #0x100000
00:00008824 2CE19B15        	   520:  LDRNE   R14, [R11, #0x12C]
00:00008828 0E408410        	   521:  ADDNE   R4, R4, R14
00:0000882C 010817E3        	   522:  TST     R7, #0x10000
00:00008830 4100001B        	   523:  BLNE    0x0000893C
00:00008834 0080A0E1        	   524:  MOV     R8, R0
00:00008838 0290A0E1        	   525:  MOV     R9, R2
00:0000883C 0F002DE9        	   526:  STMFD   R13!, {R0-R3}
00:00008840 6BFEFFEB        	   527:  BL      0x000081F4
00:00008844 0090A0E1        	   528:  MOV     R9, R0
00:00008848 0F00BDE8        	   529:  LDMFD   R13!, {R0-R3}
00:0000884C 020617E3        	   530:  TST     R7, #0x200000
00:00008850 5C00001B        	   531:  BLNE    0x000089C8
00:00008854 090051E1        	   532:  CMP     R1, R9
00:00008858 4E0000CB        	   533:  BLGT    0x00008998
00:0000885C FF00AAE8        	   534:  STMIA   R10!, {R0-R7}
00:00008860 3C819BE5        	   535:  LDR     R8, [R11, #0x13C]
00:00008864 080040E0        	   536:  SUB     R0, R0, R8
00:00008868 44819BE5        	   537:  LDR     R8, [R11, #0x144]
00:0000886C 082042E0        	   538:  SUB     R2, R2, R8
00:00008870 052382E2        	   539:  ADD     R2, R2, #0x14000000
00:00008874 40819BE5        	   540:  LDR     R8, [R11, #0x140]
00:00008878 081041E0        	   541:  SUB     R1, R1, R8
00:0000887C 050352E3        	   542:  CMP     R2, #0x14000000
00:00008880 DEFFFF2A        	   543:  BHS     0x00008800
00:00008884 0A0452E3        	   544:  CMP     R2, #0xA000000
00:00008888 DCFFFF3A        	   545:  BLO     0x00008800
00:0000888C 00E0B0E1        	   546:  MOVS    R14, R0
00:00008890 00E06042        	   547:  RSBMI   R14, R0, #0
00:00008894 06045EE3        	   548:  CMP     R14, #0x6000000
00:00008898 D8FFFF2A        	   549:  BHS     0x00008800
00:0000889C 020817E3        	   550:  TST     R7, #0x20000
00:000088A0 1700000A        	   551:  BEQ     0x00008904
00:000088A4 07002DE9        	   552:  STMFD   R13!, {R0-R2}
00:000088A8 30E19BE5        	   553:  LDR     R14, [R11, #0x130]
00:000088AC 00005EE3        	   554:  CMP     R14, #0
00:000088B0 0C00000A        	   555:  BEQ     0x000088E8
00:000088B4 000050E3        	   556:  CMP     R0, #0
00:000088B8 00006042        	   557:  RSBMI   R0, R0, #0
00:000088BC 0F2452E2        	   558:  SUBS    R2, R2, #0xF000000
00:000088C0 00206242        	   559:  RSBMI   R2, R2, #0
00:000088C4 010450E3        	   560:  CMP     R0, #0x1000000
00:000088C8 01045233        	   561:  CMPLO   R2, #0x1000000
00:000088CC 0500002A        	   562:  BHS     0x000088E8
00:000088D0 40019BE5        	   563:  LDR     R0, [R11, #0x140]
00:000088D4 001081E0        	   564:  ADD     R1, R1, R0
00:000088D8 98009BE5        	   565:  LDR     R0, [R11, #0x98]
00:000088DC 001051E0        	   566:  SUBS    R1, R1, R0
00:000088E0 00106142        	   567:  RSBMI   R1, R1, #0
00:000088E4 010451E3        	   568:  CMP     R1, #0x1000000
00:000088E8 0700BDE8        	   569:  LDMFD   R13!, {R0-R2}
00:000088EC 74FFFF3A        	   570:  BLO     0x000086C4
00:000088F0 C8E59FE5        	   571:  LDR     R14, 0x00008EC0
00:000088F4 10E18BE5        	   572:  STR     R14, [R11, #0x110]
00:000088F8 30308BE2        	   573:  ADD     R3, R11, #0x30
00:000088FC 700100EB        	   574:  BL      0x00008EC4
00:00008900 BEFFFFEA        	   575:  B       0x00008800
00:00008904 87002DE9        	   576:  STMFD   R13!, {R0-R2, R7}
00:00008908 40E19BE5        	   577:  LDR     R14, [R11, #0x140]
00:0000890C 0E1049E0        	   578:  SUB     R1, R9, R14
00:00008910 0280A0E1        	   579:  MOV     R8, R2
00:00008914 550300EB        	   580:  BL      0x00009670
00:00008918 B504003B        	   581:  BLLO    0x00009BF4
00:0000891C 8700BDE8        	   582:  LDMFD   R13!, {R0-R2, R7}
00:00008920 0280A0E1        	   583:  MOV     R8, R2
00:00008924 510300EB        	   584:  BL      0x00009670
00:00008928 A204003B        	   585:  BLLO    0x00009BB8
00:0000892C FF009AE8        	   586:  LDMIA   R10, {R0-R7}
00:00008930 000057E3        	   587:  CMP     R7, #0
00:00008934 B4FFFF1A        	   588:  BNE     0x0000880C
00:00008938 0094BDE8        	   589:  LDMFD   R13!, {R10, R12, PC}
00:0000893C 47002DE9        	   590:  STMFD   R13!, {R0-R2, R6}
00:00008940 0F00A0E3        	   591:  MOV     R0, #0xF
00:00008944 080056E3        	   592:  CMP     R6, #8
00:00008948 0F10A023        	   593:  MOVHS   R1, #0xF
00:0000894C 8610A031        	   594:  MOVLO   R1, R6, LSL #1
00:00008950 08204622        	   595:  SUBHS   R2, R6, #8
00:00008954 8220A021        	   596:  MOVHS   R2, R2, LSL #1
00:00008958 0020A033        	   597:  MOVLO   R2, #0
00:0000895C 027081E1        	   598:  ORR     R7, R1, R2
00:00008960 037007E2        	   599:  AND     R7, R7, #3
00:00008964 007087E1        	   600:  ORR     R7, R7, R0
00:00008968 077007E2        	   601:  AND     R7, R7, #7
00:0000896C 080010E3        	   602:  TST     R0, #8
00:00008970 10708713        	   603:  ORRNE   R7, R7, #0x10
00:00008974 0C1001E2        	   604:  AND     R1, R1, #0xC
00:00008978 817187E1        	   605:  ORR     R7, R7, R1, LSL #3
00:0000897C 040012E3        	   606:  TST     R2, #4
00:00008980 08708713        	   607:  ORRNE   R7, R7, #8
00:00008984 080012E3        	   608:  TST     R2, #8
00:00008988 80708713        	   609:  ORRNE   R7, R7, #0x80
00:0000898C 1D7887E3        	   610:  ORR     R7, R7, #0x1D0000
00:00008990 4700BDE8        	   611:  LDMFD   R13!, {R0-R2, R6}
00:00008994 0EF0A0E1        	   612:  MOV     PC, R14
00:00008998 0910A0E1        	   613:  MOV     R1, R9
00:0000899C 550659E3        	   614:  CMP     R9, #0x5500000
00:000089A0 2300000A        	   615:  BEQ     0x00008A34
00:000089A4 020717E3        	   616:  TST     R7, #0x80000
00:000089A8 2A00000A        	   617:  BEQ     0x00008A58
00:000089AC 010417E3        	   618:  TST     R7, #0x1000000
00:000089B0 1C00001A        	   619:  BNE     0x00008A28
00:000089B4 C330A0E1        	   620:  MOV     R3, R3, ASR #1
00:000089B8 C440A0E1        	   621:  MOV     R4, R4, ASR #1
00:000089BC C550A0E1        	   622:  MOV     R5, R5, ASR #1
00:000089C0 004064E2        	   623:  RSB     R4, R4, #0
00:000089C4 0EF0A0E1        	   624:  MOV     PC, R14
00:000089C8 018049E0        	   625:  SUB     R8, R9, R1
00:000089CC 060558E3        	   626:  CMP     R8, #0x1800000
00:000089D0 0EF0A021        	   627:  MOVHS   PC, R14
00:000089D4 04002DE9        	   628:  STMDB   R13!, {R2}
00:000089D8 F4E08BE5        	   629:  STR     R14, [R11, #0xF4]
00:000089DC 11EB8BE2        	   630:  ADD     R14, R11, #0x4400
00:000089E0 FF2402E2        	   631:  AND     R2, R2, #0xFF000000
00:000089E4 20EC8EE0        	   632:  ADD     R14, R14, R0, LSR #24
00:000089E8 22E88EE0        	   633:  ADD     R14, R14, R2, LSR #16
00:000089EC 0400BDE8        	   634:  LDMIA   R13!, {R2}
00:000089F0 0080DEE5        	   635:  LDRB    R8, [R14]
00:000089F4 FF0058E3        	   636:  CMP     R8, #0xFF
00:000089F8 F4F09B05        	   637:  LDREQ   PC, [R11, #0xF4]
00:000089FC 0C0058E3        	   638:  CMP     R8, #0xC
00:00008A00 0800002A        	   639:  BHS     0x00008A28
00:00008A04 0C8088E2        	   640:  ADD     R8, R8, #0xC
00:00008A08 0080CEE5        	   641:  STRB    R8, [R14]
00:00008A0C 020817E3        	   642:  TST     R7, #0x20000
00:00008A10 24819B05        	   643:  LDREQ   R8, [R11, #0x124]
00:00008A14 14808802        	   644:  ADDEQ   R8, R8, #0x14
00:00008A18 24818B05        	   645:  STREQ   R8, [R11, #0x124]
00:00008A1C 1480A0E3        	   646:  MOV     R8, #0x14
00:00008A20 A50000EB        	   647:  BL      0x00008CBC
00:00008A24 0B0000EA        	   648:  B       0x00008A58
00:00008A28 0380A0E3        	   649:  MOV     R8, #3
00:00008A2C A20000EB        	   650:  BL      0x00008CBC
00:00008A30 080000EA        	   651:  B       0x00008A58
00:00008A34 010717E3        	   652:  TST     R7, #0x40000
00:00008A38 0600000A        	   653:  BEQ     0x00008A58
00:00008A3C 020517E3        	   654:  TST     R7, #0x800000
00:00008A40 4180A013        	   655:  MOVNE   R8, #0x41
00:00008A44 0480A003        	   656:  MOVEQ   R8, #4
00:00008A48 011641E2        	   657:  SUB     R1, R1, #0x100000
00:00008A4C 810000EB        	   658:  BL      0x00008C58
00:00008A50 018058E2        	   659:  SUBS    R8, R8, #1
00:00008A54 FCFFFF1A        	   660:  BNE     0x00008A4C
00:00008A58 08819BE5        	   661:  LDR     R8, [R11, #0x108]
00:00008A5C 208048E2        	   662:  SUB     R8, R8, #0x20
00:00008A60 08818BE5        	   663:  STR     R8, [R11, #0x108]
00:00008A64 FF0098E8        	   664:  LDMIA   R8, {R0-R7}
00:00008A68 FF008AE8        	   665:  STMIA   R10, {R0-R7}
00:00008A6C 0070A0E3        	   666:  MOV     R7, #0
00:00008A70 1C7088E5        	   667:  STR     R7, [R8, #0x1C]
00:00008A74 0C819BE5        	   668:  LDR     R8, [R11, #0x10C]
00:00008A78 018048E2        	   669:  SUB     R8, R8, #1
00:00008A7C 0C818BE5        	   670:  STR     R8, [R11, #0x10C]
00:00008A80 5EFFFFEA        	   671:  B       0x00008800
00:00008A84 00412DE9        	   672:  STMFD   R13!, {R8, R14}
00:00008A88 0E0000EA        	   673:  B       0x00008AC8
00:00008A8C 00412DE9        	   674:  STMFD   R13!, {R8, R14}
00:00008A90 020000EA        	   675:  B       0x00008AA0
00:00008A94 0040A0E3        	   676:  MOV     R4, #0
00:00008A98 0030A0E3        	   677:  MOV     R3, #0
00:00008A9C 0050A0E3        	   678:  MOV     R5, #0
00:00008AA0 03002DE9        	   679:  STMFD   R13!, {R0-R1}
00:00008AA4 E50300EB        	   680:  BL      0x00009A40
00:00008AA8 503883E0        	   681:  ADD     R3, R3, R0, ASR R8
00:00008AAC E30300EB        	   682:  BL      0x00009A40
00:00008AB0 504884E0        	   683:  ADD     R4, R4, R0, ASR R8
00:00008AB4 E10300EB        	   684:  BL      0x00009A40
00:00008AB8 505885E0        	   685:  ADD     R5, R5, R0, ASR R8
00:00008ABC DF0300EB        	   686:  BL      0x00009A40
00:00008AC0 306986E0        	   687:  ADD     R6, R6, R0, LSR R9
00:00008AC4 0300BDE8        	   688:  LDMFD   R13!, {R0-R1}
00:00008AC8 0C819BE5        	   689:  LDR     R8, [R11, #0x10C]
00:00008ACC 790F58E3        	   690:  CMP     R8, #0x1E4
00:00008AD0 0081BD28        	   691:  LDMHSFD R13!, {R8, PC}
00:00008AD4 018088E2        	   692:  ADD     R8, R8, #1
00:00008AD8 0C818BE5        	   693:  STR     R8, [R11, #0x10C]
00:00008ADC 08819BE5        	   694:  LDR     R8, [R11, #0x108]
00:00008AE0 FF00A8E8        	   695:  STMIA   R8!, {R0-R7}
00:00008AE4 08818BE5        	   696:  STR     R8, [R11, #0x108]
00:00008AE8 0090A0E3        	   697:  MOV     R9, #0
00:00008AEC 1C9088E5        	   698:  STR     R9, [R8, #0x1C]
00:00008AF0 0081BDE8        	   699:  LDMFD   R13!, {R8, PC}
00:00008AF4 070C8BE2        	   700:  ADD     R0, R11, #0x700
00:00008AF8 08018BE5        	   701:  STR     R0, [R11, #0x108]
00:00008AFC 0010A0E3        	   702:  MOV     R1, #0
00:00008B00 1C1080E5        	   703:  STR     R1, [R0, #0x1C]
00:00008B04 0C118BE5        	   704:  STR     R1, [R11, #0x10C]
00:00008B08 0EF0A0E1        	   705:  MOV     PC, R14
00:00008B0C 07412DE9        	   706:  STMFD   R13!, {R0-R2, R8, R14}
00:00008B10 CA0300EB        	   707:  BL      0x00009A40
00:00008B14 070000E2        	   708:  AND     R0, R0, #7
00:00008B18 030080E2        	   709:  ADD     R0, R0, #3
00:00008B1C 0010A0E1        	   710:  MOV     R1, R0
00:00008B20 0020A0E1        	   711:  MOV     R2, R0
00:00008B24 027081E1        	   712:  ORR     R7, R1, R2
00:00008B28 037007E2        	   713:  AND     R7, R7, #3
00:00008B2C 007087E1        	   714:  ORR     R7, R7, R0
00:00008B30 077007E2        	   715:  AND     R7, R7, #7
00:00008B34 080010E3        	   716:  TST     R0, #8
00:00008B38 10708713        	   717:  ORRNE   R7, R7, #0x10
00:00008B3C 0C1001E2        	   718:  AND     R1, R1, #0xC
00:00008B40 817187E1        	   719:  ORR     R7, R7, R1, LSL #3
00:00008B44 040012E3        	   720:  TST     R2, #4
00:00008B48 08708713        	   721:  ORRNE   R7, R7, #8
00:00008B4C 080012E3        	   722:  TST     R2, #8
00:00008B50 80708713        	   723:  ORRNE   R7, R7, #0x80
00:00008B54 027787E3        	   724:  ORR     R7, R7, #0x80000
00:00008B58 0247E0E3        	   725:  MVN     R4, #0x80000
00:00008B5C 0700BDE8        	   726:  LDMFD   R13!, {R0-R2}
00:00008B60 1990A0E3        	   727:  MOV     R9, #0x19
00:00008B64 0D80A0E3        	   728:  MOV     R8, #0xD
00:00008B68 0F60A0E3        	   729:  MOV     R6, #0xF
00:00008B6C C9FFFFEA        	   730:  B       0x00008A98
00:00008B70 07412DE9        	   731:  STMFD   R13!, {R0-R2, R8, R14}
00:00008B74 B10300EB        	   732:  BL      0x00009A40
00:00008B78 A11EA0E1        	   733:  MOV     R1, R1, LSR #29
00:00008B7C 202FA0E1        	   734:  MOV     R2, R0, LSR #30
00:00008B80 070000E2        	   735:  AND     R0, R0, #7
00:00008B84 040080E2        	   736:  ADD     R0, R0, #4
00:00008B88 021081E2        	   737:  ADD     R1, R1, #2
00:00008B8C 042082E2        	   738:  ADD     R2, R2, #4
00:00008B90 027081E1        	   739:  ORR     R7, R1, R2
00:00008B94 037007E2        	   740:  AND     R7, R7, #3
00:00008B98 007087E1        	   741:  ORR     R7, R7, R0
00:00008B9C 077007E2        	   742:  AND     R7, R7, #7
00:00008BA0 080010E3        	   743:  TST     R0, #8
00:00008BA4 10708713        	   744:  ORRNE   R7, R7, #0x10
00:00008BA8 0C1001E2        	   745:  AND     R1, R1, #0xC
00:00008BAC 817187E1        	   746:  ORR     R7, R7, R1, LSL #3
00:00008BB0 040012E3        	   747:  TST     R2, #4
00:00008BB4 08708713        	   748:  ORRNE   R7, R7, #8
00:00008BB8 080012E3        	   749:  TST     R2, #8
00:00008BBC 80708713        	   750:  ORRNE   R7, R7, #0x80
00:00008BC0 077787E3        	   751:  ORR     R7, R7, #0x1C0000
00:00008BC4 0700BDE8        	   752:  LDMFD   R13!, {R0-R2}
00:00008BC8 1A90A0E3        	   753:  MOV     R9, #0x1A
00:00008BCC 0A80A0E3        	   754:  MOV     R8, #0xA
00:00008BD0 0F60A0E3        	   755:  MOV     R6, #0xF
00:00008BD4 AEFFFFEA        	   756:  B       0x00008A94
00:00008BD8 07412DE9        	   757:  STMFD   R13!, {R0-R2, R8, R14}
00:00008BDC 970300EB        	   758:  BL      0x00009A40
00:00008BE0 A11EA0E1        	   759:  MOV     R1, R1, LSR #29
00:00008BE4 202FA0E1        	   760:  MOV     R2, R0, LSR #30
00:00008BE8 070000E2        	   761:  AND     R0, R0, #7
00:00008BEC 040080E2        	   762:  ADD     R0, R0, #4
00:00008BF0 021081E2        	   763:  ADD     R1, R1, #2
00:00008BF4 042082E2        	   764:  ADD     R2, R2, #4
00:00008BF8 027081E1        	   765:  ORR     R7, R1, R2
00:00008BFC 037007E2        	   766:  AND     R7, R7, #3
00:00008C00 007087E1        	   767:  ORR     R7, R7, R0
00:00008C04 077007E2        	   768:  AND     R7, R7, #7
00:00008C08 080010E3        	   769:  TST     R0, #8
00:00008C0C 10708713        	   770:  ORRNE   R7, R7, #0x10
00:00008C10 0C1001E2        	   771:  AND     R1, R1, #0xC
00:00008C14 817187E1        	   772:  ORR     R7, R7, R1, LSL #3
00:00008C18 040012E3        	   773:  TST     R2, #4
00:00008C1C 08708713        	   774:  ORRNE   R7, R7, #8
00:00008C20 080012E3        	   775:  TST     R2, #8
00:00008C24 80708713        	   776:  ORRNE   R7, R7, #0x80
00:00008C28 FE7887E3        	   777:  ORR     R7, R7, #0xFE0000
00:00008C2C 0700BDE8        	   778:  LDMFD   R13!, {R0-R2}
00:00008C30 1B90A0E3        	   779:  MOV     R9, #0x1B
00:00008C34 0A80A0E3        	   780:  MOV     R8, #0xA
00:00008C38 AA60A0E3        	   781:  MOV     R6, #0xAA
00:00008C3C 94FFFFEA        	   782:  B       0x00008A94
00:00008C40 00412DE9        	   783:  STMFD   R13!, {R8, R14}
00:00008C44 1D78A0E3        	   784:  MOV     R7, #0x1D0000
00:00008C48 1D90A0E3        	   785:  MOV     R9, #0x1D
00:00008C4C 0880A0E3        	   786:  MOV     R8, #8
00:00008C50 0860A0E3        	   787:  MOV     R6, #8
00:00008C54 8EFFFFEA        	   788:  B       0x00008A94
00:00008C58 07412DE9        	   789:  STMFD   R13!, {R0-R2, R8, R14}
00:00008C5C 770300EB        	   790:  BL      0x00009A40
00:00008C60 032000E2        	   791:  AND     R2, R0, #3
00:00008C64 0C2082E2        	   792:  ADD     R2, R2, #0xC
00:00008C68 040000E2        	   793:  AND     R0, R0, #4
00:00008C6C 080080E2        	   794:  ADD     R0, R0, #8
00:00008C70 0010A0E1        	   795:  MOV     R1, R0
00:00008C74 027081E1        	   796:  ORR     R7, R1, R2
00:00008C78 037007E2        	   797:  AND     R7, R7, #3
00:00008C7C 007087E1        	   798:  ORR     R7, R7, R0
00:00008C80 077007E2        	   799:  AND     R7, R7, #7
00:00008C84 080010E3        	   800:  TST     R0, #8
00:00008C88 10708713        	   801:  ORRNE   R7, R7, #0x10
00:00008C8C 0C1001E2        	   802:  AND     R1, R1, #0xC
00:00008C90 817187E1        	   803:  ORR     R7, R7, R1, LSL #3
00:00008C94 040012E3        	   804:  TST     R2, #4
00:00008C98 08708713        	   805:  ORRNE   R7, R7, #8
00:00008C9C 080012E3        	   806:  TST     R2, #8
00:00008CA0 80708713        	   807:  ORRNE   R7, R7, #0x80
00:00008CA4 017687E3        	   808:  ORR     R7, R7, #0x100000
00:00008CA8 0700BDE8        	   809:  LDMFD   R13!, {R0-R2}
00:00008CAC 1A90A0E3        	   810:  MOV     R9, #0x1A
00:00008CB0 0A80A0E3        	   811:  MOV     R8, #0xA
00:00008CB4 1460A0E3        	   812:  MOV     R6, #0x14
00:00008CB8 75FFFFEA        	   813:  B       0x00008A94
00:00008CBC F8432DE9        	   814:  STMFD   R13!, {R3-R9, R14}
00:00008CC0 DEFFFFEB        	   815:  BL      0x00008C40
00:00008CC4 A9FFFFEB        	   816:  BL      0x00008B70
00:00008CC8 8FFFFFEB        	   817:  BL      0x00008B0C
00:00008CCC DBFFFFEB        	   818:  BL      0x00008C40
00:00008CD0 018058E2        	   819:  SUBS    R8, R8, #1
00:00008CD4 F9FFFF5A        	   820:  BPL     0x00008CC0
00:00008CD8 F883BDE8        	   821:  LDMFD   R13!, {R3-R9, PC}
00:00008CDC 00402DE9        	   822:  STMDB   R13!, {R14}
00:00008CE0 3280A0E3        	   823:  MOV     R8, #0x32
00:00008CE4 3C019BE5        	   824:  LDR     R0, [R11, #0x13C]
00:00008CE8 0010A0E3        	   825:  MOV     R1, #0
00:00008CEC 44219BE5        	   826:  LDR     R2, [R11, #0x144]
00:00008CF0 062442E2        	   827:  SUB     R2, R2, #0x6000000
00:00008CF4 F0FFFFEB        	   828:  BL      0x00008CBC
00:00008CF8 0080BDE8        	   829:  LDMIA   R13!, {PC}
00:00008CFC C0432DE9        	   830:  STMFD   R13!, {R6-R9, R14}
00:00008D00 9680A0E3        	   831:  MOV     R8, #0x96
00:00008D04 3C019BE5        	   832:  LDR     R0, [R11, #0x13C]
00:00008D08 0010A0E3        	   833:  MOV     R1, #0
00:00008D0C 44219BE5        	   834:  LDR     R2, [R11, #0x144]
00:00008D10 062442E2        	   835:  SUB     R2, R2, #0x6000000
00:00008D14 C9FFFFEB        	   836:  BL      0x00008C40
00:00008D18 018058E2        	   837:  SUBS    R8, R8, #1
00:00008D1C FCFFFF5A        	   838:  BPL     0x00008D14
00:00008D20 C083BDE8        	   839:  LDMFD   R13!, {R6-R9, PC}
00:00008D24 C0432DE9        	   840:  STMFD   R13!, {R6-R9, R14}
00:00008D28 3C019BE5        	   841:  LDR     R0, [R11, #0x13C]
00:00008D2C 0112E0E3        	   842:  MVN     R1, #0x10000000
00:00008D30 44219BE5        	   843:  LDR     R2, [R11, #0x144]
00:00008D34 062442E2        	   844:  SUB     R2, R2, #0x6000000
00:00008D38 A6FFFFEB        	   845:  BL      0x00008BD8
00:00008D3C C083BDE8        	   846:  LDMFD   R13!, {R6-R9, PC}
00:00008D40 24419BE5        	   847:  LDR     R4, [R11, #0x124]
00:00008D44 324E54E2        	   848:  SUBS    R4, R4, #0x320
00:00008D48 0EF0A041        	   849:  MOVMI   PC, R14
00:00008D4C 00402DE9        	   850:  STMDB   R13!, {R14}
00:00008D50 3A0300EB        	   851:  BL      0x00009A40
00:00008D54 2009A0E1        	   852:  MOV     R0, R0, LSR #18
00:00008D58 040050E1        	   853:  CMP     R0, R4
00:00008D5C 0080BD28        	   854:  LDMHSIA R13!, {PC}
00:00008D60 3C019BE5        	   855:  LDR     R0, [R11, #0x13C]
00:00008D64 0212E0E3        	   856:  MVN     R1, #0x20000000
00:00008D68 44219BE5        	   857:  LDR     R2, [R11, #0x144]
00:00008D6C 062442E2        	   858:  SUB     R2, R2, #0x6000000
00:00008D70 98FFFFEB        	   859:  BL      0x00008BD8
00:00008D74 0080BDE8        	   860:  LDMIA   R13!, {PC}
                            	   861: 
00:00008D78 98AA0000        	   862: .long 0x0000AA98
00:00008D7C 04AD0000        	   863: .long 0x0000AD04
00:00008D80 24AE0000        	   864: .long 0x0000AE24
00:00008D84 04AD0000        	   865: .long 0x0000AD04
00:00008D88 04AD0000        	   866: .long 0x0000AD04
00:00008D8C 10B10000        	   867: .long 0x0000B110
00:00008D90 24AE0000        	   868: .long 0x0000AE24
00:00008D94 8CB00000        	   869: .long 0x0000B08C
00:00008D98 9CB20000        	   870: .long 0x0000B29C
00:00008D9C 84B60000        	   871: .long 0x0000B684
00:00008DA0 84B60000        	   872: .long 0x0000B684
00:00008DA4 84B60000        	   873: .long 0x0000B684
00:00008DA8 84B60000        	   874: .long 0x0000B684
00:00008DAC 08B00000        	   875: .long 0x0000B008
00:00008DB0 84AF0000        	   876: .long 0x0000AF84
00:00008DB4 84AF0000        	   877: .long 0x0000AF84
00:00008DB8 84AF0000        	   878: .long 0x0000AF84
00:00008DBC BCB50000        	   879: .long 0x0000B5BC
00:00008DC0 08B00000        	   880: .long 0x0000B008
00:00008DC4 08B00000        	   881: .long 0x0000B008
00:00008DC8 BCB40000        	   882: .long 0x0000B4BC
00:00008DCC 08B00000        	   883: .long 0x0000B008
00:00008DD0 84AF0000        	   884: .long 0x0000AF84
00:00008DD4 84AF0000        	   885: .long 0x0000AF84
00:00008DD8 84AF0000        	   886: .long 0x0000AF84
                            	   887: 
00:00008DDC E05F2DE9        	   888:  STMFD   R13!, {R5-R12, R14}
00:00008DE0 3C019BE5        	   889:  LDR     R0, [R11, #0x13C]
00:00008DE4 FF8400E2        	   890:  AND     R8, R0, #0xFF000000
00:00008DE8 44119BE5        	   891:  LDR     R1, [R11, #0x144]
00:00008DEC FF9401E2        	   892:  AND     R9, R1, #0xFF000000
00:00008DF0 168548E2        	   893:  SUB     R8, R8, #0x5800000
00:00008DF4 48818BE5        	   894:  STR     R8, [R11, #0x148]
00:00008DF8 0B70A0E3        	   895:  MOV     R7, #0xB
00:00008DFC 0D60A0E3        	   896:  MOV     R6, #0xD
00:00008E00 48819BE5        	   897:  LDR     R8, [R11, #0x148]
00:00008E04 11EB8BE2        	   898:  ADD     R14, R11, #0x4400
00:00008E08 28EC8EE0        	   899:  ADD     R14, R14, R8, LSR #24
00:00008E0C 29E88EE0        	   900:  ADD     R14, R14, R9, LSR #16
00:00008E10 0000DEE5        	   901:  LDRB    R0, [R14]
00:00008E14 FF0050E3        	   902:  CMP     R0, #0xFF
00:00008E18 0600001A        	   903:  BNE     0x00008E38
00:00008E1C 018488E2        	   904:  ADD     R8, R8, #0x1000000
00:00008E20 016056E2        	   905:  SUBS    R6, R6, #1
00:00008E24 F6FFFF1A        	   906:  BNE     0x00008E04
00:00008E28 019449E2        	   907:  SUB     R9, R9, #0x1000000
00:00008E2C 017057E2        	   908:  SUBS    R7, R7, #1
00:00008E30 F1FFFF1A        	   909:  BNE     0x00008DFC
00:00008E34 E09FBDE8        	   910:  LDMFD   R13!, {R5-R12, PC}
00:00008E38 F400CBE5        	   911:  STRB    R0, [R11, #0xF4]
00:00008E3C 00018FE0        	   912:  ADD     R0, PC, R0, LSL #2
00:00008E40 CCE010E5        	   913:  LDR     R14, [R0, #-0xCC]
00:00008E44 10E18BE5        	   914:  STR     R14, [R11, #0x110]
00:00008E48 E9FCFFEB        	   915:  BL      0x000081F4
00:00008E4C 0010A0E1        	   916:  MOV     R1, R0
00:00008E50 550650E3        	   917:  CMP     R0, #0x5500000
00:00008E54 F0FFFF0A        	   918:  BEQ     0x00008E1C
00:00008E58 3CE19BE5        	   919:  LDR     R14, [R11, #0x13C]
00:00008E5C 0E0048E0        	   920:  SUB     R0, R8, R14
00:00008E60 44E19BE5        	   921:  LDR     R14, [R11, #0x144]
00:00008E64 0E2049E0        	   922:  SUB     R2, R9, R14
00:00008E68 052382E2        	   923:  ADD     R2, R2, #0x14000000
00:00008E6C 40E19BE5        	   924:  LDR     R14, [R11, #0x140]
00:00008E70 0E1041E0        	   925:  SUB     R1, R1, R14
00:00008E74 F4E0DBE5        	   926:  LDRB    R14, [R11, #0xF4]
00:00008E78 0C005EE3        	   927:  CMP     R14, #0xC
00:00008E7C 0200002A        	   928:  BHS     0x00008E8C
00:00008E80 30308BE2        	   929:  ADD     R3, R11, #0x30
00:00008E84 0E0000EB        	   930:  BL      0x00008EC4
00:00008E88 E3FFFFEA        	   931:  B       0x00008E1C
00:00008E8C 18E19BE5        	   932:  LDR     R14, [R11, #0x118]
00:00008E90 03001EE3        	   933:  TST     R14, #3
00:00008E94 F9FFFF1A        	   934:  BNE     0x00008E80
00:00008E98 FF022DE9        	   935:  STMFD   R13!, {R0-R7, R9}
00:00008E9C 40E19BE5        	   936:  LDR     R14, [R11, #0x140]
00:00008EA0 0E1081E0        	   937:  ADD     R1, R1, R14
00:00008EA4 0800A0E1        	   938:  MOV     R0, R8
00:00008EA8 0920A0E1        	   939:  MOV     R2, R9
00:00008EAC 031541E2        	   940:  SUB     R1, R1, #0xC00000
00:00008EB0 15FFFFEB        	   941:  BL      0x00008B0C
00:00008EB4 FF02BDE8        	   942:  LDMFD   R13!, {R0-R7, R9}
00:00008EB8 F0FFFFEA        	   943:  B       0x00008E80
                            	   944: 
00:00008EBC 8CAB0000        	   945: .long 0x0000AB8C
00:00008EC0 60A90000        	   946: .long 0x0000A960
                            	   947: 
00:00008EC4 C05F2DE9        	   948:  STMFD   R13!, {R6-R12, R14}
00:00008EC8 7CC39FE5        	   949:  LDR     R12, 0x0000924C
00:00008ECC 00408BE2        	   950:  ADD     R4, R11, #0
00:00008ED0 070084E8        	   951:  STMIA   R4, {R0-R2}
00:00008ED4 0040B0E1        	   952:  MOVS    R4, R0
00:00008ED8 0440E041        	   953:  MVNMI   R4, R4
00:00008EDC 0150B0E1        	   954:  MOVS    R5, R1
00:00008EE0 0550E041        	   955:  MVNMI   R5, R5
00:00008EE4 054084E1        	   956:  ORR     R4, R4, R5
00:00008EE8 024084E1        	   957:  ORR     R4, R4, R2
00:00008EEC 014094E3        	   958:  ORRS    R4, R4, #1
00:00008EF0 8440A051        	   959:  MOVPL   R4, R4, LSL #1
00:00008EF4 0050A0E3        	   960:  MOV     R5, #0
00:00008EF8 2051CBE5        	   961:  STRB    R5, [R11, #0x120]
00:00008EFC 8440B0E1        	   962:  MOVS    R4, R4, LSL #1
00:00008F00 01508552        	   963:  ADDPL   R5, R5, #1
00:00008F04 FCFFFF5A        	   964:  BPL     0x00008EFC
00:00008F08 1005A0E1        	   965:  MOV     R0, R0, LSL R5
00:00008F0C 1115A0E1        	   966:  MOV     R1, R1, LSL R5
00:00008F10 1225A0E1        	   967:  MOV     R2, R2, LSL R5
00:00008F14 84408BE2        	   968:  ADD     R4, R11, #0x84
00:00008F18 070084E8        	   969:  STMIA   R4, {R0-R2}
00:00008F1C 30408BE2        	   970:  ADD     R4, R11, #0x30
00:00008F20 040053E1        	   971:  CMP     R3, R4
00:00008F24 0700B318        	   972:  LDMNEIA R3!, {R0-R2}
00:00008F28 0700A418        	   973:  STMNEIA R4!, {R0-R2}
00:00008F2C 0700B318        	   974:  LDMNEIA R3!, {R0-R2}
00:00008F30 0700A418        	   975:  STMNEIA R4!, {R0-R2}
00:00008F34 0700B318        	   976:  LDMNEIA R3!, {R0-R2}
00:00008F38 0700A418        	   977:  STMNEIA R4!, {R0-R2}
00:00008F3C 10019BE5        	   978:  LDR     R0, [R11, #0x110]
00:00008F40 008090E5        	   979:  LDR     R8, [R0]
00:00008F44 109080E2        	   980:  ADD     R9, R0, #0x10
00:00008F48 06AC8BE2        	   981:  ADD     R10, R11, #0x600
00:00008F4C 0C10D0E5        	   982:  LDRB    R1, [R0, #0xC]
00:00008F50 1411CBE5        	   983:  STRB    R1, [R11, #0x114]
00:00008F54 1C00B9E8        	   984:  LDMIA   R9!, {R2-R4}
00:00008F58 54008BE2        	   985:  ADD     R0, R11, #0x54
00:00008F5C 64108BE2        	   986:  ADD     R1, R11, #0x64
00:00008F60 1C0080E8        	   987:  STMIA   R0, {R2-R4}
00:00008F64 BA0000EB        	   988:  BL      0x00009254
00:00008F68 00008BE2        	   989:  ADD     R0, R11, #0
00:00008F6C 6A0200EB        	   990:  BL      0x0000991C
00:00008F70 74008BE2        	   991:  ADD     R0, R11, #0x74
00:00008F74 F30100EB        	   992:  BL      0x00009748
00:00008F78 0300AAE8        	   993:  STMIA   R10!, {R0-R1}
00:00008F7C 74008BE2        	   994:  ADD     R0, R11, #0x74
00:00008F80 C9FCFFEB        	   995:  BL      0x000082AC
00:00008F84 78008BE5        	   996:  STR     R0, [R11, #0x78]
00:00008F88 74008BE2        	   997:  ADD     R0, R11, #0x74
00:00008F8C ED0100EB        	   998:  BL      0x00009748
00:00008F90 0300AAE8        	   999:  STMIA   R10!, {R0-R1}
00:00008F94 0CE01AE5        	  1000:  LDR     R14, [R10, #-0xC]
00:00008F98 01005EE1        	  1001:  CMP     R14, R1
00:00008F9C 00E0E023        	  1002:  MVNHS   R14, #0
00:00008FA0 20E1CB25        	  1003:  STRHSB  R14, [R11, #0x120]
00:00008FA4 018058E2        	  1004:  SUBS    R8, R8, #1
00:00008FA8 E9FFFF1A        	  1005:  BNE     0x00008F54
00:00008FAC 10119BE5        	  1006:  LDR     R1, [R11, #0x110]
00:00008FB0 080091E5        	  1007:  LDR     R0, [R1, #8]
00:00008FB4 009081E0        	  1008:  ADD     R9, R1, R0
00:00008FB8 048091E5        	  1009:  LDR     R8, [R1, #4]
00:00008FBC 0900A0E1        	  1010:  MOV     R0, R9
00:00008FC0 0C9089E2        	  1011:  ADD     R9, R9, #0xC
00:00008FC4 54108BE2        	  1012:  ADD     R1, R11, #0x54
00:00008FC8 A10000EB        	  1013:  BL      0x00009254
00:00008FCC 58109BE5        	  1014:  LDR     R1, [R11, #0x58]
00:00008FD0 14E1DBE5        	  1015:  LDRB    R14, [R11, #0x114]
00:00008FD4 01001EE3        	  1016:  TST     R14, #1
00:00008FD8 0030E003        	  1017:  MVNEQ   R3, #0
00:00008FDC 0010E003        	  1018:  MVNEQ   R1, #0
00:00008FE0 84208B12        	  1019:  ADDNE   R2, R11, #0x84
00:00008FE4 54008B12        	  1020:  ADDNE   R0, R11, #0x54
00:00008FE8 A700001B        	  1021:  BLNE    0x0000928C
00:00008FEC 001B2DE9        	  1022:  STMFD   R13!, {R8-R9, R11-R12}
00:00008FF0 000051E3        	  1023:  CMP     R1, #0
00:00008FF4 0F00005A        	  1024:  BPL     0x00009038
00:00008FF8 14E1DBE5        	  1025:  LDRB    R14, [R11, #0x114]
00:00008FFC 02001EE3        	  1026:  TST     R14, #2
00:00009000 0C00000A        	  1027:  BEQ     0x00009038
00:00009004 080A2DE9        	  1028:  STMFD   R13!, {R3, R9, R11}
00:00009008 E00099E8        	  1029:  LDMIA   R9, {R5-R7}
00:0000900C 0080A0E3        	  1030:  MOV     R8, #0
00:00009010 06AC8BE2        	  1031:  ADD     R10, R11, #0x600
00:00009014 08A08AE2        	  1032:  ADD     R10, R10, #8
00:00009018 05528AE0        	  1033:  ADD     R5, R10, R5, LSL #4
00:0000901C 030095E8        	  1034:  LDMIA   R5, {R0-R1}
00:00009020 06628AE0        	  1035:  ADD     R6, R10, R6, LSL #4
00:00009024 0C0096E8        	  1036:  LDMIA   R6, {R2-R3}
00:00009028 07728AE0        	  1037:  ADD     R7, R10, R7, LSL #4
00:0000902C 300097E8        	  1038:  LDMIA   R7, {R4-R5}
00:00009030 FC0200EB        	  1039:  BL      0x00009C28
00:00009034 080ABDE8        	  1040:  LDMFD   R13!, {R3, R9, R11}
00:00009038 000053E3        	  1041:  CMP     R3, #0
00:0000903C 2C00005A        	  1042:  BPL     0x000090F4
00:00009040 F00099E8        	  1043:  LDMIA   R9, {R4-R7}
00:00009044 06AC8BE2        	  1044:  ADD     R10, R11, #0x600
00:00009048 58109BE5        	  1045:  LDR     R1, [R11, #0x58]
00:0000904C 54009BE5        	  1046:  LDR     R0, [R11, #0x54]
00:00009050 021161E2        	  1047:  RSB     R1, R1, #0x80000000
00:00009054 211EA0E1        	  1048:  MOV     R1, R1, LSR #28
00:00009058 000050E3        	  1049:  CMP     R0, #0
00:0000905C 01108142        	  1050:  ADDMI   R1, R1, #1
00:00009060 051051E2        	  1051:  SUBS    R1, R1, #5
00:00009064 0010A043        	  1052:  MOVMI   R1, #0
00:00009068 0F80A0E3        	  1053:  MOV     R8, #0xF
00:0000906C 270408E0        	  1054:  AND     R0, R8, R7, LSR #8
00:00009070 272208E0        	  1055:  AND     R2, R8, R7, LSR #4
00:00009074 087007E0        	  1056:  AND     R7, R7, R8
00:00009078 010080E0        	  1057:  ADD     R0, R0, R1
00:0000907C 100050E3        	  1058:  CMP     R0, #0x10
00:00009080 0F00A023        	  1059:  MOVHS   R0, #0xF
00:00009084 012082E0        	  1060:  ADD     R2, R2, R1
00:00009088 100052E3        	  1061:  CMP     R2, #0x10
00:0000908C 0F20A023        	  1062:  MOVHS   R2, #0xF
00:00009090 017087E0        	  1063:  ADD     R7, R7, R1
00:00009094 100057E3        	  1064:  CMP     R7, #0x10
00:00009098 0F70A023        	  1065:  MOVHS   R7, #0xF
00:0000909C 078082E1        	  1066:  ORR     R8, R2, R7
00:000090A0 038008E2        	  1067:  AND     R8, R8, #3
00:000090A4 008088E1        	  1068:  ORR     R8, R8, R0
00:000090A8 078008E2        	  1069:  AND     R8, R8, #7
00:000090AC 080010E3        	  1070:  TST     R0, #8
00:000090B0 10808813        	  1071:  ORRNE   R8, R8, #0x10
00:000090B4 0C2002E2        	  1072:  AND     R2, R2, #0xC
00:000090B8 828188E1        	  1073:  ORR     R8, R8, R2, LSL #3
00:000090BC 040017E3        	  1074:  TST     R7, #4
00:000090C0 08808813        	  1075:  ORRNE   R8, R8, #8
00:000090C4 080017E3        	  1076:  TST     R7, #8
00:000090C8 80808813        	  1077:  ORRNE   R8, R8, #0x80
00:000090CC 088488E1        	  1078:  ORR     R8, R8, R8, LSL #8
00:000090D0 088888E1        	  1079:  ORR     R8, R8, R8, LSL #16
00:000090D4 088C88E1        	  1080:  ORR     R8, R8, R8, LSL #24
00:000090D8 04428AE0        	  1081:  ADD     R4, R10, R4, LSL #4
00:000090DC 030094E8        	  1082:  LDMIA   R4, {R0-R1}
00:000090E0 05528AE0        	  1083:  ADD     R5, R10, R5, LSL #4
00:000090E4 0C0095E8        	  1084:  LDMIA   R5, {R2-R3}
00:000090E8 06628AE0        	  1085:  ADD     R6, R10, R6, LSL #4
00:000090EC 300096E8        	  1086:  LDMIA   R6, {R4-R5}
00:000090F0 D80200EB        	  1087:  BL      0x00009C58
00:000090F4 001BBDE8        	  1088:  LDMFD   R13!, {R8-R9, R11-R12}
00:000090F8 109089E2        	  1089:  ADD     R9, R9, #0x10
00:000090FC 018058E2        	  1090:  SUBS    R8, R8, #1
00:00009100 ADFFFF1A        	  1091:  BNE     0x00008FBC
00:00009104 C09FBDE8        	  1092:  LDMFD   R13!, {R6-R12, PC}
00:00009108 24019BE5        	  1093:  LDR     R0, [R11, #0x124]
00:0000910C 021C8BE2        	  1094:  ADD     R1, R11, #0x200
00:00009110 1320A0E3        	  1095:  MOV     R2, #0x13
00:00009114 010B50E3        	  1096:  CMP     R0, #0x400
00:00009118 0548A023        	  1097:  MOVHS   R4, #0x50000
00:0000911C 2C418B25        	  1098:  STRHS   R4, [R11, #0x12C]
00:00009120 5D0E50E3        	  1099:  CMP     R0, #0x5D0
00:00009124 0748A023        	  1100:  MOVHS   R4, #0x70000
00:00009128 2C418B25        	  1101:  STRHS   R4, [R11, #0x12C]
00:0000912C 280000EF        	  1102:  SWI     0x28
00:00009130 1E00A0E3        	  1103:  MOV     R0, #0x1E
00:00009134 000000EF        	  1104:  SWI     0x0
00:00009138 0A00A0E3        	  1105:  MOV     R0, #0xA
00:0000913C 000000EF        	  1106:  SWI     0x0
00:00009140 0100D1E4        	  1107:  LDRB    R0, [R1], #1
00:00009144 000000EF        	  1108:  SWI     0x0
00:00009148 012052E2        	  1109:  SUBS    R2, R2, #1
00:0000914C FBFFFF1A        	  1110:  BNE     0x00009140
00:00009150 2000A0E3        	  1111:  MOV     R0, #0x20
00:00009154 000000EF        	  1112:  SWI     0x0
00:00009158 000000EF        	  1113:  SWI     0x0
00:0000915C 0EF0A0E1        	  1114:  MOV     PC, R14
00:00009160 06002DE9        	  1115:  STMFD   R13!, {R1-R2}
00:00009164 021C8BE2        	  1116:  ADD     R1, R11, #0x200
00:00009168 1320A0E3        	  1117:  MOV     R2, #0x13
00:0000916C 280000EF        	  1118:  SWI     0x28
00:00009170 1F00A0E3        	  1119:  MOV     R0, #0x1F
00:00009174 000000EF        	  1120:  SWI     0x0
00:00009178 1800BDE8        	  1121:  LDMFD   R13!, {R3-R4}
00:0000917C 0300A0E1        	  1122:  MOV     R0, R3
00:00009180 000000EF        	  1123:  SWI     0x0
00:00009184 0400A0E1        	  1124:  MOV     R0, R4
00:00009188 000000EF        	  1125:  SWI     0x0
00:0000918C 06002DE9        	  1126:  STMFD   R13!, {R1-R2}
00:00009190 7000A0E3        	  1127:  MOV     R0, #0x70
00:00009194 0110A0E3        	  1128:  MOV     R1, #1
00:00009198 060000EF        	  1129:  SWI     0x6
00:0000919C 06009DE8        	  1130:  LDMIA   R13, {R1-R2}
00:000091A0 0100D1E4        	  1131:  LDRB    R0, [R1], #1
00:000091A4 000000EF        	  1132:  SWI     0x0
00:000091A8 012052E2        	  1133:  SUBS    R2, R2, #1
00:000091AC FBFFFF1A        	  1134:  BNE     0x000091A0
00:000091B0 7000A0E3        	  1135:  MOV     R0, #0x70
00:000091B4 0210A0E3        	  1136:  MOV     R1, #2
00:000091B8 060000EF        	  1137:  SWI     0x6
00:000091BC 1F00A0E3        	  1138:  MOV     R0, #0x1F
00:000091C0 000000EF        	  1139:  SWI     0x0
00:000091C4 0300A0E1        	  1140:  MOV     R0, R3
00:000091C8 000000EF        	  1141:  SWI     0x0
00:000091CC 0400A0E1        	  1142:  MOV     R0, R4
00:000091D0 000000EF        	  1143:  SWI     0x0
00:000091D4 0600BDE8        	  1144:  LDMFD   R13!, {R1-R2}
00:000091D8 0100D1E4        	  1145:  LDRB    R0, [R1], #1
00:000091DC 000000EF        	  1146:  SWI     0x0
00:000091E0 012052E2        	  1147:  SUBS    R2, R2, #1
00:000091E4 FBFFFF1A        	  1148:  BNE     0x000091D8
00:000091E8 0EF0A0E1        	  1149:  MOV     PC, R14
                            	  1150: 
00:000091EC 37373737        	  1151: .long 0x37373737
00:000091F0 10B80000        	  1152: .long 0x0000B810
00:000091F4 10C80000        	  1153: .long 0x0000C810
00:000091F8 10CA0000        	  1154: .long 0x0000CA10
                            	  1155: 
00:000091FC 005C2DE9        	  1156:  STMFD   R13!, {R10-R12, R14}
00:00009200 28119BE5        	  1157:  LDR     R1, [R11, #0x128]
00:00009204 5C21DBE5        	  1158:  LDRB    R2, [R11, #0x15C]
00:00009208 021051E0        	  1159:  SUBS    R1, R1, R2
00:0000920C 0010A043        	  1160:  MOVMI   R1, #0
00:00009210 28118BE5        	  1161:  STR     R1, [R11, #0x128]
00:00009214 50789FE5        	  1162:  LDR     R7, 0x00009A6C
00:00009218 05BD87E2        	  1163:  ADD     R11, R7, #0x140
00:0000921C 38801FE5        	  1164:  LDR     R8, 0x000091EC
00:00009220 21A2A0E1        	  1165:  MOV     R10, R1, LSR #4
00:00009224 A70400EB        	  1166:  BL      0x0000A4C8
00:00009228 0ABD87E2        	  1167:  ADD     R11, R7, #0x280
00:0000922C 48801FE5        	  1168:  LDR     R8, 0x000091EC
00:00009230 21A2A0E1        	  1169:  MOV     R10, R1, LSR #4
00:00009234 A30400EB        	  1170:  BL      0x0000A4C8
00:00009238 0FBD87E2        	  1171:  ADD     R11, R7, #0x3C0
00:0000923C 58801FE5        	  1172:  LDR     R8, 0x000091EC
00:00009240 21A2A0E1        	  1173:  MOV     R10, R1, LSR #4
00:00009244 9F0400EB        	  1174:  BL      0x0000A4C8
00:00009248 009CBDE8        	  1175:  LDMFD   R13!, {R10-R12, PC}
                            	  1176: 
00:0000924C 5C800000        	  1177: .long 0x0000805C
00:00009250 2C800000        	  1178: .long 0x0000802C
                            	  1179: 
00:00009254 1421DBE5        	  1180:  LDRB    R2, [R11, #0x114]
00:00009258 010012E3        	  1181:  TST     R2, #1
00:0000925C 1C009008        	  1182:  LDMEQIA R0, {R2-R4}
00:00009260 1C008108        	  1183:  STMEQIA R1, {R2-R4}
00:00009264 0EF0A001        	  1184:  MOVEQ   PC, R14
00:00009268 C0402DE9        	  1185:  STMFD   R13!, {R6-R7, R14}
00:0000926C 30208BE2        	  1186:  ADD     R2, R11, #0x30
00:00009270 050000EB        	  1187:  BL      0x0000928C
00:00009274 003081E5        	  1188:  STR     R3, [R1]
00:00009278 030000EB        	  1189:  BL      0x0000928C
00:0000927C 043081E5        	  1190:  STR     R3, [R1, #4]
00:00009280 010000EB        	  1191:  BL      0x0000928C
00:00009284 083081E5        	  1192:  STR     R3, [R1, #8]
00:00009288 C080BDE8        	  1193:  LDMFD   R13!, {R6-R7, PC}
00:0000928C 044092E4        	  1194:  LDR     R4, [R2], #4
00:00009290 005090E5        	  1195:  LDR     R5, [R0]
00:00009294 057024E0        	  1196:  EOR     R7, R4, R5
00:00009298 000034E3        	  1197:  TEQ     R4, #0
00:0000929C 00406442        	  1198:  RSBMI   R4, R4, #0
00:000092A0 0441B0E1        	  1199:  MOVS    R4, R4, LSL #2
00:000092A4 000035E3        	  1200:  TEQ     R5, #0
00:000092A8 00506542        	  1201:  RSBMI   R5, R5, #0
00:000092AC 8550A0E1        	  1202:  MOV     R5, R5, LSL #1
00:000092B0 FE4404E2        	  1203:  AND     R4, R4, #0xFE000000
00:000092B4 014484E3        	  1204:  ORR     R4, R4, #0x1000000
00:000092B8 0030A0E3        	  1205:  MOV     R3, #0
00:000092BC A550A0E1        	  1206:  MOV     R5, R5, LSR #1
00:000092C0 05308320        	  1207:  ADDHS   R3, R3, R5
00:000092C4 8440B0E1        	  1208:  MOVS    R4, R4, LSL #1
00:000092C8 FBFFFF1A        	  1209:  BNE     0x000092BC
00:000092CC A330A0E1        	  1210:  MOV     R3, R3, LSR #1
00:000092D0 000037E3        	  1211:  TEQ     R7, #0
00:000092D4 00306342        	  1212:  RSBMI   R3, R3, #0
00:000092D8 044092E4        	  1213:  LDR     R4, [R2], #4
00:000092DC 045090E5        	  1214:  LDR     R5, [R0, #4]
00:000092E0 057024E0        	  1215:  EOR     R7, R4, R5
00:000092E4 000034E3        	  1216:  TEQ     R4, #0
00:000092E8 00406442        	  1217:  RSBMI   R4, R4, #0
00:000092EC 0441B0E1        	  1218:  MOVS    R4, R4, LSL #2
00:000092F0 000035E3        	  1219:  TEQ     R5, #0
00:000092F4 00506542        	  1220:  RSBMI   R5, R5, #0
00:000092F8 8550A0E1        	  1221:  MOV     R5, R5, LSL #1
00:000092FC FE4404E2        	  1222:  AND     R4, R4, #0xFE000000
00:00009300 014484E3        	  1223:  ORR     R4, R4, #0x1000000
00:00009304 0060A0E3        	  1224:  MOV     R6, #0
00:00009308 A550A0E1        	  1225:  MOV     R5, R5, LSR #1
00:0000930C 05608620        	  1226:  ADDHS   R6, R6, R5
00:00009310 8440B0E1        	  1227:  MOVS    R4, R4, LSL #1
00:00009314 FBFFFF1A        	  1228:  BNE     0x00009308
00:00009318 A660A0E1        	  1229:  MOV     R6, R6, LSR #1
00:0000931C 000037E3        	  1230:  TEQ     R7, #0
00:00009320 00606642        	  1231:  RSBMI   R6, R6, #0
00:00009324 063083E0        	  1232:  ADD     R3, R3, R6
00:00009328 044092E4        	  1233:  LDR     R4, [R2], #4
00:0000932C 085090E5        	  1234:  LDR     R5, [R0, #8]
00:00009330 057024E0        	  1235:  EOR     R7, R4, R5
00:00009334 000034E3        	  1236:  TEQ     R4, #0
00:00009338 00406442        	  1237:  RSBMI   R4, R4, #0
00:0000933C 0441B0E1        	  1238:  MOVS    R4, R4, LSL #2
00:00009340 000035E3        	  1239:  TEQ     R5, #0
00:00009344 00506542        	  1240:  RSBMI   R5, R5, #0
00:00009348 8550A0E1        	  1241:  MOV     R5, R5, LSL #1
00:0000934C FE4404E2        	  1242:  AND     R4, R4, #0xFE000000
00:00009350 014484E3        	  1243:  ORR     R4, R4, #0x1000000
00:00009354 0060A0E3        	  1244:  MOV     R6, #0
00:00009358 A550A0E1        	  1245:  MOV     R5, R5, LSR #1
00:0000935C 05608620        	  1246:  ADDHS   R6, R6, R5
00:00009360 8440B0E1        	  1247:  MOVS    R4, R4, LSL #1
00:00009364 FBFFFF1A        	  1248:  BNE     0x00009358
00:00009368 A660A0E1        	  1249:  MOV     R6, R6, LSR #1
00:0000936C 000037E3        	  1250:  TEQ     R7, #0
00:00009370 00606642        	  1251:  RSBMI   R6, R6, #0
00:00009374 063093E0        	  1252:  ADDS    R3, R3, R6
00:00009378 0EF0A0E1        	  1253:  MOV     PC, R14
00:0000937C 30208BE2        	  1254:  ADD     R2, R11, #0x30
00:00009380 040092E5        	  1255:  LDR     R0, [R2, #4]
00:00009384 0C1092E5        	  1256:  LDR     R1, [R2, #0xC]
00:00009388 0C0082E5        	  1257:  STR     R0, [R2, #0xC]
00:0000938C 041082E5        	  1258:  STR     R1, [R2, #4]
00:00009390 080092E5        	  1259:  LDR     R0, [R2, #8]
00:00009394 181092E5        	  1260:  LDR     R1, [R2, #0x18]
00:00009398 180082E5        	  1261:  STR     R0, [R2, #0x18]
00:0000939C 081082E5        	  1262:  STR     R1, [R2, #8]
00:000093A0 140092E5        	  1263:  LDR     R0, [R2, #0x14]
00:000093A4 1C1092E5        	  1264:  LDR     R1, [R2, #0x1C]
00:000093A8 1C0082E5        	  1265:  STR     R0, [R2, #0x1C]
00:000093AC 141082E5        	  1266:  STR     R1, [R2, #0x14]
00:000093B0 0EF0A0E1        	  1267:  MOV     PC, R14
00:000093B4 60402DE9        	  1268:  STMFD   R13!, {R5-R6, R14}
00:000093B8 1C0090E8        	  1269:  LDMIA   R0, {R2-R4}
00:000093BC 604091E8        	  1270:  LDMIA   R1, {R5-R6, R14}
00:000093C0 452282E0        	  1271:  ADD     R2, R2, R5, ASR #4
00:000093C4 425245E0        	  1272:  SUB     R5, R5, R2, ASR #4
00:000093C8 463283E0        	  1273:  ADD     R3, R3, R6, ASR #4
00:000093CC 436246E0        	  1274:  SUB     R6, R6, R3, ASR #4
00:000093D0 4E4284E0        	  1275:  ADD     R4, R4, R14, ASR #4
00:000093D4 44E24EE0        	  1276:  SUB     R14, R14, R4, ASR #4
00:000093D8 1C0080E8        	  1277:  STMIA   R0, {R2-R4}
00:000093DC 604081E8        	  1278:  STMIA   R1, {R5-R6, R14}
00:000093E0 6080BDE8        	  1279:  LDMFD   R13!, {R5-R6, PC}
00:000093E4 03402DE9        	  1280:  STMFD   R13!, {R0-R1, R14}
00:000093E8 010180E2        	  1281:  ADD     R0, R0, #0x40000000
00:000093EC 04E21FE5        	  1282:  LDR     R14, 0x000091F0
00:000093F0 0306C0E3        	  1283:  BIC     R0, R0, #0x300000
00:000093F4 202A9EE7        	  1284:  LDR     R2, [R14, R0, LSR #20]
00:000093F8 011181E2        	  1285:  ADD     R1, R1, #0x40000000
00:000093FC 14E21FE5        	  1286:  LDR     R14, 0x000091F0
00:00009400 0316C1E3        	  1287:  BIC     R1, R1, #0x300000
00:00009404 213A9EE7        	  1288:  LDR     R3, [R14, R1, LSR #20]
00:00009408 3000BDE8        	  1289:  LDMFD   R13!, {R4-R5}
00:0000940C 24E21FE5        	  1290:  LDR     R14, 0x000091F0
00:00009410 0346C4E3        	  1291:  BIC     R4, R4, #0x300000
00:00009414 240A9EE7        	  1292:  LDR     R0, [R14, R4, LSR #20]
00:00009418 30E21FE5        	  1293:  LDR     R14, 0x000091F0
00:0000941C 0356C5E3        	  1294:  BIC     R5, R5, #0x300000
00:00009420 251A9EE7        	  1295:  LDR     R1, [R14, R5, LSR #20]
00:00009424 0F002DE9        	  1296:  STMFD   R13!, {R0-R3}
00:00009428 03E022E0        	  1297:  EOR     R14, R2, R3
00:0000942C 000032E3        	  1298:  TEQ     R2, #0
00:00009430 00206242        	  1299:  RSBMI   R2, R2, #0
00:00009434 0221B0E1        	  1300:  MOVS    R2, R2, LSL #2
00:00009438 000033E3        	  1301:  TEQ     R3, #0
00:0000943C 00306342        	  1302:  RSBMI   R3, R3, #0
00:00009440 8330A0E1        	  1303:  MOV     R3, R3, LSL #1
00:00009444 FE2402E2        	  1304:  AND     R2, R2, #0xFE000000
00:00009448 012482E3        	  1305:  ORR     R2, R2, #0x1000000
00:0000944C 0040A0E3        	  1306:  MOV     R4, #0
00:00009450 A330A0E1        	  1307:  MOV     R3, R3, LSR #1
00:00009454 03408420        	  1308:  ADDHS   R4, R4, R3
00:00009458 8220B0E1        	  1309:  MOVS    R2, R2, LSL #1
00:0000945C FBFFFF1A        	  1310:  BNE     0x00009450
00:00009460 A440A0E1        	  1311:  MOV     R4, R4, LSR #1
00:00009464 00003EE3        	  1312:  TEQ     R14, #0
00:00009468 00406442        	  1313:  RSBMI   R4, R4, #0
00:0000946C 30408BE5        	  1314:  STR     R4, [R11, #0x30]
00:00009470 01E020E0        	  1315:  EOR     R14, R0, R1
00:00009474 000030E3        	  1316:  TEQ     R0, #0
00:00009478 00006042        	  1317:  RSBMI   R0, R0, #0
00:0000947C 0001B0E1        	  1318:  MOVS    R0, R0, LSL #2
00:00009480 000031E3        	  1319:  TEQ     R1, #0
00:00009484 00106142        	  1320:  RSBMI   R1, R1, #0
00:00009488 8110A0E1        	  1321:  MOV     R1, R1, LSL #1
00:0000948C FE0400E2        	  1322:  AND     R0, R0, #0xFE000000
00:00009490 010480E3        	  1323:  ORR     R0, R0, #0x1000000
00:00009494 0040A0E3        	  1324:  MOV     R4, #0
00:00009498 A110A0E1        	  1325:  MOV     R1, R1, LSR #1
00:0000949C 01408420        	  1326:  ADDHS   R4, R4, R1
00:000094A0 8000B0E1        	  1327:  MOVS    R0, R0, LSL #1
00:000094A4 FBFFFF1A        	  1328:  BNE     0x00009498
00:000094A8 A440A0E1        	  1329:  MOV     R4, R4, LSR #1
00:000094AC 00003EE3        	  1330:  TEQ     R14, #0
00:000094B0 00406442        	  1331:  RSBMI   R4, R4, #0
00:000094B4 4C408BE5        	  1332:  STR     R4, [R11, #0x4C]
00:000094B8 0F009DE8        	  1333:  LDMIA   R13, {R0-R3}
00:000094BC 02E021E0        	  1334:  EOR     R14, R1, R2
00:000094C0 000031E3        	  1335:  TEQ     R1, #0
00:000094C4 00106142        	  1336:  RSBMI   R1, R1, #0
00:000094C8 0111B0E1        	  1337:  MOVS    R1, R1, LSL #2
00:000094CC 000032E3        	  1338:  TEQ     R2, #0
00:000094D0 00206242        	  1339:  RSBMI   R2, R2, #0
00:000094D4 8220A0E1        	  1340:  MOV     R2, R2, LSL #1
00:000094D8 FE1401E2        	  1341:  AND     R1, R1, #0xFE000000
00:000094DC 011481E3        	  1342:  ORR     R1, R1, #0x1000000
00:000094E0 0040A0E3        	  1343:  MOV     R4, #0
00:000094E4 A220A0E1        	  1344:  MOV     R2, R2, LSR #1
00:000094E8 02408420        	  1345:  ADDHS   R4, R4, R2
00:000094EC 8110B0E1        	  1346:  MOVS    R1, R1, LSL #1
00:000094F0 FBFFFF1A        	  1347:  BNE     0x000094E4
00:000094F4 A440A0E1        	  1348:  MOV     R4, R4, LSR #1
00:000094F8 00003EE3        	  1349:  TEQ     R14, #0
00:000094FC 00406442        	  1350:  RSBMI   R4, R4, #0
00:00009500 004064E2        	  1351:  RSB     R4, R4, #0
00:00009504 48408BE5        	  1352:  STR     R4, [R11, #0x48]
00:00009508 03E020E0        	  1353:  EOR     R14, R0, R3
00:0000950C 000030E3        	  1354:  TEQ     R0, #0
00:00009510 00006042        	  1355:  RSBMI   R0, R0, #0
00:00009514 0001B0E1        	  1356:  MOVS    R0, R0, LSL #2
00:00009518 000033E3        	  1357:  TEQ     R3, #0
00:0000951C 00306342        	  1358:  RSBMI   R3, R3, #0
00:00009520 8330A0E1        	  1359:  MOV     R3, R3, LSL #1
00:00009524 FE0400E2        	  1360:  AND     R0, R0, #0xFE000000
00:00009528 010480E3        	  1361:  ORR     R0, R0, #0x1000000
00:0000952C 0040A0E3        	  1362:  MOV     R4, #0
00:00009530 A330A0E1        	  1363:  MOV     R3, R3, LSR #1
00:00009534 03408420        	  1364:  ADDHS   R4, R4, R3
00:00009538 8000B0E1        	  1365:  MOVS    R0, R0, LSL #1
00:0000953C FBFFFF1A        	  1366:  BNE     0x00009530
00:00009540 A440A0E1        	  1367:  MOV     R4, R4, LSR #1
00:00009544 00003EE3        	  1368:  TEQ     R14, #0
00:00009548 00406442        	  1369:  RSBMI   R4, R4, #0
00:0000954C 004064E2        	  1370:  RSB     R4, R4, #0
00:00009550 34408BE5        	  1371:  STR     R4, [R11, #0x34]
00:00009554 0F40BDE8        	  1372:  LDMFD   R13!, {R0-R3, R14}
00:00009558 3C008BE5        	  1373:  STR     R0, [R11, #0x3C]
00:0000955C 38108BE5        	  1374:  STR     R1, [R11, #0x38]
00:00009560 40208BE5        	  1375:  STR     R2, [R11, #0x40]
00:00009564 50308BE5        	  1376:  STR     R3, [R11, #0x50]
00:00009568 0000A0E3        	  1377:  MOV     R0, #0
00:0000956C 44008BE5        	  1378:  STR     R0, [R11, #0x44]
00:00009570 0EF0A0E1        	  1379:  MOV     PC, R14
00:00009574 00402DE9        	  1380:  STMDB   R13!, {R14}
00:00009578 0030A0E3        	  1381:  MOV     R3, #0
00:0000957C 000050E3        	  1382:  CMP     R0, #0
00:00009580 03302342        	  1383:  EORMI   R3, R3, #3
00:00009584 00006042        	  1384:  RSBMI   R0, R0, #0
00:00009588 000051E3        	  1385:  CMP     R1, #0
00:0000958C 07302342        	  1386:  EORMI   R3, R3, #7
00:00009590 00106142        	  1387:  RSBMI   R1, R1, #0
00:00009594 03002DE9        	  1388:  STMFD   R13!, {R0-R1}
00:00009598 010050E1        	  1389:  CMP     R0, R1
00:0000959C 01302332        	  1390:  EORLO   R3, R3, #1
00:000095A0 0900002A        	  1391:  BHS     0x000095CC
00:000095A4 0020A0E3        	  1392:  MOV     R2, #0
00:000095A8 80E0A0E3        	  1393:  MOV     R14, #0x80
00:000095AC 8000B0E1        	  1394:  MOVS    R0, R0, LSL #1
00:000095B0 01005031        	  1395:  CMPLO   R0, R1
00:000095B4 01004020        	  1396:  SUBHS   R0, R0, R1
00:000095B8 0E208221        	  1397:  ORRHS   R2, R2, R14
00:000095BC AEE0B0E1        	  1398:  MOVS    R14, R14, LSR #1
00:000095C0 F9FFFF3A        	  1399:  BLO     0x000095AC
00:000095C4 022CB0E1        	  1400:  MOVS    R2, R2, LSL #24
00:000095C8 080000EA        	  1401:  B       0x000095F0
00:000095CC 0020A0E3        	  1402:  MOV     R2, #0
00:000095D0 80E0A0E3        	  1403:  MOV     R14, #0x80
00:000095D4 8110B0E1        	  1404:  MOVS    R1, R1, LSL #1
00:000095D8 00005131        	  1405:  CMPLO   R1, R0
00:000095DC 00104120        	  1406:  SUBHS   R1, R1, R0
00:000095E0 0E208221        	  1407:  ORRHS   R2, R2, R14
00:000095E4 AEE0B0E1        	  1408:  MOVS    R14, R14, LSR #1
00:000095E8 F9FFFF3A        	  1409:  BLO     0x000095D4
00:000095EC 022CB0E1        	  1410:  MOVS    R2, R2, LSL #24
00:000095F0 04E41FE5        	  1411:  LDR     R14, 0x000091F4
00:000095F4 0625C2E3        	  1412:  BIC     R2, R2, #0x1800000
00:000095F8 A21B9EE7        	  1413:  LDR     R1, [R14, R2, LSR #23]
00:000095FC 010013E3        	  1414:  TST     R3, #1
00:00009600 831E8100        	  1415:  ADDEQ   R1, R1, R3, LSL #29
00:00009604 01308312        	  1416:  ADDNE   R3, R3, #1
00:00009608 831E6110        	  1417:  RSBNE   R1, R1, R3, LSL #29
00:0000960C 0500BDE8        	  1418:  LDMFD   R13!, {R0, R2}
00:00009610 0030A0E1        	  1419:  MOV     R3, R0
00:00009614 8330B0E1        	  1420:  MOVS    R3, R3, LSL #1
00:00009618 FE3403E2        	  1421:  AND     R3, R3, #0xFE000000
00:0000961C 013483E3        	  1422:  ORR     R3, R3, #0x1000000
00:00009620 0040A0E3        	  1423:  MOV     R4, #0
00:00009624 A000A0E1        	  1424:  MOV     R0, R0, LSR #1
00:00009628 00408420        	  1425:  ADDHS   R4, R4, R0
00:0000962C 8330B0E1        	  1426:  MOVS    R3, R3, LSL #1
00:00009630 FBFFFF1A        	  1427:  BNE     0x00009624
00:00009634 0230A0E1        	  1428:  MOV     R3, R2
00:00009638 8330B0E1        	  1429:  MOVS    R3, R3, LSL #1
00:0000963C FE3403E2        	  1430:  AND     R3, R3, #0xFE000000
00:00009640 013483E3        	  1431:  ORR     R3, R3, #0x1000000
00:00009644 00E0A0E3        	  1432:  MOV     R14, #0
00:00009648 A220A0E1        	  1433:  MOV     R2, R2, LSR #1
00:0000964C 02E08E20        	  1434:  ADDHS   R14, R14, R2
00:00009650 8330B0E1        	  1435:  MOVS    R3, R3, LSL #1
00:00009654 FBFFFF1A        	  1436:  BNE     0x00009648
00:00009658 04208EE0        	  1437:  ADD     R2, R14, R4
00:0000965C 6CE41FE5        	  1438:  LDR     R14, 0x000091F8
00:00009660 0326C2E3        	  1439:  BIC     R2, R2, #0x300000
00:00009664 220A9EE7        	  1440:  LDR     R0, [R14, R2, LSR #20]
00:00009668 0080BDE8        	  1441:  LDMIA   R13!, {PC}
00:0000966C 070090E8        	  1442:  LDMIA   R0, {R0-R2}
00:00009670 020172E3        	  1443:  CMN     R2, #0x80000000
00:00009674 0EF0A021        	  1444:  MOVHS   PC, R14
00:00009678 0030B0E1        	  1445:  MOVS    R3, R0
00:0000967C 00306342        	  1446:  RSBMI   R3, R3, #0
00:00009680 0350E041        	  1447:  MVNMI   R5, R3
00:00009684 0350A051        	  1448:  MOVPL   R5, R3
00:00009688 0140B0E1        	  1449:  MOVS    R4, R1
00:0000968C 00406442        	  1450:  RSBMI   R4, R4, #0
00:00009690 0460E041        	  1451:  MVNMI   R6, R4
00:00009694 0460A051        	  1452:  MOVPL   R6, R4
00:00009698 065085E1        	  1453:  ORR     R5, R5, R6
00:0000969C 025085E1        	  1454:  ORR     R5, R5, R2
00:000096A0 015085E3        	  1455:  ORR     R5, R5, #1
00:000096A4 0060A0E3        	  1456:  MOV     R6, #0
00:000096A8 8550B0E1        	  1457:  MOVS    R5, R5, LSL #1
00:000096AC 01608652        	  1458:  ADDPL   R6, R6, #1
00:000096B0 FCFFFF5A        	  1459:  BPL     0x000096A8
00:000096B4 1226A0E1        	  1460:  MOV     R2, R2, LSL R6
00:000096B8 1336A0E1        	  1461:  MOV     R3, R3, LSL R6
00:000096BC 1446A0E1        	  1462:  MOV     R4, R4, LSL R6
00:000096C0 020053E1        	  1463:  CMP     R3, R2
00:000096C4 02005431        	  1464:  CMPLO   R4, R2
00:000096C8 0EF0A021        	  1465:  MOVHS   PC, R14
00:000096CC 80402DE9        	  1466:  STMFD   R13!, {R7, R14}
00:000096D0 0270A0E1        	  1467:  MOV     R7, R2
00:000096D4 0060A0E3        	  1468:  MOV     R6, #0
00:000096D8 02ECA0E3        	  1469:  MOV     R14, #0x200
00:000096DC 8440B0E1        	  1470:  MOVS    R4, R4, LSL #1
00:000096E0 07005431        	  1471:  CMPLO   R4, R7
00:000096E4 07404420        	  1472:  SUBHS   R4, R4, R7
00:000096E8 0E608621        	  1473:  ORRHS   R6, R6, R14
00:000096EC AEE0B0E1        	  1474:  MOVS    R14, R14, LSR #1
00:000096F0 F9FFFF3A        	  1475:  BLO     0x000096DC
00:000096F4 066BB0E1        	  1476:  MOVS    R6, R6, LSL #22
00:000096F8 0050A0E3        	  1477:  MOV     R5, #0
00:000096FC 02ECA0E3        	  1478:  MOV     R14, #0x200
00:00009700 8330B0E1        	  1479:  MOVS    R3, R3, LSL #1
00:00009704 02005331        	  1480:  CMPLO   R3, R2
00:00009708 02304320        	  1481:  SUBHS   R3, R3, R2
00:0000970C 0E508521        	  1482:  ORRHS   R5, R5, R14
00:00009710 AEE0B0E1        	  1483:  MOVS    R14, R14, LSR #1
00:00009714 F9FFFF3A        	  1484:  BLO     0x00009700
00:00009718 055BB0E1        	  1485:  MOVS    R5, R5, LSL #22
00:0000971C 255CA0E1        	  1486:  MOV     R5, R5, LSR #24
00:00009720 266CA0E1        	  1487:  MOV     R6, R6, LSR #24
00:00009724 000030E3        	  1488:  TEQ     R0, #0
00:00009728 A0008552        	  1489:  ADDPL   R0, R5, #0xA0
00:0000972C A0006542        	  1490:  RSBMI   R0, R5, #0xA0
00:00009730 000031E3        	  1491:  TEQ     R1, #0
00:00009734 40108652        	  1492:  ADDPL   R1, R6, #0x40
00:00009738 40106642        	  1493:  RSBMI   R1, R6, #0x40
00:0000973C 050D50E3        	  1494:  CMP     R0, #0x140
00:00009740 EF005133        	  1495:  CMPLO   R1, #0xEF
00:00009744 8080BDE8        	  1496:  LDMFD   R13!, {R7, PC}
00:00009748 070090E8        	  1497:  LDMIA   R0, {R0-R2}
00:0000974C 020172E3        	  1498:  CMN     R2, #0x80000000
00:00009750 0EF0A021        	  1499:  MOVHS   PC, R14
00:00009754 E0402DE9        	  1500:  STMFD   R13!, {R5-R7, R14}
00:00009758 0030B0E1        	  1501:  MOVS    R3, R0
00:0000975C 00306342        	  1502:  RSBMI   R3, R3, #0
00:00009760 0350E041        	  1503:  MVNMI   R5, R3
00:00009764 0350A051        	  1504:  MOVPL   R5, R3
00:00009768 0140B0E1        	  1505:  MOVS    R4, R1
00:0000976C 00406442        	  1506:  RSBMI   R4, R4, #0
00:00009770 0460E041        	  1507:  MVNMI   R6, R4
00:00009774 0460A051        	  1508:  MOVPL   R6, R4
00:00009778 065085E1        	  1509:  ORR     R5, R5, R6
00:0000977C 025085E1        	  1510:  ORR     R5, R5, R2
00:00009780 015085E3        	  1511:  ORR     R5, R5, #1
00:00009784 0060A0E3        	  1512:  MOV     R6, #0
00:00009788 8550B0E1        	  1513:  MOVS    R5, R5, LSL #1
00:0000978C 01608652        	  1514:  ADDPL   R6, R6, #1
00:00009790 FCFFFF5A        	  1515:  BPL     0x00009788
00:00009794 1226A0E1        	  1516:  MOV     R2, R2, LSL R6
00:00009798 1336A0E1        	  1517:  MOV     R3, R3, LSL R6
00:0000979C 1446A0E1        	  1518:  MOV     R4, R4, LSL R6
00:000097A0 030052E1        	  1519:  CMP     R2, R3
00:000097A4 04005221        	  1520:  CMPHS   R2, R4
00:000097A8 1C00003A        	  1521:  BLO     0x00009820
00:000097AC 0270A0E1        	  1522:  MOV     R7, R2
00:000097B0 0060A0E3        	  1523:  MOV     R6, #0
00:000097B4 01ECA0E3        	  1524:  MOV     R14, #0x100
00:000097B8 8440B0E1        	  1525:  MOVS    R4, R4, LSL #1
00:000097BC 07005431        	  1526:  CMPLO   R4, R7
00:000097C0 07404420        	  1527:  SUBHS   R4, R4, R7
00:000097C4 0E608621        	  1528:  ORRHS   R6, R6, R14
00:000097C8 AEE0B0E1        	  1529:  MOVS    R14, R14, LSR #1
00:000097CC F9FFFF3A        	  1530:  BLO     0x000097B8
00:000097D0 866BB0E1        	  1531:  MOVS    R6, R6, LSL #23
00:000097D4 0050A0E3        	  1532:  MOV     R5, #0
00:000097D8 02ECA0E3        	  1533:  MOV     R14, #0x200
00:000097DC 8330B0E1        	  1534:  MOVS    R3, R3, LSL #1
00:000097E0 02005331        	  1535:  CMPLO   R3, R2
00:000097E4 02304320        	  1536:  SUBHS   R3, R3, R2
00:000097E8 0E508521        	  1537:  ORRHS   R5, R5, R14
00:000097EC AEE0B0E1        	  1538:  MOVS    R14, R14, LSR #1
00:000097F0 F9FFFF3A        	  1539:  BLO     0x000097DC
00:000097F4 055BB0E1        	  1540:  MOVS    R5, R5, LSL #22
00:000097F8 255CA0E1        	  1541:  MOV     R5, R5, LSR #24
00:000097FC 266CA0E1        	  1542:  MOV     R6, R6, LSR #24
00:00009800 000030E3        	  1543:  TEQ     R0, #0
00:00009804 A0008552        	  1544:  ADDPL   R0, R5, #0xA0
00:00009808 A0006542        	  1545:  RSBMI   R0, R5, #0xA0
00:0000980C 000031E3        	  1546:  TEQ     R1, #0
00:00009810 40108652        	  1547:  ADDPL   R1, R6, #0x40
00:00009814 40106642        	  1548:  RSBMI   R1, R6, #0x40
00:00009818 000070E3        	  1549:  CMN     R0, #0
00:0000981C E080BDE8        	  1550:  LDMFD   R13!, {R5-R7, PC}
00:00009820 1850A0E3        	  1551:  MOV     R5, #0x18
00:00009824 040053E1        	  1552:  CMP     R3, R4
00:00009828 A360A021        	  1553:  MOVHS   R6, R3, LSR #1
00:0000982C A360A031        	  1554:  MOVLO   R6, R3, LSR #1
00:00009830 060052E1        	  1555:  CMP     R2, R6
00:00009834 01508532        	  1556:  ADDLO   R5, R5, #1
00:00009838 A660A0E1        	  1557:  MOV     R6, R6, LSR #1
00:0000983C FBFFFF3A        	  1558:  BLO     0x00009830
00:00009840 A22BA0E1        	  1559:  MOV     R2, R2, LSR #23
00:00009844 3335A0E1        	  1560:  MOV     R3, R3, LSR R5
00:00009848 3445A0E1        	  1561:  MOV     R4, R4, LSR R5
00:0000984C 0270A0E1        	  1562:  MOV     R7, R2
00:00009850 20002DE9        	  1563:  STMDB   R13!, {R5}
00:00009854 0060A0E3        	  1564:  MOV     R6, #0
00:00009858 80E0A0E3        	  1565:  MOV     R14, #0x80
00:0000985C 044CA0E1        	  1566:  MOV     R4, R4, LSL #24
00:00009860 077CA0E1        	  1567:  MOV     R7, R7, LSL #24
00:00009864 8440B0E1        	  1568:  MOVS    R4, R4, LSL #1
00:00009868 07005431        	  1569:  CMPLO   R4, R7
00:0000986C 07404420        	  1570:  SUBHS   R4, R4, R7
00:00009870 0E608621        	  1571:  ORRHS   R6, R6, R14
00:00009874 AEE0B0E1        	  1572:  MOVS    R14, R14, LSR #1
00:00009878 F9FFFF3A        	  1573:  BLO     0x00009864
00:0000987C 066CB0E1        	  1574:  MOVS    R6, R6, LSL #24
00:00009880 0050A0E3        	  1575:  MOV     R5, #0
00:00009884 02ECA0E3        	  1576:  MOV     R14, #0x200
00:00009888 033BA0E1        	  1577:  MOV     R3, R3, LSL #22
00:0000988C 022BA0E1        	  1578:  MOV     R2, R2, LSL #22
00:00009890 8330B0E1        	  1579:  MOVS    R3, R3, LSL #1
00:00009894 02005331        	  1580:  CMPLO   R3, R2
00:00009898 02304320        	  1581:  SUBHS   R3, R3, R2
00:0000989C 0E508521        	  1582:  ORRHS   R5, R5, R14
00:000098A0 AEE0B0E1        	  1583:  MOVS    R14, R14, LSR #1
00:000098A4 F9FFFF3A        	  1584:  BLO     0x00009890
00:000098A8 055BB0E1        	  1585:  MOVS    R5, R5, LSL #22
00:000098AC 0040BDE8        	  1586:  LDMIA   R13!, {R14}
00:000098B0 17E04EE2        	  1587:  SUB     R14, R14, #0x17
00:000098B4 17E06EE2        	  1588:  RSB     R14, R14, #0x17
00:000098B8 355EA0E1        	  1589:  MOV     R5, R5, LSR R14
00:000098BC 366EA0E1        	  1590:  MOV     R6, R6, LSR R14
00:000098C0 A660A0E1        	  1591:  MOV     R6, R6, LSR #1
00:000098C4 000030E3        	  1592:  TEQ     R0, #0
00:000098C8 A0008552        	  1593:  ADDPL   R0, R5, #0xA0
00:000098CC A0006542        	  1594:  RSBMI   R0, R5, #0xA0
00:000098D0 000031E3        	  1595:  TEQ     R1, #0
00:000098D4 40108652        	  1596:  ADDPL   R1, R6, #0x40
00:000098D8 40106642        	  1597:  RSBMI   R1, R6, #0x40
00:000098DC 000070E3        	  1598:  CMN     R0, #0
00:000098E0 E080BDE8        	  1599:  LDMFD   R13!, {R5-R7, PC}
00:000098E4 64408BE2        	  1600:  ADD     R4, R11, #0x64
00:000098E8 74408BE2        	  1601:  ADD     R4, R11, #0x74
00:000098EC 0C40A0E1        	  1602:  MOV     R4, R12
00:000098F0 174E8BE2        	  1603:  ADD     R4, R11, #0x170
00:000098F4 164E8BE2        	  1604:  ADD     R4, R11, #0x160
00:000098F8 00402DE9        	  1605:  STMDB   R13!, {R14}
00:000098FC 18101FE5        	  1606:  LDR     R1, 0x000098EC
00:00009900 30108FE5        	  1607:  STR     R1, 0x00009938
00:00009904 070090E8        	  1608:  LDMIA   R0, {R0-R2}
00:00009908 0C30A0E1        	  1609:  MOV     R3, R12
00:0000990C 040000EB        	  1610:  BL      0x00009924
00:00009910 30101FE5        	  1611:  LDR     R1, 0x000098E8
00:00009914 1C108FE5        	  1612:  STR     R1, 0x00009938
00:00009918 0080BDE8        	  1613:  LDMIA   R13!, {PC}
00:0000991C 070090E8        	  1614:  LDMIA   R0, {R0-R2}
00:00009920 64308BE2        	  1615:  ADD     R3, R11, #0x64
00:00009924 60002DE9        	  1616:  STMFD   R13!, {R5-R6}
00:00009928 380093E8        	  1617:  LDMIA   R3, {R3-R5}
00:0000992C 030080E0        	  1618:  ADD     R0, R0, R3
00:00009930 041081E0        	  1619:  ADD     R1, R1, R4
00:00009934 052082E0        	  1620:  ADD     R2, R2, R5
00:00009938 74308BE2        	  1621:  ADD     R3, R11, #0x74
00:0000993C 070083E8        	  1622:  STMIA   R3, {R0-R2}
00:00009940 6000BDE8        	  1623:  LDMFD   R13!, {R5-R6}
00:00009944 0EF0A0E1        	  1624:  MOV     PC, R14
00:00009948 E0412DE9        	  1625:  STMFD   R13!, {R5-R8, R14}
00:0000994C 0E4091E8        	  1626:  LDMIA   R1, {R1-R3, R14}
00:00009950 0080A0E1        	  1627:  MOV     R8, R0
00:00009954 014028E0        	  1628:  EOR     R4, R8, R1
00:00009958 000038E3        	  1629:  TEQ     R8, #0
00:0000995C 00806842        	  1630:  RSBMI   R8, R8, #0
00:00009960 0881B0E1        	  1631:  MOVS    R8, R8, LSL #2
00:00009964 000031E3        	  1632:  TEQ     R1, #0
00:00009968 00106142        	  1633:  RSBMI   R1, R1, #0
00:0000996C 8110A0E1        	  1634:  MOV     R1, R1, LSL #1
00:00009970 FE8408E2        	  1635:  AND     R8, R8, #0xFE000000
00:00009974 018488E3        	  1636:  ORR     R8, R8, #0x1000000
00:00009978 0050A0E3        	  1637:  MOV     R5, #0
00:0000997C A110A0E1        	  1638:  MOV     R1, R1, LSR #1
00:00009980 01508520        	  1639:  ADDHS   R5, R5, R1
00:00009984 8880B0E1        	  1640:  MOVS    R8, R8, LSL #1
00:00009988 FBFFFF1A        	  1641:  BNE     0x0000997C
00:0000998C A550A0E1        	  1642:  MOV     R5, R5, LSR #1
00:00009990 000034E3        	  1643:  TEQ     R4, #0
00:00009994 00506542        	  1644:  RSBMI   R5, R5, #0
00:00009998 0080A0E1        	  1645:  MOV     R8, R0
00:0000999C 024028E0        	  1646:  EOR     R4, R8, R2
00:000099A0 000038E3        	  1647:  TEQ     R8, #0
00:000099A4 00806842        	  1648:  RSBMI   R8, R8, #0
00:000099A8 0881B0E1        	  1649:  MOVS    R8, R8, LSL #2
00:000099AC 000032E3        	  1650:  TEQ     R2, #0
00:000099B0 00206242        	  1651:  RSBMI   R2, R2, #0
00:000099B4 8220A0E1        	  1652:  MOV     R2, R2, LSL #1
00:000099B8 FE8408E2        	  1653:  AND     R8, R8, #0xFE000000
00:000099BC 018488E3        	  1654:  ORR     R8, R8, #0x1000000
00:000099C0 0060A0E3        	  1655:  MOV     R6, #0
00:000099C4 A220A0E1        	  1656:  MOV     R2, R2, LSR #1
00:000099C8 02608620        	  1657:  ADDHS   R6, R6, R2
00:000099CC 8880B0E1        	  1658:  MOVS    R8, R8, LSL #1
00:000099D0 FBFFFF1A        	  1659:  BNE     0x000099C4
00:000099D4 A660A0E1        	  1660:  MOV     R6, R6, LSR #1
00:000099D8 000034E3        	  1661:  TEQ     R4, #0
00:000099DC 00606642        	  1662:  RSBMI   R6, R6, #0
00:000099E0 0080A0E1        	  1663:  MOV     R8, R0
00:000099E4 034028E0        	  1664:  EOR     R4, R8, R3
00:000099E8 000038E3        	  1665:  TEQ     R8, #0
00:000099EC 00806842        	  1666:  RSBMI   R8, R8, #0
00:000099F0 0881B0E1        	  1667:  MOVS    R8, R8, LSL #2
00:000099F4 000033E3        	  1668:  TEQ     R3, #0
00:000099F8 00306342        	  1669:  RSBMI   R3, R3, #0
00:000099FC 8330A0E1        	  1670:  MOV     R3, R3, LSL #1
00:00009A00 FE8408E2        	  1671:  AND     R8, R8, #0xFE000000
00:00009A04 018488E3        	  1672:  ORR     R8, R8, #0x1000000
00:00009A08 0070A0E3        	  1673:  MOV     R7, #0
00:00009A0C A330A0E1        	  1674:  MOV     R3, R3, LSR #1
00:00009A10 03708720        	  1675:  ADDHS   R7, R7, R3
00:00009A14 8880B0E1        	  1676:  MOVS    R8, R8, LSL #1
00:00009A18 FBFFFF1A        	  1677:  BNE     0x00009A0C
00:00009A1C A770A0E1        	  1678:  MOV     R7, R7, LSR #1
00:00009A20 000034E3        	  1679:  TEQ     R4, #0
00:00009A24 00706742        	  1680:  RSBMI   R7, R7, #0
00:00009A28 02E08EE2        	  1681:  ADD     R14, R14, #2
00:00009A2C 64808BE2        	  1682:  ADD     R8, R11, #0x64
00:00009A30 E04088E8        	  1683:  STMIA   R8, {R5-R7, R14}
00:00009A34 E081BDE8        	  1684:  LDMFD   R13!, {R5-R8, PC}
00:00009A38 90349C4F        	  1685:  SWIMI   0x9C3490
00:00009A3C CF8303DA        	  1686:  BLE     0x000EA980
00:00009A40 00402DE9        	  1687:  STMDB   R13!, {R14}
00:00009A44 14001FE5        	  1688:  LDR     R0, 0x00009A38
00:00009A48 14101FE5        	  1689:  LDR     R1, 0x00009A3C
00:00009A4C A10011E1        	  1690:  TST     R1, R1, LSR #1
00:00009A50 60E0B0E1        	  1691:  MOVS    R14, R0, RRX
00:00009A54 0110A1E0        	  1692:  ADC     R1, R1, R1
00:00009A58 00E62EE0        	  1693:  EOR     R14, R14, R0, LSL #12
00:00009A5C 2E0A2EE0        	  1694:  EOR     R0, R14, R14, LSR #20
00:00009A60 30100FE5        	  1695:  STR     R1, 0x00009A38
00:00009A64 30000FE5        	  1696:  STR     R0, 0x00009A3C
00:00009A68 0080BDE8        	  1697:  LDMIA   R13!, {PC}
                            	  1698: 
00:00009A6C 0094FD01        	  1699: .long 0x01FD9400
00:00009A70 00000000        	  1700: .long 0x00000000
00:00009A74 01010101        	  1701: .long 0x01010101
00:00009A78 02020202        	  1702: .long 0x02020202
00:00009A7C 03030303        	  1703: .long 0x03030303
00:00009A80 2C2C2C2C        	  1704: .long 0x2C2C2C2C
00:00009A84 2D2D2D2D        	  1705: .long 0x2D2D2D2D
00:00009A88 2E2E2E2E        	  1706: .long 0x2E2E2E2E
00:00009A8C 2F2F2F2F        	  1707: .long 0x2F2F2F2F
00:00009A90 D0D0D0D0        	  1708: .long 0xD0D0D0D0
00:00009A94 D1D1D1D1        	  1709: .long 0xD1D1D1D1
00:00009A98 D2D2D2D2        	  1710: .long 0xD2D2D2D2
00:00009A9C D3D3D3D3        	  1711: .long 0xD3D3D3D3
00:00009AA0 FCFCFCFC        	  1712: .long 0xFCFCFCFC
00:00009AA4 FDFDFDFD        	  1713: .long 0xFDFDFDFD
00:00009AA8 FEFEFEFE        	  1714: .long 0xFEFEFEFE
00:00009AAC FFFFFFFF        	  1715: .long 0xFFFFFFFF
00:00009AB0 FFFFFFFF        	  1716: .long 0xFFFFFFFF
00:00009AB4 FFFFFFFF        	  1717: .long 0xFFFFFFFF
00:00009AB8 FFFFFFFF        	  1718: .long 0xFFFFFFFF
00:00009ABC FFFFFFFF        	  1719: .long 0xFFFFFFFF
00:00009AC0 709A0000        	  1720: .long 0x00009A70
                            	  1721: 
00:00009AC4 041099E4        	  1722:  LDR     R1, [R9], #4
00:00009AC8 210AA0E1        	  1723:  MOV     R0, R1, LSR #20
00:00009ACC 2176A0E1        	  1724:  MOV     R7, R1, LSR #12
00:00009AD0 FF1001E2        	  1725:  AND     R1, R1, #0xFF
00:00009AD4 00308CE0        	  1726:  ADD     R3, R12, R0
00:00009AD8 011181E0        	  1727:  ADD     R1, R1, R1, LSL #2
00:00009ADC 013383E0        	  1728:  ADD     R3, R3, R1, LSL #6
00:00009AE0 0070C3E5        	  1729:  STRB    R7, [R3]
00:00009AE4 800000EA        	  1730:  B       0x00009CEC
00:00009AE8 041099E4        	  1731:  LDR     R1, [R9], #4
00:00009AEC 210AA0E1        	  1732:  MOV     R0, R1, LSR #20
00:00009AF0 2176A0E1        	  1733:  MOV     R7, R1, LSR #12
00:00009AF4 FF1001E2        	  1734:  AND     R1, R1, #0xFF
00:00009AF8 00308CE0        	  1735:  ADD     R3, R12, R0
00:00009AFC 011181E0        	  1736:  ADD     R1, R1, R1, LSL #2
00:00009B00 013383E0        	  1737:  ADD     R3, R3, R1, LSL #6
00:00009B04 0070C3E5        	  1738:  STRB    R7, [R3]
00:00009B08 0170C3E5        	  1739:  STRB    R7, [R3, #1]
00:00009B0C 760000EA        	  1740:  B       0x00009CEC
00:00009B10 041099E4        	  1741:  LDR     R1, [R9], #4
00:00009B14 210AA0E1        	  1742:  MOV     R0, R1, LSR #20
00:00009B18 2176A0E1        	  1743:  MOV     R7, R1, LSR #12
00:00009B1C FF1001E2        	  1744:  AND     R1, R1, #0xFF
00:00009B20 00308CE0        	  1745:  ADD     R3, R12, R0
00:00009B24 011181E0        	  1746:  ADD     R1, R1, R1, LSL #2
00:00009B28 013383E0        	  1747:  ADD     R3, R3, R1, LSL #6
00:00009B2C 0070C3E5        	  1748:  STRB    R7, [R3]
00:00009B30 0170C3E5        	  1749:  STRB    R7, [R3, #1]
00:00009B34 4071C3E5        	  1750:  STRB    R7, [R3, #0x140]
00:00009B38 4171C3E5        	  1751:  STRB    R7, [R3, #0x141]
00:00009B3C 6A0000EA        	  1752:  B       0x00009CEC
00:00009B40 041099E4        	  1753:  LDR     R1, [R9], #4
00:00009B44 210AA0E1        	  1754:  MOV     R0, R1, LSR #20
00:00009B48 2176A0E1        	  1755:  MOV     R7, R1, LSR #12
00:00009B4C FF1001E2        	  1756:  AND     R1, R1, #0xFF
00:00009B50 00308CE0        	  1757:  ADD     R3, R12, R0
00:00009B54 011181E0        	  1758:  ADD     R1, R1, R1, LSL #2
00:00009B58 013383E0        	  1759:  ADD     R3, R3, R1, LSL #6
00:00009B5C 017043E5        	  1760:  STRB    R7, [R3, #-1]
00:00009B60 0070C3E5        	  1761:  STRB    R7, [R3]
00:00009B64 0170C3E5        	  1762:  STRB    R7, [R3, #1]
00:00009B68 3F71C3E5        	  1763:  STRB    R7, [R3, #0x13F]
00:00009B6C 4071C3E5        	  1764:  STRB    R7, [R3, #0x140]
00:00009B70 4171C3E5        	  1765:  STRB    R7, [R3, #0x141]
00:00009B74 5C0000EA        	  1766:  B       0x00009CEC
00:00009B78 041099E4        	  1767:  LDR     R1, [R9], #4
00:00009B7C 210AA0E1        	  1768:  MOV     R0, R1, LSR #20
00:00009B80 2176A0E1        	  1769:  MOV     R7, R1, LSR #12
00:00009B84 FF1001E2        	  1770:  AND     R1, R1, #0xFF
00:00009B88 00308CE0        	  1771:  ADD     R3, R12, R0
00:00009B8C 011181E0        	  1772:  ADD     R1, R1, R1, LSL #2
00:00009B90 013383E0        	  1773:  ADD     R3, R3, R1, LSL #6
00:00009B94 017043E5        	  1774:  STRB    R7, [R3, #-1]
00:00009B98 0070C3E5        	  1775:  STRB    R7, [R3]
00:00009B9C 0170C3E5        	  1776:  STRB    R7, [R3, #1]
00:00009BA0 510000EA        	  1777:  B       0x00009CEC
00:00009BA4 3F01B9E8        	  1778:  LDMIA   R9!, {R0-R5, R8}
00:00009BA8 00122DE9        	  1779:  STMFD   R13!, {R9, R12}
00:00009BAC 8A0000EB        	  1780:  BL      0x00009DDC
00:00009BB0 0012BDE8        	  1781:  LDMFD   R13!, {R9, R12}
00:00009BB4 4C0000EA        	  1782:  B       0x00009CEC
00:00009BB8 00422DE9        	  1783:  STMFD   R13!, {R9, R14}
00:00009BBC 05E368E2        	  1784:  RSB     R14, R8, #0x14000000
00:00009BC0 01E48EE2        	  1785:  ADD     R14, R14, #0x1000000
00:00009BC4 03E5CEE3        	  1786:  BIC     R14, R14, #0xC00000
00:00009BC8 2E9B9CE7        	  1787:  LDR     R9, [R12, R14, LSR #22]
00:00009BCC A88CA0E1        	  1788:  MOV     R8, R8, LSR #25
00:00009BD0 080058E3        	  1789:  CMP     R8, #8
00:00009BD4 0880A023        	  1790:  MOVHS   R8, #8
00:00009BD8 FF7007E2        	  1791:  AND     R7, R7, #0xFF
00:00009BDC 071681E0        	  1792:  ADD     R1, R1, R7, LSL #12
00:00009BE0 001A81E0        	  1793:  ADD     R1, R1, R0, LSL #20
00:00009BE4 048089E4        	  1794:  STR     R8, [R9], #4
00:00009BE8 041089E4        	  1795:  STR     R1, [R9], #4
00:00009BEC 2E9B8CE7        	  1796:  STR     R9, [R12, R14, LSR #22]
00:00009BF0 0082BDE8        	  1797:  LDMFD   R13!, {R9, PC}
00:00009BF4 00422DE9        	  1798:  STMFD   R13!, {R9, R14}
00:00009BF8 05E368E2        	  1799:  RSB     R14, R8, #0x14000000
00:00009BFC 03E5CEE3        	  1800:  BIC     R14, R14, #0xC00000
00:00009C00 2E9B9CE7        	  1801:  LDR     R9, [R12, R14, LSR #22]
00:00009C04 A88CA0E1        	  1802:  MOV     R8, R8, LSR #25
00:00009C08 080058E3        	  1803:  CMP     R8, #8
00:00009C0C 0880A023        	  1804:  MOVHS   R8, #8
00:00009C10 098088E2        	  1805:  ADD     R8, R8, #9
00:00009C14 001A81E0        	  1806:  ADD     R1, R1, R0, LSL #20
00:00009C18 048089E4        	  1807:  STR     R8, [R9], #4
00:00009C1C 041089E4        	  1808:  STR     R1, [R9], #4
00:00009C20 2E9B8CE7        	  1809:  STR     R9, [R12, R14, LSR #22]
00:00009C24 0082BDE8        	  1810:  LDMFD   R13!, {R9, PC}
00:00009C28 00422DE9        	  1811:  STMFD   R13!, {R9, R14}
00:00009C2C 08E09BE5        	  1812:  LDR     R14, [R11, #8]
00:00009C30 05E36EE2        	  1813:  RSB     R14, R14, #0x14000000
00:00009C34 0B045EE3        	  1814:  CMP     R14, #0xB000000
00:00009C38 0AE4A023        	  1815:  MOVHS   R14, #0xA000000
00:00009C3C 03E5CEE3        	  1816:  BIC     R14, R14, #0xC00000
00:00009C40 2E9B9CE7        	  1817:  LDR     R9, [R12, R14, LSR #22]
00:00009C44 1270A0E3        	  1818:  MOV     R7, #0x12
00:00009C48 047089E4        	  1819:  STR     R7, [R9], #4
00:00009C4C 3F01A9E8        	  1820:  STMIA   R9!, {R0-R5, R8}
00:00009C50 2E9B8CE7        	  1821:  STR     R9, [R12, R14, LSR #22]
00:00009C54 0082BDE8        	  1822:  LDMFD   R13!, {R9, PC}
00:00009C58 00422DE9        	  1823:  STMFD   R13!, {R9, R14}
00:00009C5C 08E09BE5        	  1824:  LDR     R14, [R11, #8]
00:00009C60 05E36EE2        	  1825:  RSB     R14, R14, #0x14000000
00:00009C64 01E48EE2        	  1826:  ADD     R14, R14, #0x1000000
00:00009C68 0B045EE3        	  1827:  CMP     R14, #0xB000000
00:00009C6C 0AE4A023        	  1828:  MOVHS   R14, #0xA000000
00:00009C70 03E5CEE3        	  1829:  BIC     R14, R14, #0xC00000
00:00009C74 2E9B9CE7        	  1830:  LDR     R9, [R12, R14, LSR #22]
00:00009C78 1270A0E3        	  1831:  MOV     R7, #0x12
00:00009C7C 047089E4        	  1832:  STR     R7, [R9], #4
00:00009C80 3F01A9E8        	  1833:  STMIA   R9!, {R0-R5, R8}
00:00009C84 2E9B8CE7        	  1834:  STR     R9, [R12, R14, LSR #22]
00:00009C88 0082BDE8        	  1835:  LDMFD   R13!, {R9, PC}
                            	  1836: 
00:00009C8C 409B0000        	  1837: .long 0x00009B40
00:00009C90 409B0000        	  1838: .long 0x00009B40
00:00009C94 409B0000        	  1839: .long 0x00009B40
00:00009C98 409B0000        	  1840: .long 0x00009B40
00:00009C9C 409B0000        	  1841: .long 0x00009B40
00:00009CA0 409B0000        	  1842: .long 0x00009B40
00:00009CA4 109B0000        	  1843: .long 0x00009B10
00:00009CA8 E89A0000        	  1844: .long 0x00009AE8
00:00009CAC C49A0000        	  1845: .long 0x00009AC4
00:00009CB0 789B0000        	  1846: .long 0x00009B78
00:00009CB4 789B0000        	  1847: .long 0x00009B78
00:00009CB8 789B0000        	  1848: .long 0x00009B78
00:00009CBC 789B0000        	  1849: .long 0x00009B78
00:00009CC0 789B0000        	  1850: .long 0x00009B78
00:00009CC4 789B0000        	  1851: .long 0x00009B78
00:00009CC8 E89A0000        	  1852: .long 0x00009AE8
00:00009CCC E89A0000        	  1853: .long 0x00009AE8
00:00009CD0 C49A0000        	  1854: .long 0x00009AC4
00:00009CD4 A49B0000        	  1855: .long 0x00009BA4
00:00009CD8 F89C0000        	  1856: .long 0x00009CF8
                            	  1857: 
00:00009CDC C05F2DE9        	  1858:  STMFD   R13!, {R6-R12, R14}
00:00009CE0 9C1A1FE5        	  1859:  LDR     R1, 0x0000924C
00:00009CE4 009191E7        	  1860:  LDR     R9, [R1, R0, LSL #2]
00:00009CE8 84C21FE5        	  1861:  LDR     R12, 0x00009A6C
00:00009CEC 040099E4        	  1862:  LDR     R0, [R9], #4
00:00009CF0 00018FE0        	  1863:  ADD     R0, PC, R0, LSL #2
00:00009CF4 6CF010E5        	  1864:  LDR     PC, [R0, #-0x6C]
00:00009CF8 C09FBDE8        	  1865:  LDMFD   R13!, {R6-R12, PC}
00:00009CFC 00502DE9        	  1866:  STMFD   R13!, {R12, R14}
00:00009D00 BCCA1FE5        	  1867:  LDR     R12, 0x0000924C
00:00009D04 BCEA1FE5        	  1868:  LDR     R14, 0x00009250
00:00009D08 0B00A0E3        	  1869:  MOV     R0, #0xB
00:00009D0C 1310A0E3        	  1870:  MOV     R1, #0x13
00:00009D10 00219CE7        	  1871:  LDR     R2, [R12, R0, LSL #2]
00:00009D14 001082E5        	  1872:  STR     R1, [R2]
00:00009D18 00219EE7        	  1873:  LDR     R2, [R14, R0, LSL #2]
00:00009D1C 00218CE7        	  1874:  STR     R2, [R12, R0, LSL #2]
00:00009D20 010050E2        	  1875:  SUBS    R0, R0, #1
00:00009D24 F9FFFF5A        	  1876:  BPL     0x00009D10
00:00009D28 0090BDE8        	  1877:  LDMFD   R13!, {R12, PC}
                            	  1878: 
00:00009D2C 0094FD01        	  1879: .long 0x01FD9400
00:00009D30 00D4FE01        	  1880: .long 0x01FED400
00:00009D34 00000000        	  1881: .long 0x00000000
00:00009D38 10DA0000        	  1882: .long 0x0000DA10
                            	  1883: 
00:00009D3C 10005FE5        	  1884:  LDRB    R0, 0x00009D34
00:00009D40 010030E2        	  1885:  EORS    R0, R0, #1
00:00009D44 18004FE5        	  1886:  STRB    R0, 0x00009D34
00:00009D48 24101F15        	  1887:  LDRNE   R1, 0x00009D2C
00:00009D4C 24101F05        	  1888:  LDREQ   R1, 0x00009D30
00:00009D50 EC120FE5        	  1889:  STR     R1, 0x00009A6C
00:00009D54 000030E3        	  1890:  TEQ     R0, #0
00:00009D58 0110A003        	  1891:  MOVEQ   R1, #1
00:00009D5C 0210A013        	  1892:  MOVNE   R1, #2
00:00009D60 7100A0E3        	  1893:  MOV     R0, #0x71
00:00009D64 060000EF        	  1894:  SWI     0x6
00:00009D68 7000A0E3        	  1895:  MOV     R0, #0x70
00:00009D6C 060000EF        	  1896:  SWI     0x6
00:00009D70 1300A0E3        	  1897:  MOV     R0, #0x13
00:00009D74 060000EF        	  1898:  SWI     0x6
00:00009D78 005A2DE9        	  1899:  STMFD   R13!, {R9, R11-R12, R14}
00:00009D7C 0000A0E3        	  1900:  MOV     R0, #0
00:00009D80 0010A0E3        	  1901:  MOV     R1, #0
00:00009D84 0020A0E3        	  1902:  MOV     R2, #0
00:00009D88 0030A0E3        	  1903:  MOV     R3, #0
00:00009D8C 0040A0E3        	  1904:  MOV     R4, #0
00:00009D90 0050A0E3        	  1905:  MOV     R5, #0
00:00009D94 0060A0E3        	  1906:  MOV     R6, #0
00:00009D98 0070A0E3        	  1907:  MOV     R7, #0
00:00009D9C 0080A0E3        	  1908:  MOV     R8, #0
00:00009DA0 0090A0E3        	  1909:  MOV     R9, #0
00:00009DA4 40B31FE5        	  1910:  LDR     R11, 0x00009A6C
00:00009DA8 4BCB8BE2        	  1911:  ADD     R12, R11, #0x12C00
00:00009DAC FF032CE9        	  1912:  STMDB   R12!, {R0-R9}
00:00009DB0 FF032CE9        	  1913:  STMDB   R12!, {R0-R9}
00:00009DB4 FF032CE9        	  1914:  STMDB   R12!, {R0-R9}
00:00009DB8 FF032CE9        	  1915:  STMDB   R12!, {R0-R9}
00:00009DBC 0B005CE1        	  1916:  CMP     R12, R11
00:00009DC0 F9FFFF1A        	  1917:  BNE     0x00009DAC
00:00009DC4 009ABDE8        	  1918:  LDMFD   R13!, {R9, R11-R12, PC}
00:00009DC8 FC5E2DE9        	  1919:  STMFD   R13!, {R2-R7, R9-R12, R14}
00:00009DCC 020000EB        	  1920:  BL      0x00009DDC
00:00009DD0 3F00BDE8        	  1921:  LDMFD   R13!, {R0-R5}
00:00009DD4 000000EB        	  1922:  BL      0x00009DDC
00:00009DD8 009EBDE8        	  1923:  LDMFD   R13!, {R9-R12, PC}
00:00009DDC 050D50E3        	  1924:  CMP     R0, #0x140
00:00009DE0 EF005133        	  1925:  CMPLO   R1, #0xEF
00:00009DE4 050D5233        	  1926:  CMPLO   R2, #0x140
00:00009DE8 EF005333        	  1927:  CMPLO   R3, #0xEF
00:00009DEC 050D5433        	  1928:  CMPLO   R4, #0x140
00:00009DF0 EF005533        	  1929:  CMPLO   R5, #0xEF
00:00009DF4 C500002A        	  1930:  BHS     0x0000A110
00:00009DF8 00402DE9        	  1931:  STMDB   R13!, {R14}
00:00009DFC 98C31FE5        	  1932:  LDR     R12, 0x00009A6C
00:00009E00 030051E1        	  1933:  CMP     R1, R3
00:00009E04 0500002A        	  1934:  BHS     0x00009E20
00:00009E08 0060A0E1        	  1935:  MOV     R6, R0
00:00009E0C 0200A0E1        	  1936:  MOV     R0, R2
00:00009E10 0620A0E1        	  1937:  MOV     R2, R6
00:00009E14 0160A0E1        	  1938:  MOV     R6, R1
00:00009E18 0310A0E1        	  1939:  MOV     R1, R3
00:00009E1C 0630A0E1        	  1940:  MOV     R3, R6
00:00009E20 050051E1        	  1941:  CMP     R1, R5
00:00009E24 0500002A        	  1942:  BHS     0x00009E40
00:00009E28 0060A0E1        	  1943:  MOV     R6, R0
00:00009E2C 0400A0E1        	  1944:  MOV     R0, R4
00:00009E30 0640A0E1        	  1945:  MOV     R4, R6
00:00009E34 0160A0E1        	  1946:  MOV     R6, R1
00:00009E38 0510A0E1        	  1947:  MOV     R1, R5
00:00009E3C 0650A0E1        	  1948:  MOV     R5, R6
00:00009E40 050053E1        	  1949:  CMP     R3, R5
00:00009E44 0500002A        	  1950:  BHS     0x00009E60
00:00009E48 0260A0E1        	  1951:  MOV     R6, R2
00:00009E4C 0420A0E1        	  1952:  MOV     R2, R4
00:00009E50 0640A0E1        	  1953:  MOV     R4, R6
00:00009E54 0360A0E1        	  1954:  MOV     R6, R3
00:00009E58 0530A0E1        	  1955:  MOV     R3, R5
00:00009E5C 0650A0E1        	  1956:  MOV     R5, R6
00:00009E60 01B181E0        	  1957:  ADD     R11, R1, R1, LSL #2
00:00009E64 0BC38CE0        	  1958:  ADD     R12, R12, R11, LSL #6
00:00009E68 039051E0        	  1959:  SUBS    R9, R1, R3
00:00009E6C 6F00000A        	  1960:  BEQ     0x0000A030
00:00009E70 30002DE9        	  1961:  STMFD   R13!, {R4-R5}
00:00009E74 00E052E0        	  1962:  SUBS    R14, R2, R0
00:00009E78 00E06240        	  1963:  RSBMI   R14, R2, R0
00:00009E7C 40005EE3        	  1964:  CMP     R14, #0x40
00:00009E80 40005933        	  1965:  CMPLO   R9, #0x40
00:00009E84 0300002A        	  1966:  BHS     0x00009E98
00:00009E88 58A11FE5        	  1967:  LDR     R10, 0x00009D38
00:00009E8C 0EA48AE0        	  1968:  ADD     R10, R10, R14, LSL #8
00:00009E90 09619AE7        	  1969:  LDR     R6, [R10, R9, LSL #2]
00:00009E94 080000EA        	  1970:  B       0x00009EBC
00:00009E98 0998A0E1        	  1971:  MOV     R9, R9, LSL #16
00:00009E9C 0060A0E3        	  1972:  MOV     R6, #0
00:00009EA0 02A1A0E3        	  1973:  MOV     R10, #0x80000000
00:00009EA4 8EE0B0E1        	  1974:  MOVS    R14, R14, LSL #1
00:00009EA8 09005E31        	  1975:  CMPLO   R14, R9
00:00009EAC 09E04E20        	  1976:  SUBHS   R14, R14, R9
00:00009EB0 0A608621        	  1977:  ORRHS   R6, R6, R10
00:00009EB4 AAA0B0E1        	  1978:  MOVS    R10, R10, LSR #1
00:00009EB8 F9FFFF3A        	  1979:  BLO     0x00009EA4
00:00009EBC 000052E1        	  1980:  CMP     R2, R0
00:00009EC0 00606642        	  1981:  RSBMI   R6, R6, #0
00:00009EC4 059051E0        	  1982:  SUBS    R9, R1, R5
00:00009EC8 00E054E0        	  1983:  SUBS    R14, R4, R0
00:00009ECC 00E06440        	  1984:  RSBMI   R14, R4, R0
00:00009ED0 40005EE3        	  1985:  CMP     R14, #0x40
00:00009ED4 40005933        	  1986:  CMPLO   R9, #0x40
00:00009ED8 0300002A        	  1987:  BHS     0x00009EEC
00:00009EDC ACA11FE5        	  1988:  LDR     R10, 0x00009D38
00:00009EE0 0EA48AE0        	  1989:  ADD     R10, R10, R14, LSL #8
00:00009EE4 09719AE7        	  1990:  LDR     R7, [R10, R9, LSL #2]
00:00009EE8 080000EA        	  1991:  B       0x00009F10
00:00009EEC 0998A0E1        	  1992:  MOV     R9, R9, LSL #16
00:00009EF0 0070A0E3        	  1993:  MOV     R7, #0
00:00009EF4 02A1A0E3        	  1994:  MOV     R10, #0x80000000
00:00009EF8 8EE0B0E1        	  1995:  MOVS    R14, R14, LSL #1
00:00009EFC 09005E31        	  1996:  CMPLO   R14, R9
00:00009F00 09E04E20        	  1997:  SUBHS   R14, R14, R9
00:00009F04 0A708721        	  1998:  ORRHS   R7, R7, R10
00:00009F08 AAA0B0E1        	  1999:  MOVS    R10, R10, LSR #1
00:00009F0C F9FFFF3A        	  2000:  BLO     0x00009EF8
00:00009F10 000054E1        	  2001:  CMP     R4, R0
00:00009F14 00706742        	  2002:  RSBMI   R7, R7, #0
00:00009F18 039051E0        	  2003:  SUBS    R9, R1, R3
00:00009F1C 0048A0E1        	  2004:  MOV     R4, R0, LSL #16
00:00009F20 024984E3        	  2005:  ORR     R4, R4, #0x8000
00:00009F24 0450A0E1        	  2006:  MOV     R5, R4
00:00009F28 070056E1        	  2007:  CMP     R6, R7
00:00009F2C 06E0A0C1        	  2008:  MOVGT   R14, R6
00:00009F30 0760A0C1        	  2009:  MOVGT   R6, R7
00:00009F34 0E70A0C1        	  2010:  MOVGT   R7, R14
00:00009F38 064084E0        	  2011:  ADD     R4, R4, R6
00:00009F3C 075085E0        	  2012:  ADD     R5, R5, R7
00:00009F40 24B88CE0        	  2013:  ADD     R11, R12, R4, LSR #16
00:00009F44 25A8A0E1        	  2014:  MOV     R10, R5, LSR #16
00:00009F48 24A85AE0        	  2015:  SUBS    R10, R10, R4, LSR #16
00:00009F4C 5D01005B        	  2016:  BLPL    0x0000A4C8
00:00009F50 05CD4CE2        	  2017:  SUB     R12, R12, #0x140
00:00009F54 019059E2        	  2018:  SUBS    R9, R9, #1
00:00009F58 F6FFFF1A        	  2019:  BNE     0x00009F38
00:00009F5C 0300BDE8        	  2020:  LDMFD   R13!, {R0-R1}
00:00009F60 019053E0        	  2021:  SUBS    R9, R3, R1
00:00009F64 0080BD08        	  2022:  LDMEQIA R13!, {PC}
00:00009F68 02E050E0        	  2023:  SUBS    R14, R0, R2
00:00009F6C 02E06040        	  2024:  RSBMI   R14, R0, R2
00:00009F70 40005EE3        	  2025:  CMP     R14, #0x40
00:00009F74 40005933        	  2026:  CMPLO   R9, #0x40
00:00009F78 0300002A        	  2027:  BHS     0x00009F8C
00:00009F7C 4CA21FE5        	  2028:  LDR     R10, 0x00009D38
00:00009F80 0EA48AE0        	  2029:  ADD     R10, R10, R14, LSL #8
00:00009F84 09B19AE7        	  2030:  LDR     R11, [R10, R9, LSL #2]
00:00009F88 080000EA        	  2031:  B       0x00009FB0
00:00009F8C 0998A0E1        	  2032:  MOV     R9, R9, LSL #16
00:00009F90 00B0A0E3        	  2033:  MOV     R11, #0
00:00009F94 02A1A0E3        	  2034:  MOV     R10, #0x80000000
00:00009F98 8EE0B0E1        	  2035:  MOVS    R14, R14, LSL #1
00:00009F9C 09005E31        	  2036:  CMPLO   R14, R9
00:00009FA0 09E04E20        	  2037:  SUBHS   R14, R14, R9
00:00009FA4 0AB08B21        	  2038:  ORRHS   R11, R11, R10
00:00009FA8 AAA0B0E1        	  2039:  MOVS    R10, R10, LSR #1
00:00009FAC F9FFFF3A        	  2040:  BLO     0x00009F98
00:00009FB0 020050E1        	  2041:  CMP     R0, R2
00:00009FB4 00B06B42        	  2042:  RSBMI   R11, R11, #0
00:00009FB8 019043E0        	  2043:  SUB     R9, R3, R1
00:00009FBC 24E852E0        	  2044:  SUBS    R14, R2, R4, LSR #16
00:00009FC0 25A85210        	  2045:  SUBNES  R10, R2, R5, LSR #16
00:00009FC4 1200001A        	  2046:  BNE     0x0000A014
00:00009FC8 240852E1        	  2047:  CMP     R2, R4, LSR #16
00:00009FCC 0B60A001        	  2048:  MOVEQ   R6, R11
00:00009FD0 FF4CC403        	  2049:  BICEQ   R4, R4, #0xFF00
00:00009FD4 FF40C403        	  2050:  BICEQ   R4, R4, #0xFF
00:00009FD8 02498403        	  2051:  ORREQ   R4, R4, #0x8000
00:00009FDC 0B70A011        	  2052:  MOVNE   R7, R11
00:00009FE0 FF5CC513        	  2053:  BICNE   R5, R5, #0xFF00
00:00009FE4 FF50C513        	  2054:  BICNE   R5, R5, #0xFF
00:00009FE8 02598513        	  2055:  ORRNE   R5, R5, #0x8000
00:00009FEC 064084E0        	  2056:  ADD     R4, R4, R6
00:00009FF0 075085E0        	  2057:  ADD     R5, R5, R7
00:00009FF4 24B88CE0        	  2058:  ADD     R11, R12, R4, LSR #16
00:00009FF8 25A8A0E1        	  2059:  MOV     R10, R5, LSR #16
00:00009FFC 24A85AE0        	  2060:  SUBS    R10, R10, R4, LSR #16
00:0000A000 3001005B        	  2061:  BLPL    0x0000A4C8
00:0000A004 05CD4CE2        	  2062:  SUB     R12, R12, #0x140
00:0000A008 019059E2        	  2063:  SUBS    R9, R9, #1
00:0000A00C F6FFFF1A        	  2064:  BNE     0x00009FEC
00:0000A010 0080BDE8        	  2065:  LDMIA   R13!, {PC}
00:0000A014 00A06A42        	  2066:  RSBMI   R10, R10, #0
00:0000A018 00005EE3        	  2067:  CMP     R14, #0
00:0000A01C 00E06E42        	  2068:  RSBMI   R14, R14, #0
00:0000A020 0A005EE1        	  2069:  CMP     R14, R10
00:0000A024 0B60A021        	  2070:  MOVHS   R6, R11
00:0000A028 0B70A031        	  2071:  MOVLO   R7, R11
00:0000A02C EEFFFFEA        	  2072:  B       0x00009FEC
00:0000A030 059053E0        	  2073:  SUBS    R9, R3, R5
00:0000A034 0080BD08        	  2074:  LDMEQIA R13!, {PC}
00:0000A038 04E050E0        	  2075:  SUBS    R14, R0, R4
00:0000A03C 04E06040        	  2076:  RSBMI   R14, R0, R4
00:0000A040 40005EE3        	  2077:  CMP     R14, #0x40
00:0000A044 40005933        	  2078:  CMPLO   R9, #0x40
00:0000A048 0300002A        	  2079:  BHS     0x0000A05C
00:0000A04C 1CA31FE5        	  2080:  LDR     R10, 0x00009D38
00:0000A050 0EA48AE0        	  2081:  ADD     R10, R10, R14, LSL #8
00:0000A054 09619AE7        	  2082:  LDR     R6, [R10, R9, LSL #2]
00:0000A058 080000EA        	  2083:  B       0x0000A080
00:0000A05C 0998A0E1        	  2084:  MOV     R9, R9, LSL #16
00:0000A060 0060A0E3        	  2085:  MOV     R6, #0
00:0000A064 02A1A0E3        	  2086:  MOV     R10, #0x80000000
00:0000A068 8EE0B0E1        	  2087:  MOVS    R14, R14, LSL #1
00:0000A06C 09005E31        	  2088:  CMPLO   R14, R9
00:0000A070 09E04E20        	  2089:  SUBHS   R14, R14, R9
00:0000A074 0A608621        	  2090:  ORRHS   R6, R6, R10
00:0000A078 AAA0B0E1        	  2091:  MOVS    R10, R10, LSR #1
00:0000A07C F9FFFF3A        	  2092:  BLO     0x0000A068
00:0000A080 000054E1        	  2093:  CMP     R4, R0
00:0000A084 00606642        	  2094:  RSBMI   R6, R6, #0
00:0000A088 059043E0        	  2095:  SUB     R9, R3, R5
00:0000A08C 04E052E0        	  2096:  SUBS    R14, R2, R4
00:0000A090 04E06240        	  2097:  RSBMI   R14, R2, R4
00:0000A094 40005EE3        	  2098:  CMP     R14, #0x40
00:0000A098 40005933        	  2099:  CMPLO   R9, #0x40
00:0000A09C 0300002A        	  2100:  BHS     0x0000A0B0
00:0000A0A0 70A31FE5        	  2101:  LDR     R10, 0x00009D38
00:0000A0A4 0EA48AE0        	  2102:  ADD     R10, R10, R14, LSL #8
00:0000A0A8 09719AE7        	  2103:  LDR     R7, [R10, R9, LSL #2]
00:0000A0AC 080000EA        	  2104:  B       0x0000A0D4
00:0000A0B0 0998A0E1        	  2105:  MOV     R9, R9, LSL #16
00:0000A0B4 0070A0E3        	  2106:  MOV     R7, #0
00:0000A0B8 02A1A0E3        	  2107:  MOV     R10, #0x80000000
00:0000A0BC 8EE0B0E1        	  2108:  MOVS    R14, R14, LSL #1
00:0000A0C0 09005E31        	  2109:  CMPLO   R14, R9
00:0000A0C4 09E04E20        	  2110:  SUBHS   R14, R14, R9
00:0000A0C8 0A708721        	  2111:  ORRHS   R7, R7, R10
00:0000A0CC AAA0B0E1        	  2112:  MOVS    R10, R10, LSR #1
00:0000A0D0 F9FFFF3A        	  2113:  BLO     0x0000A0BC
00:0000A0D4 020054E1        	  2114:  CMP     R4, R2
00:0000A0D8 00706742        	  2115:  RSBMI   R7, R7, #0
00:0000A0DC 059043E0        	  2116:  SUB     R9, R3, R5
00:0000A0E0 0048A0E1        	  2117:  MOV     R4, R0, LSL #16
00:0000A0E4 0258A0E1        	  2118:  MOV     R5, R2, LSL #16
00:0000A0E8 024984E3        	  2119:  ORR     R4, R4, #0x8000
00:0000A0EC 025985E3        	  2120:  ORR     R5, R5, #0x8000
00:0000A0F0 050054E1        	  2121:  CMP     R4, R5
00:0000A0F4 06E0A021        	  2122:  MOVHS   R14, R6
00:0000A0F8 0760A021        	  2123:  MOVHS   R6, R7
00:0000A0FC 0E70A021        	  2124:  MOVHS   R7, R14
00:0000A100 04E0A021        	  2125:  MOVHS   R14, R4
00:0000A104 0540A021        	  2126:  MOVHS   R4, R5
00:0000A108 0E50A021        	  2127:  MOVHS   R5, R14
00:0000A10C B6FFFFEA        	  2128:  B       0x00009FEC
00:0000A110 EF0051E3        	  2129:  CMP     R1, #0xEF
00:0000A114 EF005323        	  2130:  CMPHS   R3, #0xEF
00:0000A118 EF005523        	  2131:  CMPHS   R5, #0xEF
00:0000A11C 0EF0A021        	  2132:  MOVHS   PC, R14
00:0000A120 050D50E3        	  2133:  CMP     R0, #0x140
00:0000A124 050D5223        	  2134:  CMPHS   R2, #0x140
00:0000A128 050D5423        	  2135:  CMPHS   R4, #0x140
00:0000A12C 0EF0A021        	  2136:  MOVHS   PC, R14
00:0000A130 00402DE9        	  2137:  STMDB   R13!, {R14}
00:0000A134 D0C61FE5        	  2138:  LDR     R12, 0x00009A6C
00:0000A138 030051E1        	  2139:  CMP     R1, R3
00:0000A13C 050000CA        	  2140:  BGT     0x0000A158
00:0000A140 0060A0E1        	  2141:  MOV     R6, R0
00:0000A144 0200A0E1        	  2142:  MOV     R0, R2
00:0000A148 0620A0E1        	  2143:  MOV     R2, R6
00:0000A14C 0160A0E1        	  2144:  MOV     R6, R1
00:0000A150 0310A0E1        	  2145:  MOV     R1, R3
00:0000A154 0630A0E1        	  2146:  MOV     R3, R6
00:0000A158 050051E1        	  2147:  CMP     R1, R5
00:0000A15C 050000CA        	  2148:  BGT     0x0000A178
00:0000A160 0060A0E1        	  2149:  MOV     R6, R0
00:0000A164 0400A0E1        	  2150:  MOV     R0, R4
00:0000A168 0640A0E1        	  2151:  MOV     R4, R6
00:0000A16C 0160A0E1        	  2152:  MOV     R6, R1
00:0000A170 0510A0E1        	  2153:  MOV     R1, R5
00:0000A174 0650A0E1        	  2154:  MOV     R5, R6
00:0000A178 050053E1        	  2155:  CMP     R3, R5
00:0000A17C 050000CA        	  2156:  BGT     0x0000A198
00:0000A180 0260A0E1        	  2157:  MOV     R6, R2
00:0000A184 0420A0E1        	  2158:  MOV     R2, R4
00:0000A188 0640A0E1        	  2159:  MOV     R4, R6
00:0000A18C 0360A0E1        	  2160:  MOV     R6, R3
00:0000A190 0530A0E1        	  2161:  MOV     R3, R5
00:0000A194 0650A0E1        	  2162:  MOV     R5, R6
00:0000A198 01B0A0E1        	  2163:  MOV     R11, R1
00:0000A19C 039051E0        	  2164:  SUBS    R9, R1, R3
00:0000A1A0 6000000A        	  2165:  BEQ     0x0000A328
00:0000A1A4 30002DE9        	  2166:  STMFD   R13!, {R4-R5}
00:0000A1A8 00E052E0        	  2167:  SUBS    R14, R2, R0
00:0000A1AC 00E06240        	  2168:  RSBMI   R14, R2, R0
00:0000A1B0 40005EE3        	  2169:  CMP     R14, #0x40
00:0000A1B4 40005933        	  2170:  CMPLO   R9, #0x40
00:0000A1B8 0300002A        	  2171:  BHS     0x0000A1CC
00:0000A1BC 8CA41FE5        	  2172:  LDR     R10, 0x00009D38
00:0000A1C0 0EA48AE0        	  2173:  ADD     R10, R10, R14, LSL #8
00:0000A1C4 09619AE7        	  2174:  LDR     R6, [R10, R9, LSL #2]
00:0000A1C8 080000EA        	  2175:  B       0x0000A1F0
00:0000A1CC 0998A0E1        	  2176:  MOV     R9, R9, LSL #16
00:0000A1D0 0060A0E3        	  2177:  MOV     R6, #0
00:0000A1D4 02A1A0E3        	  2178:  MOV     R10, #0x80000000
00:0000A1D8 8EE0B0E1        	  2179:  MOVS    R14, R14, LSL #1
00:0000A1DC 09005E31        	  2180:  CMPLO   R14, R9
00:0000A1E0 09E04E20        	  2181:  SUBHS   R14, R14, R9
00:0000A1E4 0A608621        	  2182:  ORRHS   R6, R6, R10
00:0000A1E8 AAA0B0E1        	  2183:  MOVS    R10, R10, LSR #1
00:0000A1EC F9FFFF3A        	  2184:  BLO     0x0000A1D8
00:0000A1F0 000052E1        	  2185:  CMP     R2, R0
00:0000A1F4 00606642        	  2186:  RSBMI   R6, R6, #0
00:0000A1F8 059051E0        	  2187:  SUBS    R9, R1, R5
00:0000A1FC 00E054E0        	  2188:  SUBS    R14, R4, R0
00:0000A200 00E06440        	  2189:  RSBMI   R14, R4, R0
00:0000A204 40005EE3        	  2190:  CMP     R14, #0x40
00:0000A208 40005933        	  2191:  CMPLO   R9, #0x40
00:0000A20C 0300002A        	  2192:  BHS     0x0000A220
00:0000A210 E0A41FE5        	  2193:  LDR     R10, 0x00009D38
00:0000A214 0EA48AE0        	  2194:  ADD     R10, R10, R14, LSL #8
00:0000A218 09719AE7        	  2195:  LDR     R7, [R10, R9, LSL #2]
00:0000A21C 080000EA        	  2196:  B       0x0000A244
00:0000A220 0998A0E1        	  2197:  MOV     R9, R9, LSL #16
00:0000A224 0070A0E3        	  2198:  MOV     R7, #0
00:0000A228 02A1A0E3        	  2199:  MOV     R10, #0x80000000
00:0000A22C 8EE0B0E1        	  2200:  MOVS    R14, R14, LSL #1
00:0000A230 09005E31        	  2201:  CMPLO   R14, R9
00:0000A234 09E04E20        	  2202:  SUBHS   R14, R14, R9
00:0000A238 0A708721        	  2203:  ORRHS   R7, R7, R10
00:0000A23C AAA0B0E1        	  2204:  MOVS    R10, R10, LSR #1
00:0000A240 F9FFFF3A        	  2205:  BLO     0x0000A22C
00:0000A244 000054E1        	  2206:  CMP     R4, R0
00:0000A248 00706742        	  2207:  RSBMI   R7, R7, #0
00:0000A24C 039051E0        	  2208:  SUBS    R9, R1, R3
00:0000A250 0048A0E1        	  2209:  MOV     R4, R0, LSL #16
00:0000A254 024984E3        	  2210:  ORR     R4, R4, #0x8000
00:0000A258 0450A0E1        	  2211:  MOV     R5, R4
00:0000A25C 070056E1        	  2212:  CMP     R6, R7
00:0000A260 06E0A0C1        	  2213:  MOVGT   R14, R6
00:0000A264 0760A0C1        	  2214:  MOVGT   R6, R7
00:0000A268 0E70A0C1        	  2215:  MOVGT   R7, R14
00:0000A26C 650000EB        	  2216:  BL      0x0000A408
00:0000A270 0300BDE8        	  2217:  LDMFD   R13!, {R0-R1}
00:0000A274 019053E0        	  2218:  SUBS    R9, R3, R1
00:0000A278 0080BD08        	  2219:  LDMEQIA R13!, {PC}
00:0000A27C 02E050E0        	  2220:  SUBS    R14, R0, R2
00:0000A280 02E06040        	  2221:  RSBMI   R14, R0, R2
00:0000A284 40005EE3        	  2222:  CMP     R14, #0x40
00:0000A288 40005933        	  2223:  CMPLO   R9, #0x40
00:0000A28C 0300002A        	  2224:  BHS     0x0000A2A0
00:0000A290 60A51FE5        	  2225:  LDR     R10, 0x00009D38
00:0000A294 0EA48AE0        	  2226:  ADD     R10, R10, R14, LSL #8
00:0000A298 09C19AE7        	  2227:  LDR     R12, [R10, R9, LSL #2]
00:0000A29C 080000EA        	  2228:  B       0x0000A2C4
00:0000A2A0 0998A0E1        	  2229:  MOV     R9, R9, LSL #16
00:0000A2A4 00C0A0E3        	  2230:  MOV     R12, #0
00:0000A2A8 02A1A0E3        	  2231:  MOV     R10, #0x80000000
00:0000A2AC 8EE0B0E1        	  2232:  MOVS    R14, R14, LSL #1
00:0000A2B0 09005E31        	  2233:  CMPLO   R14, R9
00:0000A2B4 09E04E20        	  2234:  SUBHS   R14, R14, R9
00:0000A2B8 0AC08C21        	  2235:  ORRHS   R12, R12, R10
00:0000A2BC AAA0B0E1        	  2236:  MOVS    R10, R10, LSR #1
00:0000A2C0 F9FFFF3A        	  2237:  BLO     0x0000A2AC
00:0000A2C4 020050E1        	  2238:  CMP     R0, R2
00:0000A2C8 00C06C42        	  2239:  RSBMI   R12, R12, #0
00:0000A2CC 019043E0        	  2240:  SUB     R9, R3, R1
00:0000A2D0 44E852E0        	  2241:  SUBS    R14, R2, R4, ASR #16
00:0000A2D4 45A85210        	  2242:  SUBNES  R10, R2, R5, ASR #16
00:0000A2D8 0B00001A        	  2243:  BNE     0x0000A30C
00:0000A2DC 440852E1        	  2244:  CMP     R2, R4, ASR #16
00:0000A2E0 0C60A001        	  2245:  MOVEQ   R6, R12
00:0000A2E4 FF4CC403        	  2246:  BICEQ   R4, R4, #0xFF00
00:0000A2E8 FF40C403        	  2247:  BICEQ   R4, R4, #0xFF
00:0000A2EC 02498403        	  2248:  ORREQ   R4, R4, #0x8000
00:0000A2F0 0C70A011        	  2249:  MOVNE   R7, R12
00:0000A2F4 FF5CC513        	  2250:  BICNE   R5, R5, #0xFF00
00:0000A2F8 FF50C513        	  2251:  BICNE   R5, R5, #0xFF
00:0000A2FC 02598513        	  2252:  ORRNE   R5, R5, #0x8000
00:0000A300 9CC81FE5        	  2253:  LDR     R12, 0x00009A6C
00:0000A304 3F0000EB        	  2254:  BL      0x0000A408
00:0000A308 0080BDE8        	  2255:  LDMIA   R13!, {PC}
00:0000A30C 00A06A42        	  2256:  RSBMI   R10, R10, #0
00:0000A310 00005EE3        	  2257:  CMP     R14, #0
00:0000A314 00E06E42        	  2258:  RSBMI   R14, R14, #0
00:0000A318 0A005EE1        	  2259:  CMP     R14, R10
00:0000A31C 0C60A021        	  2260:  MOVHS   R6, R12
00:0000A320 0C70A031        	  2261:  MOVLO   R7, R12
00:0000A324 F5FFFFEA        	  2262:  B       0x0000A300
00:0000A328 059053E0        	  2263:  SUBS    R9, R3, R5
00:0000A32C 0080BD08        	  2264:  LDMEQIA R13!, {PC}
00:0000A330 04E050E0        	  2265:  SUBS    R14, R0, R4
00:0000A334 04E06040        	  2266:  RSBMI   R14, R0, R4
00:0000A338 40005EE3        	  2267:  CMP     R14, #0x40
00:0000A33C 40005933        	  2268:  CMPLO   R9, #0x40
00:0000A340 0300002A        	  2269:  BHS     0x0000A354
00:0000A344 14A61FE5        	  2270:  LDR     R10, 0x00009D38
00:0000A348 0EA48AE0        	  2271:  ADD     R10, R10, R14, LSL #8
00:0000A34C 09619AE7        	  2272:  LDR     R6, [R10, R9, LSL #2]
00:0000A350 080000EA        	  2273:  B       0x0000A378
00:0000A354 0998A0E1        	  2274:  MOV     R9, R9, LSL #16
00:0000A358 0060A0E3        	  2275:  MOV     R6, #0
00:0000A35C 02A1A0E3        	  2276:  MOV     R10, #0x80000000
00:0000A360 8EE0B0E1        	  2277:  MOVS    R14, R14, LSL #1
00:0000A364 09005E31        	  2278:  CMPLO   R14, R9
00:0000A368 09E04E20        	  2279:  SUBHS   R14, R14, R9
00:0000A36C 0A608621        	  2280:  ORRHS   R6, R6, R10
00:0000A370 AAA0B0E1        	  2281:  MOVS    R10, R10, LSR #1
00:0000A374 F9FFFF3A        	  2282:  BLO     0x0000A360
00:0000A378 000054E1        	  2283:  CMP     R4, R0
00:0000A37C 00606642        	  2284:  RSBMI   R6, R6, #0
00:0000A380 059043E0        	  2285:  SUB     R9, R3, R5
00:0000A384 04E052E0        	  2286:  SUBS    R14, R2, R4
00:0000A388 04E06240        	  2287:  RSBMI   R14, R2, R4
00:0000A38C 40005EE3        	  2288:  CMP     R14, #0x40
00:0000A390 40005933        	  2289:  CMPLO   R9, #0x40
00:0000A394 0300002A        	  2290:  BHS     0x0000A3A8
00:0000A398 68A61FE5        	  2291:  LDR     R10, 0x00009D38
00:0000A39C 0EA48AE0        	  2292:  ADD     R10, R10, R14, LSL #8
00:0000A3A0 09719AE7        	  2293:  LDR     R7, [R10, R9, LSL #2]
00:0000A3A4 080000EA        	  2294:  B       0x0000A3CC
00:0000A3A8 0998A0E1        	  2295:  MOV     R9, R9, LSL #16
00:0000A3AC 0070A0E3        	  2296:  MOV     R7, #0
00:0000A3B0 02A1A0E3        	  2297:  MOV     R10, #0x80000000
00:0000A3B4 8EE0B0E1        	  2298:  MOVS    R14, R14, LSL #1
00:0000A3B8 09005E31        	  2299:  CMPLO   R14, R9
00:0000A3BC 09E04E20        	  2300:  SUBHS   R14, R14, R9
00:0000A3C0 0A708721        	  2301:  ORRHS   R7, R7, R10
00:0000A3C4 AAA0B0E1        	  2302:  MOVS    R10, R10, LSR #1
00:0000A3C8 F9FFFF3A        	  2303:  BLO     0x0000A3B4
00:0000A3CC 020054E1        	  2304:  CMP     R4, R2
00:0000A3D0 00706742        	  2305:  RSBMI   R7, R7, #0
00:0000A3D4 059043E0        	  2306:  SUB     R9, R3, R5
00:0000A3D8 0048A0E1        	  2307:  MOV     R4, R0, LSL #16
00:0000A3DC 0258A0E1        	  2308:  MOV     R5, R2, LSL #16
00:0000A3E0 024984E3        	  2309:  ORR     R4, R4, #0x8000
00:0000A3E4 025985E3        	  2310:  ORR     R5, R5, #0x8000
00:0000A3E8 050054E1        	  2311:  CMP     R4, R5
00:0000A3EC 06E0A0C1        	  2312:  MOVGT   R14, R6
00:0000A3F0 0760A0C1        	  2313:  MOVGT   R6, R7
00:0000A3F4 0E70A0C1        	  2314:  MOVGT   R7, R14
00:0000A3F8 04E0A0C1        	  2315:  MOVGT   R14, R4
00:0000A3FC 0540A0C1        	  2316:  MOVGT   R4, R5
00:0000A400 0E50A0C1        	  2317:  MOVGT   R5, R14
00:0000A404 BDFFFFEA        	  2318:  B       0x0000A300
00:0000A408 010C59E3        	  2319:  CMP     R9, #0x100
00:0000A40C 0EF0A021        	  2320:  MOVHS   PC, R14
00:0000A410 00402DE9        	  2321:  STMDB   R13!, {R14}
00:0000A414 064084E0        	  2322:  ADD     R4, R4, R6
00:0000A418 075085E0        	  2323:  ADD     R5, R5, R7
00:0000A41C 00005BE3        	  2324:  CMP     R11, #0
00:0000A420 0080BD48        	  2325:  LDMMIIA R13!, {PC}
00:0000A424 EF005BE3        	  2326:  CMP     R11, #0xEF
00:0000A428 1000002A        	  2327:  BHS     0x0000A470
00:0000A42C 00082DE9        	  2328:  STMDB   R13!, {R11}
00:0000A430 0BB18BE0        	  2329:  ADD     R11, R11, R11, LSL #2
00:0000A434 0BB38CE0        	  2330:  ADD     R11, R12, R11, LSL #6
00:0000A438 050554E3        	  2331:  CMP     R4, #0x1400000
00:0000A43C 0A00005A        	  2332:  BPL     0x0000A46C
00:0000A440 000055E3        	  2333:  CMP     R5, #0
00:0000A444 0800004A        	  2334:  BMI     0x0000A46C
00:0000A448 000054E3        	  2335:  CMP     R4, #0
00:0000A44C 2408A051        	  2336:  MOVPL   R0, R4, LSR #16
00:0000A450 24B88B50        	  2337:  ADDPL   R11, R11, R4, LSR #16
00:0000A454 0000A043        	  2338:  MOVMI   R0, #0
00:0000A458 050555E3        	  2339:  CMP     R5, #0x1400000
00:0000A45C 25A86030        	  2340:  RSBLO   R10, R0, R5, LSR #16
00:0000A460 05AD6022        	  2341:  RSBHS   R10, R0, #0x140
00:0000A464 00005AE3        	  2342:  CMP     R10, #0
00:0000A468 1600005B        	  2343:  BLPL    0x0000A4C8
00:0000A46C 0008BDE8        	  2344:  LDMIA   R13!, {R11}
00:0000A470 01B04BE2        	  2345:  SUB     R11, R11, #1
00:0000A474 019059E2        	  2346:  SUBS    R9, R9, #1
00:0000A478 E5FFFF1A        	  2347:  BNE     0x0000A414
00:0000A47C 0080BDE8        	  2348:  LDMIA   R13!, {PC}
                            	  2349: 
00:0000A480 68A50000        	  2350: .long 0x0000A568
00:0000A484 64A50000        	  2351: .long 0x0000A564
00:0000A488 60A50000        	  2352: .long 0x0000A560
00:0000A48C 5CA50000        	  2353: .long 0x0000A55C
00:0000A490 58A50000        	  2354: .long 0x0000A558
00:0000A494 54A50000        	  2355: .long 0x0000A554
00:0000A498 50A50000        	  2356: .long 0x0000A550
00:0000A49C 4CA50000        	  2357: .long 0x0000A54C
00:0000A4A0 48A50000        	  2358: .long 0x0000A548
00:0000A4A4 44A50000        	  2359: .long 0x0000A544
00:0000A4A8 40A50000        	  2360: .long 0x0000A540
00:0000A4AC 3CA50000        	  2361: .long 0x0000A53C
00:0000A4B0 38A50000        	  2362: .long 0x0000A538
00:0000A4B4 34A50000        	  2363: .long 0x0000A534
00:0000A4B8 30A50000        	  2364: .long 0x0000A530
00:0000A4BC 2CA50000        	  2365: .long 0x0000A52C
00:0000A4C0 28A50000        	  2366: .long 0x0000A528
00:0000A4C4 24A50000        	  2367: .long 0x0000A524
                            	  2368: 
00:0000A4C8 12005AE3        	  2369:  CMP     R10, #0x12
00:0000A4CC 0A018F30        	  2370:  ADDLO   R0, PC, R10, LSL #2
00:0000A4D0 54F01035        	  2371:  LDRLO   PC, [R0, #-0x54]
00:0000A4D4 0AA08BE0        	  2372:  ADD     R10, R11, R10
00:0000A4D8 0300CAE3        	  2373:  BIC     R0, R10, #3
00:0000A4DC 03001BE3        	  2374:  TST     R11, #3
00:0000A4E0 0180CB14        	  2375:  STRNEB  R8, [R11], #1
00:0000A4E4 03001B13        	  2376:  TSTNE   R11, #3
00:0000A4E8 0180CB14        	  2377:  STRNEB  R8, [R11], #1
00:0000A4EC 03001B13        	  2378:  TSTNE   R11, #3
00:0000A4F0 0180CB14        	  2379:  STRNEB  R8, [R11], #1
00:0000A4F4 04808BE4        	  2380:  STR     R8, [R11], #4
00:0000A4F8 00005BE1        	  2381:  CMP     R11, R0
00:0000A4FC 04808B34        	  2382:  STRLO   R8, [R11], #4
00:0000A500 00005B31        	  2383:  CMPLO   R11, R0
00:0000A504 FAFFFF3A        	  2384:  BLO     0x0000A4F4
00:0000A508 0A005BE1        	  2385:  CMP     R11, R10
00:0000A50C 0180CB34        	  2386:  STRLOB  R8, [R11], #1
00:0000A510 0A005B31        	  2387:  CMPLO   R11, R10
00:0000A514 0180CB34        	  2388:  STRLOB  R8, [R11], #1
00:0000A518 0A005B31        	  2389:  CMPLO   R11, R10
00:0000A51C 0180CB34        	  2390:  STRLOB  R8, [R11], #1
00:0000A520 0EF0A0E1        	  2391:  MOV     PC, R14
00:0000A524 1080CBE5        	  2392:  STRB    R8, [R11, #0x10]
00:0000A528 0F80CBE5        	  2393:  STRB    R8, [R11, #0xF]
00:0000A52C 0E80CBE5        	  2394:  STRB    R8, [R11, #0xE]
00:0000A530 0D80CBE5        	  2395:  STRB    R8, [R11, #0xD]
00:0000A534 0C80CBE5        	  2396:  STRB    R8, [R11, #0xC]
00:0000A538 0B80CBE5        	  2397:  STRB    R8, [R11, #0xB]
00:0000A53C 0A80CBE5        	  2398:  STRB    R8, [R11, #0xA]
00:0000A540 0980CBE5        	  2399:  STRB    R8, [R11, #9]
00:0000A544 0880CBE5        	  2400:  STRB    R8, [R11, #8]
00:0000A548 0780CBE5        	  2401:  STRB    R8, [R11, #7]
00:0000A54C 0680CBE5        	  2402:  STRB    R8, [R11, #6]
00:0000A550 0580CBE5        	  2403:  STRB    R8, [R11, #5]
00:0000A554 0480CBE5        	  2404:  STRB    R8, [R11, #4]
00:0000A558 0380CBE5        	  2405:  STRB    R8, [R11, #3]
00:0000A55C 0280CBE5        	  2406:  STRB    R8, [R11, #2]
00:0000A560 0180CBE5        	  2407:  STRB    R8, [R11, #1]
00:0000A564 0080CBE5        	  2408:  STRB    R8, [R11]
00:0000A568 0EF0A0E1        	  2409:  MOV     PC, R14
                            	  2410: 
00:0000A56C 00220100        	  2411: .long 0x00012200
00:0000A570 FC210100        	  2412: .long 0x000121FC
00:0000A574 00000000        	  2413: .long 0x00000000
00:0000A578 F4010000        	  2414: .long 0x000001F4
00:0000A57C F4010000        	  2415: .long 0x000001F4
00:0000A580 550D0000        	  2416: .long 0x00000D55
00:0000A584 00000000        	  2417: .long 0x00000000
00:0000A588 03FF01FF        	  2418: .long 0xFF01FF03
00:0000A58C 01000000        	  2419: .long 0x00000001
00:0000A590 88A50000        	  2420: .long 0x0000A588
                            	  2421: 
00:0000A594 0C101FE5        	  2422:  LDR     R1, 0x0000A590
00:0000A598 1500A0E3        	  2423:  MOV     R0, #0x15
00:0000A59C 070000EF        	  2424:  SWI     0x7
00:0000A5A0 0EF0A0E1        	  2425:  MOV     PC, R14
00:0000A5A4 0010C0E5        	  2426:  STRB    R1, [R0]
00:0000A5A8 010000EF        	  2427:  SWI     OS_WriteS
                            	  2428: 
00:0000A5AC 5468657265206973	  2429: .byte "There is not enough memory to run this game."
00:0000A5B4 206E6F7420656E6F
00:0000A5BC 756768206D656D6F
00:0000A5C4 727920746F207275
00:0000A5CC 6E20746869732067
00:0000A5D4 616D652E
00:0000A5D8 0A0D            	  2430: .word 0x0D0A
00:0000A5DA 506C65617365202A	  2431: .byte "Please *CONFIGURE your machine to free more memory."
00:0000A5E2 434F4E4649475552
00:0000A5EA 4520796F7572206D
00:0000A5F2 616368696E652074
00:0000A5FA 6F2066726565206D
00:0000A602 6F7265206D656D6F
00:0000A60A 72792E
00:0000A60D 00              	  2432: .byte 0
                            	  2433: .balign 4
                            	  2434: 
00:0000A610 AF0000EA        	  2435:  B       0x0000A8D4
                            	  2436: 
                            	  2437: Entry:
                            	  2438: 
00:0000A614 1600A0E3        	  2439:  MOV     R0, #0x16
00:0000A618 000000EF        	  2440:  SWI     0x0
00:0000A61C 0F00A0E3        	  2441:  MOV     R0, #0xF
00:0000A620 000000EF        	  2442:  SWI     0x0
00:0000A624 A8D00FE5        	  2443:  STR     R13, 0x0000A584
00:0000A628 C0D01FE5        	  2444:  LDR     R13, 0x0000A570
00:0000A62C C8B01FE5        	  2445:  LDR     R11, 0x0000A56C
00:0000A630 00402DE9        	  2446:  STMDB   R13!, {R14}
00:0000A634 C8001FE5        	  2447:  LDR     R0, 0x0000A574
00:0000A638 0010D0E5        	  2448:  LDRB    R1, [R0]
00:0000A63C AA20A0E3        	  2449:  MOV     R2, #0xAA
00:0000A640 0020C0E5        	  2450:  STRB    R2, [R0]
00:0000A644 0030D0E5        	  2451:  LDRB    R3, [R0]
00:0000A648 030052E1        	  2452:  CMP     R2, R3
00:0000A64C D4FFFF1A        	  2453:  BNE     0x0000A5A4
00:0000A650 5520A0E3        	  2454:  MOV     R2, #0x55
00:0000A654 0020C0E5        	  2455:  STRB    R2, [R0]
00:0000A658 0030D0E5        	  2456:  LDRB    R3, [R0]
00:0000A65C 030052E1        	  2457:  CMP     R2, R3
00:0000A660 CFFFFF1A        	  2458:  BNE     0x0000A5A4
00:0000A664 0010C0E5        	  2459:  STRB    R1, [R0]
00:0000A668 0400A0E3        	  2460:  MOV     R0, #4
00:0000A66C 0110A0E3        	  2461:  MOV     R1, #1
00:0000A670 0020A0E3        	  2462:  MOV     R2, #0
00:0000A674 060000EF        	  2463:  SWI     0x6
00:0000A678 1DF9FFEB        	  2464:  BL      0x00008AF4
00:0000A67C 1600A0E3        	  2465:  MOV     R0, #0x16
00:0000A680 000000EF        	  2466:  SWI     0x0
00:0000A684 0D00A0E3        	  2467:  MOV     R0, #0xD
00:0000A688 000000EF        	  2468:  SWI     0x0
00:0000A68C 010000EF        	  2469:  SWI     OS_WriteS
                            	  2470: 
00:0000A690 4C616E6465722044	  2471: .byte "Lander Demo/Practice (C) D.J.Braben 1987"
00:0000A698 656D6F2F50726163
00:0000A6A0 7469636520284329
00:0000A6A8 20442E4A2E427261
00:0000A6B0 62656E2031393837
00:0000A6B8 00              	  2472: .byte 0
                            	  2473: .balign 4
                            	  2474: 
00:0000A6BC 9EFDFFEB        	  2475:  BL      0x00009D3C
00:0000A6C0 1600A0E3        	  2476:  MOV     R0, #0x16
00:0000A6C4 000000EF        	  2477:  SWI     0x0
00:0000A6C8 8D00A0E3        	  2478:  MOV     R0, #0x8D
00:0000A6CC 000000EF        	  2479:  SWI     0x0
00:0000A6D0 1700A0E3        	  2480:  MOV     R0, #0x17
00:0000A6D4 000000EF        	  2481:  SWI     0x0
00:0000A6D8 0100A0E3        	  2482:  MOV     R0, #1
00:0000A6DC 000000EF        	  2483:  SWI     0x0
00:0000A6E0 0880A0E3        	  2484:  MOV     R8, #8
00:0000A6E4 0000A0E3        	  2485:  MOV     R0, #0
00:0000A6E8 000000EF        	  2486:  SWI     0x0
00:0000A6EC 018058E2        	  2487:  SUBS    R8, R8, #1
00:0000A6F0 FBFFFF1A        	  2488:  BNE     0x0000A6E4
00:0000A6F4 010000EF        	  2489:  SWI     OS_WriteS
                            	  2490: 
00:0000A6F8 4C616E6465722044	  2491: .byte "Lander Demo/Practice (C) D.J.Braben 1987"
00:0000A700 656D6F2F50726163
00:0000A708 7469636520284329
00:0000A710 20442E4A2E427261
00:0000A718 62656E2031393837
00:0000A720 00              	  2492: .byte 0
                            	  2493: .balign 4
                            	  2494: 
00:0000A724 B4011FE5        	  2495:  LDR     R0, 0x0000A578
00:0000A728 24018BE5        	  2496:  STR     R0, [R11, #0x124]
00:0000A72C B8011FE5        	  2497:  LDR     R0, 0x0000A57C
00:0000A730 38018BE5        	  2498:  STR     R0, [R11, #0x138]
00:0000A734 38019BE5        	  2499:  LDR     R0, [R11, #0x138]
00:0000A738 24119BE5        	  2500:  LDR     R1, [R11, #0x124]
00:0000A73C 000051E1        	  2501:  CMP     R1, R0
00:0000A740 0100A051        	  2502:  MOVPL   R0, R1
00:0000A744 38018B25        	  2503:  STRHS   R0, [R11, #0x138]
00:0000A748 2310A0E3        	  2504:  MOV     R1, #0x23
00:0000A74C 0120A0E3        	  2505:  MOV     R2, #1
00:0000A750 82FAFFEB        	  2506:  BL      0x00009160
00:0000A754 E4011FE5        	  2507:  LDR     R0, 0x0000A578
00:0000A758 24018BE5        	  2508:  STR     R0, [R11, #0x124]
00:0000A75C E4011FE5        	  2509:  LDR     R0, 0x0000A580
00:0000A760 28018BE5        	  2510:  STR     R0, [R11, #0x128]
00:0000A764 0308A0E3        	  2511:  MOV     R0, #0x30000
00:0000A768 2C018BE5        	  2512:  STR     R0, [R11, #0x12C]
00:0000A76C 0300A0E3        	  2513:  MOV     R0, #3
00:0000A770 34018BE5        	  2514:  STR     R0, [R11, #0x134]
00:0000A774 0000E0E3        	  2515:  MVN     R0, #0
00:0000A778 0010E0E3        	  2516:  MVN     R1, #0
00:0000A77C 0020E0E3        	  2517:  MVN     R2, #0
00:0000A780 0030E0E3        	  2518:  MVN     R3, #0
00:0000A784 0148A0E3        	  2519:  MOV     R4, #0x10000
00:0000A788 116B8BE2        	  2520:  ADD     R6, R11, #0x4400
00:0000A78C 0F00A6E8        	  2521:  STMIA   R6!, {R0-R3}
00:0000A790 104054E2        	  2522:  SUBS    R4, R4, #0x10
00:0000A794 FCFFFF1A        	  2523:  BNE     0x0000A78C
00:0000A798 116B8BE2        	  2524:  ADD     R6, R11, #0x4400
00:0000A79C 025BA0E3        	  2525:  MOV     R5, #0x800
00:0000A7A0 A6FCFFEB        	  2526:  BL      0x00009A40
00:0000A7A4 0080A0E1        	  2527:  MOV     R8, R0
00:0000A7A8 0094A0E1        	  2528:  MOV     R9, R0, LSL #8
00:0000A7AC 01002DE9        	  2529:  STMDB   R13!, {R0}
00:0000A7B0 8FF6FFEB        	  2530:  BL      0x000081F4
00:0000A7B4 00E0A0E1        	  2531:  MOV     R14, R0
00:0000A7B8 0100BDE8        	  2532:  LDMIA   R13!, {R0}
00:0000A7BC 55065EE3        	  2533:  CMP     R14, #0x5500000
00:0000A7C0 35065E13        	  2534:  CMPNE   R14, #0x3500000
00:0000A7C4 0500000A        	  2535:  BEQ     0x0000A7E0
00:0000A7C8 070000E2        	  2536:  AND     R0, R0, #7
00:0000A7CC 010080E2        	  2537:  ADD     R0, R0, #1
00:0000A7D0 FF9409E2        	  2538:  AND     R9, R9, #0xFF000000
00:0000A7D4 28EC86E0        	  2539:  ADD     R14, R6, R8, LSR #24
00:0000A7D8 29E88EE0        	  2540:  ADD     R14, R14, R9, LSR #16
00:0000A7DC 0000CEE5        	  2541:  STRB    R0, [R14]
00:0000A7E0 015055E2        	  2542:  SUBS    R5, R5, #1
00:0000A7E4 EDFFFF5A        	  2543:  BPL     0x0000A7A0
00:0000A7E8 0900A0E3        	  2544:  MOV     R0, #9
00:0000A7EC 0701C6E5        	  2545:  STRB    R0, [R6, #0x107]
00:0000A7F0 0703C6E5        	  2546:  STRB    R0, [R6, #0x307]
00:0000A7F4 0705C6E5        	  2547:  STRB    R0, [R6, #0x507]
00:0000A7F8 34019BE5        	  2548:  LDR     R0, [R11, #0x134]
00:0000A7FC 1E10A0E3        	  2549:  MOV     R1, #0x1E
00:0000A800 0120A0E3        	  2550:  MOV     R2, #1
00:0000A804 55FAFFEB        	  2551:  BL      0x00009160
00:0000A808 0000E0E3        	  2552:  MVN     R0, #0
00:0000A80C 30018BE5        	  2553:  STR     R0, [R11, #0x130]
00:0000A810 0000A0E3        	  2554:  MOV     R0, #0
00:0000A814 3C018BE5        	  2555:  STR     R0, [R11, #0x13C]
00:0000A818 44018BE5        	  2556:  STR     R0, [R11, #0x144]
00:0000A81C 54018BE5        	  2557:  STR     R0, [R11, #0x154]
00:0000A820 0100A0E3        	  2558:  MOV     R0, #1
00:0000A824 58018BE5        	  2559:  STR     R0, [R11, #0x158]
00:0000A828 0103A0E3        	  2560:  MOV     R0, #0x4000000
00:0000A82C 0020A0E1        	  2561:  MOV     R2, R0
00:0000A830 94308BE2        	  2562:  ADD     R3, R11, #0x94
00:0000A834 BB17A0E3        	  2563:  MOV     R1, #0x2EC0000
00:0000A838 0700A3E8        	  2564:  STMIA   R3!, {R0-R2}
00:0000A83C 0000A0E3        	  2565:  MOV     R0, #0
00:0000A840 0010A0E3        	  2566:  MOV     R1, #0
00:0000A844 0020A0E3        	  2567:  MOV     R2, #0
00:0000A848 0700A3E8        	  2568:  STMIA   R3!, {R0-R2}
00:0000A84C 50FFFFEB        	  2569:  BL      0x0000A594
00:0000A850 8100A0E3        	  2570:  MOV     R0, #0x81
00:0000A854 0010A0E3        	  2571:  MOV     R1, #0
00:0000A858 0020A0E3        	  2572:  MOV     R2, #0
00:0000A85C 060000EF        	  2573:  SWI     0x6
00:0000A860 1B0032E3        	  2574:  TEQ     R2, #0x1B
00:0000A864 1000000A        	  2575:  BEQ     0x0000A8AC
00:0000A868 CAF6FFEB        	  2576:  BL      0x00008398
00:0000A86C 18019BE5        	  2577:  LDR     R0, [R11, #0x118]
00:0000A870 000CA0E1        	  2578:  MOV     R0, R0, LSL #24
00:0000A874 8010A0E1        	  2579:  MOV     R1, R0, LSL #1
00:0000A878 D9FAFFEB        	  2580:  BL      0x000093E4
00:0000A87C 2FF9FFEB        	  2581:  BL      0x00008D40
00:0000A880 DBF7FFEB        	  2582:  BL      0x000087F4
00:0000A884 54F9FFEB        	  2583:  BL      0x00008DDC
00:0000A888 1BFDFFEB        	  2584:  BL      0x00009CFC
00:0000A88C FEF5FFEB        	  2585:  BL      0x0000808C
00:0000A890 1CFAFFEB        	  2586:  BL      0x00009108
00:0000A894 58FAFFEB        	  2587:  BL      0x000091FC
00:0000A898 27FDFFEB        	  2588:  BL      0x00009D3C
00:0000A89C 18E19BE5        	  2589:  LDR     R14, [R11, #0x118]
00:0000A8A0 01E08EE2        	  2590:  ADD     R14, R14, #1
00:0000A8A4 18E18BE5        	  2591:  STR     R14, [R11, #0x118]
00:0000A8A8 E8FFFFEA        	  2592:  B       0x0000A850
00:0000A8AC 7E00A0E3        	  2593:  MOV     R0, #0x7E
00:0000A8B0 060000EF        	  2594:  SWI     0x6
00:0000A8B4 1600A0E3        	  2595:  MOV     R0, #0x16
00:0000A8B8 000000EF        	  2596:  SWI     0x0
00:0000A8BC 0000A0E3        	  2597:  MOV     R0, #0
00:0000A8C0 000000EF        	  2598:  SWI     0x0
00:0000A8C4 0400A0E3        	  2599:  MOV     R0, #4
00:0000A8C8 0010A0E3        	  2600:  MOV     R1, #0
00:0000A8CC 0020A0E3        	  2601:  MOV     R2, #0
00:0000A8D0 060000EF        	  2602:  SWI     0x6
00:0000A8D4 0040BDE8        	  2603:  LDMIA   R13!, {R14}
00:0000A8D8 5CD31FE5        	  2604:  LDR     R13, 0x0000A584
00:0000A8DC 0EF0A0E1        	  2605:  MOV     PC, R14
00:0000A8E0 1E00A0E3        	  2606:  MOV     R0, #0x1E
00:0000A8E4 000000EF        	  2607:  SWI     0x0
00:0000A8E8 0A00A0E3        	  2608:  MOV     R0, #0xA
00:0000A8EC 000000EF        	  2609:  SWI     0x0
00:0000A8F0 FF5F2DE9        	  2610:  STMFD   R13!, {R0-R12, R14}
00:0000A8F4 210EA0E1        	  2611:  MOV     R0, R1, LSR #28
00:0000A8F8 120000EB        	  2612:  BL      0x0000A948
00:0000A8FC 210CA0E1        	  2613:  MOV     R0, R1, LSR #24
00:0000A900 100000EB        	  2614:  BL      0x0000A948
00:0000A904 210AA0E1        	  2615:  MOV     R0, R1, LSR #20
00:0000A908 0E0000EB        	  2616:  BL      0x0000A948
00:0000A90C 2108A0E1        	  2617:  MOV     R0, R1, LSR #16
00:0000A910 0C0000EB        	  2618:  BL      0x0000A948
00:0000A914 2106A0E1        	  2619:  MOV     R0, R1, LSR #12
00:0000A918 0A0000EB        	  2620:  BL      0x0000A948
00:0000A91C 2104A0E1        	  2621:  MOV     R0, R1, LSR #8
00:0000A920 080000EB        	  2622:  BL      0x0000A948
00:0000A924 2102A0E1        	  2623:  MOV     R0, R1, LSR #4
00:0000A928 060000EB        	  2624:  BL      0x0000A948
00:0000A92C 0100A0E1        	  2625:  MOV     R0, R1
00:0000A930 040000EB        	  2626:  BL      0x0000A948
00:0000A934 0A00A0E3        	  2627:  MOV     R0, #0xA
00:0000A938 000000EF        	  2628:  SWI     0x0
00:0000A93C 0D00A0E3        	  2629:  MOV     R0, #0xD
00:0000A940 000000EF        	  2630:  SWI     0x0
00:0000A944 FF9FBDE8        	  2631:  LDMFD   R13!, {R0-R12, PC}
00:0000A948 0F0000E2        	  2632:  AND     R0, R0, #0xF
00:0000A94C 0A0050E3        	  2633:  CMP     R0, #0xA
00:0000A950 37008022        	  2634:  ADDHS   R0, R0, #0x37
00:0000A954 30008032        	  2635:  ADDLO   R0, R0, #0x30
00:0000A958 000000EF        	  2636:  SWI     0x0
00:0000A95C 0EF0A0E1        	  2637:  MOV     PC, R14
                            	  2638: 
00:0000A960 06000000        	  2639: .long 0x00000006
00:0000A964 08000000        	  2640: .long 0x00000008
00:0000A968 58000000        	  2641: .long 0x00000058
00:0000A96C 03000000        	  2642: .long 0x00000003
00:0000A970 00000000        	  2643: .long 0x00000000
00:0000A974 00000000        	  2644: .long 0x00000000
00:0000A978 0000A000        	  2645: .long 0x00A00000
00:0000A97C 0000A000        	  2646: .long 0x00A00000
00:0000A980 0000A000        	  2647: .long 0x00A00000
00:0000A984 00000000        	  2648: .long 0x00000000
00:0000A988 000060FF        	  2649: .long 0xFF600000
00:0000A98C 0000A000        	  2650: .long 0x00A00000
00:0000A990 00000000        	  2651: .long 0x00000000
00:0000A994 0000A000        	  2652: .long 0x00A00000
00:0000A998 000060FF        	  2653: .long 0xFF600000
00:0000A99C 00000000        	  2654: .long 0x00000000
00:0000A9A0 000060FF        	  2655: .long 0xFF600000
00:0000A9A4 000060FF        	  2656: .long 0xFF600000
00:0000A9A8 00000000        	  2657: .long 0x00000000
00:0000A9AC 00000000        	  2658: .long 0x00000000
00:0000A9B0 00000000        	  2659: .long 0x00000000
00:0000A9B4 000060FF        	  2660: .long 0xFF600000
00:0000A9B8 00000000        	  2661: .long 0x00000000
00:0000A9BC 0052DA54        	  2662: .long 0x54DA5200
00:0000A9C0 0052DA54        	  2663: .long 0x54DA5200
00:0000A9C4 00000000        	  2664: .long 0x00000000
00:0000A9C8 01000000        	  2665: .long 0x00000001
00:0000A9CC 02000000        	  2666: .long 0x00000002
00:0000A9D0 44040000        	  2667: .long 0x00000444
00:0000A9D4 0052DA54        	  2668: .long 0x54DA5200
00:0000A9D8 00000000        	  2669: .long 0x00000000
00:0000A9DC 0052DA54        	  2670: .long 0x54DA5200
00:0000A9E0 00000000        	  2671: .long 0x00000000
00:0000A9E4 03000000        	  2672: .long 0x00000003
00:0000A9E8 01000000        	  2673: .long 0x00000001
00:0000A9EC 44040000        	  2674: .long 0x00000444
00:0000A9F0 00000000        	  2675: .long 0x00000000
00:0000A9F4 00AE25AB        	  2676: .long 0xAB25AE00
00:0000A9F8 0052DA54        	  2677: .long 0x54DA5200
00:0000A9FC 00000000        	  2678: .long 0x00000000
00:0000AA00 04000000        	  2679: .long 0x00000004
00:0000AA04 03000000        	  2680: .long 0x00000003
00:0000AA08 44040000        	  2681: .long 0x00000444
00:0000AA0C 00AE25AB        	  2682: .long 0xAB25AE00
00:0000AA10 00000000        	  2683: .long 0x00000000
00:0000AA14 0052DA54        	  2684: .long 0x54DA5200
00:0000AA18 00000000        	  2685: .long 0x00000000
00:0000AA1C 02000000        	  2686: .long 0x00000002
00:0000AA20 04000000        	  2687: .long 0x00000004
00:0000AA24 44040000        	  2688: .long 0x00000444
00:0000AA28 00000000        	  2689: .long 0x00000000
00:0000AA2C 0052DA54        	  2690: .long 0x54DA5200
00:0000AA30 00AE25AB        	  2691: .long 0xAB25AE00
00:0000AA34 05000000        	  2692: .long 0x00000005
00:0000AA38 01000000        	  2693: .long 0x00000001
00:0000AA3C 02000000        	  2694: .long 0x00000002
00:0000AA40 44040000        	  2695: .long 0x00000444
00:0000AA44 0052DA54        	  2696: .long 0x54DA5200
00:0000AA48 00000000        	  2697: .long 0x00000000
00:0000AA4C 00AE25AB        	  2698: .long 0xAB25AE00
00:0000AA50 05000000        	  2699: .long 0x00000005
00:0000AA54 03000000        	  2700: .long 0x00000003
00:0000AA58 01000000        	  2701: .long 0x00000001
00:0000AA5C 44040000        	  2702: .long 0x00000444
00:0000AA60 00000000        	  2703: .long 0x00000000
00:0000AA64 00AE25AB        	  2704: .long 0xAB25AE00
00:0000AA68 00AE25AB        	  2705: .long 0xAB25AE00
00:0000AA6C 05000000        	  2706: .long 0x00000005
00:0000AA70 04000000        	  2707: .long 0x00000004
00:0000AA74 03000000        	  2708: .long 0x00000003
00:0000AA78 44040000        	  2709: .long 0x00000444
00:0000AA7C 00AE25AB        	  2710: .long 0xAB25AE00
00:0000AA80 00000000        	  2711: .long 0x00000000
00:0000AA84 00AE25AB        	  2712: .long 0xAB25AE00
00:0000AA88 05000000        	  2713: .long 0x00000005
00:0000AA8C 02000000        	  2714: .long 0x00000002
00:0000AA90 04000000        	  2715: .long 0x00000004
00:0000AA94 44040000        	  2716: .long 0x00000444
00:0000AA98 05000000        	  2717: .long 0x00000005
00:0000AA9C 06000000        	  2718: .long 0x00000006
00:0000AAA0 4C000000        	  2719: .long 0x0000004C
00:0000AAA4 01000000        	  2720: .long 0x00000001
00:0000AAA8 00000000        	  2721: .long 0x00000000
00:0000AAAC 00000001        	  2722: .long 0x01000000
00:0000AAB0 00000000        	  2723: .long 0x00000000
00:0000AAB4 0000C000        	  2724: .long 0x00C00000
00:0000AAB8 000080FF        	  2725: .long 0xFF800000
00:0000AABC 0000C000        	  2726: .long 0x00C00000
00:0000AAC0 000040FF        	  2727: .long 0xFF400000
00:0000AAC4 000080FF        	  2728: .long 0xFF800000
00:0000AAC8 0000C000        	  2729: .long 0x00C00000
00:0000AACC 0000C000        	  2730: .long 0x00C00000
00:0000AAD0 000080FF        	  2731: .long 0xFF800000
00:0000AAD4 000040FF        	  2732: .long 0xFF400000
00:0000AAD8 000040FF        	  2733: .long 0xFF400000
00:0000AADC 000080FF        	  2734: .long 0xFF800000
00:0000AAE0 000040FF        	  2735: .long 0xFF400000
00:0000AAE4 00000000        	  2736: .long 0x00000000
00:0000AAE8 D266AA35        	  2737: .long 0x35AA66D2
00:0000AAEC A5CD546B        	  2738: .long 0x6B54CDA5
00:0000AAF0 00000000        	  2739: .long 0x00000000
00:0000AAF4 01000000        	  2740: .long 0x00000001
00:0000AAF8 02000000        	  2741: .long 0x00000002
00:0000AAFC 00080000        	  2742: .long 0x00000800
00:0000AB00 A5CD546B        	  2743: .long 0x6B54CDA5
00:0000AB04 D266AA35        	  2744: .long 0x35AA66D2
00:0000AB08 00000000        	  2745: .long 0x00000000
00:0000AB0C 00000000        	  2746: .long 0x00000000
00:0000AB10 03000000        	  2747: .long 0x00000003
00:0000AB14 01000000        	  2748: .long 0x00000001
00:0000AB18 88000000        	  2749: .long 0x00000088
00:0000AB1C 00000000        	  2750: .long 0x00000000
00:0000AB20 D266AA35        	  2751: .long 0x35AA66D2
00:0000AB24 5B32AB94        	  2752: .long 0x94AB325B
00:0000AB28 00000000        	  2753: .long 0x00000000
00:0000AB2C 04000000        	  2754: .long 0x00000004
00:0000AB30 03000000        	  2755: .long 0x00000003
00:0000AB34 80080000        	  2756: .long 0x00000880
00:0000AB38 5B32AB94        	  2757: .long 0x94AB325B
00:0000AB3C D266AA35        	  2758: .long 0x35AA66D2
00:0000AB40 00000000        	  2759: .long 0x00000000
00:0000AB44 00000000        	  2760: .long 0x00000000
00:0000AB48 02000000        	  2761: .long 0x00000002
00:0000AB4C 04000000        	  2762: .long 0x00000004
00:0000AB50 08080000        	  2763: .long 0x00000808
00:0000AB54 00000000        	  2764: .long 0x00000000
00:0000AB58 00000088        	  2765: .long 0x88000000
00:0000AB5C 00000000        	  2766: .long 0x00000000
00:0000AB60 01000000        	  2767: .long 0x00000001
00:0000AB64 02000000        	  2768: .long 0x00000002
00:0000AB68 03000000        	  2769: .long 0x00000003
00:0000AB6C 44040000        	  2770: .long 0x00000444
00:0000AB70 00000000        	  2771: .long 0x00000000
00:0000AB74 00000088        	  2772: .long 0x88000000
00:0000AB78 00000000        	  2773: .long 0x00000000
00:0000AB7C 02000000        	  2774: .long 0x00000002
00:0000AB80 03000000        	  2775: .long 0x00000003
00:0000AB84 04000000        	  2776: .long 0x00000004
00:0000AB88 08000000        	  2777: .long 0x00000008
00:0000AB8C 09000000        	  2778: .long 0x00000009
00:0000AB90 09000000        	  2779: .long 0x00000009
00:0000AB94 7C000000        	  2780: .long 0x0000007C
00:0000AB98 03000000        	  2781: .long 0x00000003
00:0000AB9C 00000001        	  2782: .long 0x01000000
00:0000ABA0 00005000        	  2783: .long 0x00500000
00:0000ABA4 00008000        	  2784: .long 0x00800000
00:0000ABA8 00000001        	  2785: .long 0x01000000
00:0000ABAC 00005000        	  2786: .long 0x00500000
00:0000ABB0 000080FF        	  2787: .long 0xFF800000
00:0000ABB4 00000000        	  2788: .long 0x00000000
00:0000ABB8 00000A00        	  2789: .long 0x000A0000
00:0000ABBC CDCCCCFE        	  2790: .long 0xFECCCCCD
00:0000ABC0 9A9919FF        	  2791: .long 0xFF19999A
00:0000ABC4 00005000        	  2792: .long 0x00500000
00:0000ABC8 00000000        	  2793: .long 0x00000000
00:0000ABCC 00000000        	  2794: .long 0x00000000
00:0000ABD0 00000A00        	  2795: .long 0x000A0000
00:0000ABD4 33333301        	  2796: .long 0x01333333
00:0000ABD8 6766E6FF        	  2797: .long 0xFFE66667
00:0000ABDC 000088FF        	  2798: .long 0xFF880000
00:0000ABE0 00000000        	  2799: .long 0x00000000
00:0000ABE4 55555500        	  2800: .long 0x00555555
00:0000ABE8 00005000        	  2801: .long 0x00500000
00:0000ABEC 00004000        	  2802: .long 0x00400000
00:0000ABF0 55555500        	  2803: .long 0x00555555
00:0000ABF4 00005000        	  2804: .long 0x00500000
00:0000ABF8 0000C0FF        	  2805: .long 0xFFC00000
00:0000ABFC CDCCCCFF        	  2806: .long 0xFFCCCCCD
00:0000AC00 00005000        	  2807: .long 0x00500000
00:0000AC04 00000000        	  2808: .long 0x00000000
00:0000AC08 1A447C45        	  2809: .long 0x457C441A
00:0000AC0C 4C1F2A9E        	  2810: .long 0x9E2A1F4C
00:0000AC10 00000000        	  2811: .long 0x00000000
00:0000AC14 00000000        	  2812: .long 0x00000000
00:0000AC18 01000000        	  2813: .long 0x00000001
00:0000AC1C 05000000        	  2814: .long 0x00000005
00:0000AC20 80000000        	  2815: .long 0x00000080
00:0000AC24 3BD8F535        	  2816: .long 0x35F5D83B
00:0000AC28 C13EC09B        	  2817: .long 0x9BC03EC1
00:0000AC2C 1DD712DA        	  2818: .long 0xDA12D71D
00:0000AC30 01000000        	  2819: .long 0x00000001
00:0000AC34 02000000        	  2820: .long 0x00000002
00:0000AC38 05000000        	  2821: .long 0x00000005
00:0000AC3C 40000000        	  2822: .long 0x00000040
00:0000AC40 3BD8F535        	  2823: .long 0x35F5D83B
00:0000AC44 C13EC09B        	  2824: .long 0x9BC03EC1
00:0000AC48 E328ED25        	  2825: .long 0x25ED28E3
00:0000AC4C 00000000        	  2826: .long 0x00000000
00:0000AC50 05000000        	  2827: .long 0x00000005
00:0000AC54 04000000        	  2828: .long 0x00000004
00:0000AC58 40000000        	  2829: .long 0x00000040
00:0000AC5C 1CD523B1        	  2830: .long 0xB123D51C
00:0000AC60 EE503FAF        	  2831: .long 0xAF3F50EE
00:0000AC64 787241D7        	  2832: .long 0xD7417278
00:0000AC68 02000000        	  2833: .long 0x00000002
00:0000AC6C 03000000        	  2834: .long 0x00000003
00:0000AC70 05000000        	  2835: .long 0x00000005
00:0000AC74 40000000        	  2836: .long 0x00000040
00:0000AC78 1DD523B1        	  2837: .long 0xB123D51D
00:0000AC7C EE503FAF        	  2838: .long 0xAF3F50EE
00:0000AC80 888DBE28        	  2839: .long 0x28BE8D88
00:0000AC84 03000000        	  2840: .long 0x00000003
00:0000AC88 04000000        	  2841: .long 0x00000004
00:0000AC8C 05000000        	  2842: .long 0x00000005
00:0000AC90 40000000        	  2843: .long 0x00000040
00:0000AC94 CDD865F7        	  2844: .long 0xF765D8CD
00:0000AC98 36222473        	  2845: .long 0x73242236
00:0000AC9C 76D14FDF        	  2846: .long 0xDF4FD176
00:0000ACA0 01000000        	  2847: .long 0x00000001
00:0000ACA4 02000000        	  2848: .long 0x00000002
00:0000ACA8 03000000        	  2849: .long 0x00000003
00:0000ACAC 88000000        	  2850: .long 0x00000088
00:0000ACB0 CDD865F7        	  2851: .long 0xF765D8CD
00:0000ACB4 36222473        	  2852: .long 0x73242236
00:0000ACB8 8A2EB020        	  2853: .long 0x20B02E8A
00:0000ACBC 00000000        	  2854: .long 0x00000000
00:0000ACC0 03000000        	  2855: .long 0x00000003
00:0000ACC4 04000000        	  2856: .long 0x00000004
00:0000ACC8 88000000        	  2857: .long 0x00000088
00:0000ACCC 00000000        	  2858: .long 0x00000000
00:0000ACD0 00000078        	  2859: .long 0x78000000
00:0000ACD4 00000000        	  2860: .long 0x00000000
00:0000ACD8 00000000        	  2861: .long 0x00000000
00:0000ACDC 01000000        	  2862: .long 0x00000001
00:0000ACE0 03000000        	  2863: .long 0x00000003
00:0000ACE4 44000000        	  2864: .long 0x00000044
00:0000ACE8 00000000        	  2865: .long 0x00000000
00:0000ACEC 00000078        	  2866: .long 0x78000000
00:0000ACF0 00000000        	  2867: .long 0x00000000
00:0000ACF4 06000000        	  2868: .long 0x00000006
00:0000ACF8 07000000        	  2869: .long 0x00000007
00:0000ACFC 08000000        	  2870: .long 0x00000008
00:0000AD00 800C0000        	  2871: .long 0x00000C80
00:0000AD04 0B000000        	  2872: .long 0x0000000B
00:0000AD08 05000000        	  2873: .long 0x00000005
00:0000AD0C 94000000        	  2874: .long 0x00000094
00:0000AD10 02000000        	  2875: .long 0x00000002
00:0000AD14 00003000        	  2876: .long 0x00300000
00:0000AD18 000080FE        	  2877: .long 0xFE800000
00:0000AD1C 00003000        	  2878: .long 0x00300000
00:0000AD20 9A99D9FF        	  2879: .long 0xFFD9999A
00:0000AD24 00000000        	  2880: .long 0x00000000
00:0000AD28 00000000        	  2881: .long 0x00000000
00:0000AD2C 66662600        	  2882: .long 0x00266666
00:0000AD30 00000000        	  2883: .long 0x00000000
00:0000AD34 00000000        	  2884: .long 0x00000000
00:0000AD38 00000000        	  2885: .long 0x00000000
00:0000AD3C 3433F3FE        	  2886: .long 0xFEF33334
00:0000AD40 000040FF        	  2887: .long 0xFF400000
00:0000AD44 00008000        	  2888: .long 0x00800000
00:0000AD48 000040FF        	  2889: .long 0xFF400000
00:0000AD4C 000080FF        	  2890: .long 0xFF800000
00:0000AD50 000040FF        	  2891: .long 0xFF400000
00:0000AD54 CDCCCCFE        	  2892: .long 0xFECCCCCD
00:0000AD58 5655D5FF        	  2893: .long 0xFFD55556
00:0000AD5C 000080FF        	  2894: .long 0xFF800000
00:0000AD60 6766A6FE        	  2895: .long 0xFEA66667
00:0000AD64 00004000        	  2896: .long 0x00400000
00:0000AD68 00008000        	  2897: .long 0x00800000
00:0000AD6C 9A9959FE        	  2898: .long 0xFE59999A
00:0000AD70 AAAA2A00        	  2899: .long 0x002AAAAA
00:0000AD74 0000C000        	  2900: .long 0x00C00000
00:0000AD78 6766A6FE        	  2901: .long 0xFEA66667
00:0000AD7C 0000C0FF        	  2902: .long 0xFFC00000
00:0000AD80 0000A0FF        	  2903: .long 0xFFA00000
00:0000AD84 CDCCCCFE        	  2904: .long 0xFECCCCCD
00:0000AD88 99999900        	  2905: .long 0x00999999
00:0000AD8C 0000C000        	  2906: .long 0x00C00000
00:0000AD90 000040FF        	  2907: .long 0xFF400000
00:0000AD94 0000C000        	  2908: .long 0x00C00000
00:0000AD98 7318A014        	  2909: .long 0x14A01873
00:0000AD9C 939F8FAF        	  2910: .long 0xAF8F9F93
00:0000ADA0 1E68A056        	  2911: .long 0x56A0681E
00:0000ADA4 00000000        	  2912: .long 0x00000000
00:0000ADA8 09000000        	  2913: .long 0x00000009
00:0000ADAC 0A000000        	  2914: .long 0x0000000A
00:0000ADB0 40000000        	  2915: .long 0x00000040
00:0000ADB4 00000000        	  2916: .long 0x00000000
00:0000ADB8 00000000        	  2917: .long 0x00000000
00:0000ADBC 00000000        	  2918: .long 0x00000000
00:0000ADC0 00000000        	  2919: .long 0x00000000
00:0000ADC4 01000000        	  2920: .long 0x00000001
00:0000ADC8 02000000        	  2921: .long 0x00000002
00:0000ADCC 00040000        	  2922: .long 0x00000400
00:0000ADD0 4E259A49        	  2923: .long 0x499A254E
00:0000ADD4 2CFC23B1        	  2924: .long 0xB123FC2C
00:0000ADD8 99526DCB        	  2925: .long 0xCB6D5299
00:0000ADDC 00000000        	  2926: .long 0x00000000
00:0000ADE0 03000000        	  2927: .long 0x00000003
00:0000ADE4 04000000        	  2928: .long 0x00000004
00:0000ADE8 80000000        	  2929: .long 0x00000080
00:0000ADEC BEEED2E4        	  2930: .long 0xE4D2EEBE
00:0000ADF0 3728C88D        	  2931: .long 0x8DC82837
00:0000ADF4 E9E52FE7        	  2932: .long 0xE72FE5E9
00:0000ADF8 00000000        	  2933: .long 0x00000000
00:0000ADFC 05000000        	  2934: .long 0x00000005
00:0000AE00 06000000        	  2935: .long 0x00000006
00:0000AE04 80000000        	  2936: .long 0x00000080
00:0000AE08 850571D5        	  2937: .long 0xD5710585
00:0000AE0C 64F39EB2        	  2938: .long 0xB29EF364
00:0000AE10 B37EC0AE        	  2939: .long 0xAEC07EB3
00:0000AE14 00000000        	  2940: .long 0x00000000
00:0000AE18 07000000        	  2941: .long 0x00000007
00:0000AE1C 08000000        	  2942: .long 0x00000008
00:0000AE20 80000000        	  2943: .long 0x00000080
00:0000AE24 0E000000        	  2944: .long 0x0000000E
00:0000AE28 06000000        	  2945: .long 0x00000006
00:0000AE2C B8000000        	  2946: .long 0x000000B8
00:0000AE30 02000000        	  2947: .long 0x00000002
00:0000AE34 6DDB3600        	  2948: .long 0x0036DB6D
00:0000AE38 343373FD        	  2949: .long 0xFD733334
00:0000AE3C 00003000        	  2950: .long 0x00300000
00:0000AE40 0000D0FF        	  2951: .long 0xFFD00000
00:0000AE44 00000000        	  2952: .long 0x00000000
00:0000AE48 00000000        	  2953: .long 0x00000000
00:0000AE4C 00003000        	  2954: .long 0x00300000
00:0000AE50 00000000        	  2955: .long 0x00000000
00:0000AE54 00000000        	  2956: .long 0x00000000
00:0000AE58 00000000        	  2957: .long 0x00000000
00:0000AE5C CDCC0CFE        	  2958: .long 0xFE0CCCCD
00:0000AE60 000040FF        	  2959: .long 0xFF400000
00:0000AE64 00008000        	  2960: .long 0x00800000
00:0000AE68 9A9959FE        	  2961: .long 0xFE59999A
00:0000AE6C 000080FF        	  2962: .long 0xFF800000
00:0000AE70 343353FF        	  2963: .long 0xFF533334
00:0000AE74 343333FE        	  2964: .long 0xFE333334
00:0000AE78 9324C9FF        	  2965: .long 0xFFC92493
00:0000AE7C 000040FF        	  2966: .long 0xFF400000
00:0000AE80 6766A6FE        	  2967: .long 0xFEA66667
00:0000AE84 00006000        	  2968: .long 0x00600000
00:0000AE88 00000000        	  2969: .long 0x00000000
00:0000AE8C 9A9919FF        	  2970: .long 0xFF19999A
00:0000AE90 676666FF        	  2971: .long 0xFF666667
00:0000AE94 000080FF        	  2972: .long 0xFF800000
00:0000AE98 000040FF        	  2973: .long 0xFF400000
00:0000AE9C 0000A0FF        	  2974: .long 0xFFA00000
00:0000AEA0 0000A0FF        	  2975: .long 0xFFA00000
00:0000AEA4 000080FE        	  2976: .long 0xFE800000
00:0000AEA8 99999900        	  2977: .long 0x00999999
00:0000AEAC 0000C000        	  2978: .long 0x00C00000
00:0000AEB0 CDCCCCFE        	  2979: .long 0xFECCCCCD
00:0000AEB4 0000C000        	  2980: .long 0x00C00000
00:0000AEB8 3433B3FF        	  2981: .long 0xFFB33334
00:0000AEBC 9A9919FF        	  2982: .long 0xFF19999A
00:0000AEC0 6666E600        	  2983: .long 0x00E66666
00:0000AEC4 00008000        	  2984: .long 0x00800000
00:0000AEC8 000040FF        	  2985: .long 0xFF400000
00:0000AECC 0000C000        	  2986: .long 0x00C00000
00:0000AED0 00003000        	  2987: .long 0x00300000
00:0000AED4 9A9959FE        	  2988: .long 0xFE59999A
00:0000AED8 00003000        	  2989: .long 0x00300000
00:0000AEDC DD013DFD        	  2990: .long 0xFD3D01DD
00:0000AEE0 1E37CBD2        	  2991: .long 0xD2CB371E
00:0000AEE4 4E02206F        	  2992: .long 0x6F20024E
00:0000AEE8 00000000        	  2993: .long 0x00000000
00:0000AEEC 09000000        	  2994: .long 0x00000009
00:0000AEF0 0A000000        	  2995: .long 0x0000000A
00:0000AEF4 40000000        	  2996: .long 0x00000040
00:0000AEF8 1A986F1E        	  2997: .long 0x1E6F981A
00:0000AEFC CE5E10BB        	  2998: .long 0xBB105ECE
00:0000AF00 168B635D        	  2999: .long 0x5D638B16
00:0000AF04 0D000000        	  3000: .long 0x0000000D
00:0000AF08 0B000000        	  3001: .long 0x0000000B
00:0000AF0C 0C000000        	  3002: .long 0x0000000C
00:0000AF10 80000000        	  3003: .long 0x00000080
00:0000AF14 00000000        	  3004: .long 0x00000000
00:0000AF18 00000000        	  3005: .long 0x00000000
00:0000AF1C 00000000        	  3006: .long 0x00000000
00:0000AF20 00000000        	  3007: .long 0x00000000
00:0000AF24 01000000        	  3008: .long 0x00000001
00:0000AF28 02000000        	  3009: .long 0x00000002
00:0000AF2C 00040000        	  3010: .long 0x00000400
00:0000AF30 0965D949        	  3011: .long 0x49D96509
00:0000AF34 6227E7B8        	  3012: .long 0xB8E72762
00:0000AF38 193A9EC1        	  3013: .long 0xC19E3A19
00:0000AF3C 00000000        	  3014: .long 0x00000000
00:0000AF40 03000000        	  3015: .long 0x00000003
00:0000AF44 04000000        	  3016: .long 0x00000004
00:0000AF48 80000000        	  3017: .long 0x00000080
00:0000AF4C 743B21AD        	  3018: .long 0xAD213B74
00:0000AF50 5DCA41B6        	  3019: .long 0xB641CA5D
00:0000AF54 5006C42D        	  3020: .long 0x2DC40650
00:0000AF58 00000000        	  3021: .long 0x00000000
00:0000AF5C 05000000        	  3022: .long 0x00000005
00:0000AF60 06000000        	  3023: .long 0x00000006
00:0000AF64 40000000        	  3024: .long 0x00000040
00:0000AF68 512010C9        	  3025: .long 0xC9102051
00:0000AF6C AD6C84AC        	  3026: .long 0xAC846CAD
00:0000AF70 C1A892BD        	  3027: .long 0xBD92A8C1
00:0000AF74 0D000000        	  3028: .long 0x0000000D
00:0000AF78 07000000        	  3029: .long 0x00000007
00:0000AF7C 08000000        	  3030: .long 0x00000008
00:0000AF80 40000000        	  3031: .long 0x00000040
00:0000AF84 05000000        	  3032: .long 0x00000005
00:0000AF88 02000000        	  3033: .long 0x00000002
00:0000AF8C 4C000000        	  3034: .long 0x0000004C
00:0000AF90 00000000        	  3035: .long 0x00000000
00:0000AF94 9A99D9FF        	  3036: .long 0xFFD9999A
00:0000AF98 00000000        	  3037: .long 0x00000000
00:0000AF9C 00000000        	  3038: .long 0x00000000
00:0000AFA0 66662600        	  3039: .long 0x00266666
00:0000AFA4 00000000        	  3040: .long 0x00000000
00:0000AFA8 00000000        	  3041: .long 0x00000000
00:0000AFAC 33332B00        	  3042: .long 0x002B3333
00:0000AFB0 0000C0FF        	  3043: .long 0xFFC00000
00:0000AFB4 00000000        	  3044: .long 0x00000000
00:0000AFB8 00003000        	  3045: .long 0x00300000
00:0000AFBC 000080FF        	  3046: .long 0xFF800000
00:0000AFC0 00000000        	  3047: .long 0x00000000
00:0000AFC4 5655D5FF        	  3048: .long 0xFFD55556
00:0000AFC8 CDCCCCFE        	  3049: .long 0xFECCCCCD
00:0000AFCC 00000000        	  3050: .long 0x00000000
00:0000AFD0 00000000        	  3051: .long 0x00000000
00:0000AFD4 00000000        	  3052: .long 0x00000000
00:0000AFD8 00000000        	  3053: .long 0x00000000
00:0000AFDC 00000000        	  3054: .long 0x00000000
00:0000AFE0 01000000        	  3055: .long 0x00000001
00:0000AFE4 03000000        	  3056: .long 0x00000003
00:0000AFE8 00000000        	  3057: .long 0x00000000
00:0000AFEC 00000000        	  3058: .long 0x00000000
00:0000AFF0 00000000        	  3059: .long 0x00000000
00:0000AFF4 00000000        	  3060: .long 0x00000000
00:0000AFF8 02000000        	  3061: .long 0x00000002
00:0000AFFC 03000000        	  3062: .long 0x00000003
00:0000B000 04000000        	  3063: .long 0x00000004
00:0000B004 00000000        	  3064: .long 0x00000000
00:0000B008 05000000        	  3065: .long 0x00000005
00:0000B00C 02000000        	  3066: .long 0x00000002
00:0000B010 4C000000        	  3067: .long 0x0000004C
00:0000B014 00000000        	  3068: .long 0x00000000
00:0000B018 AAAA2A00        	  3069: .long 0x002AAAAA
00:0000B01C 00000000        	  3070: .long 0x00000000
00:0000B020 00000000        	  3071: .long 0x00000000
00:0000B024 5655D5FF        	  3072: .long 0xFFD55556
00:0000B028 00000000        	  3073: .long 0x00000000
00:0000B02C 00000000        	  3074: .long 0x00000000
00:0000B030 CDCCD4FF        	  3075: .long 0xFFD4CCCD
00:0000B034 0000D0FF        	  3076: .long 0xFFD00000
00:0000B038 00000000        	  3077: .long 0x00000000
00:0000B03C 0000D0FF        	  3078: .long 0xFFD00000
00:0000B040 0000A0FF        	  3079: .long 0xFFA00000
00:0000B044 00000000        	  3080: .long 0x00000000
00:0000B048 AAAA2A00        	  3081: .long 0x002AAAAA
00:0000B04C 6766A6FE        	  3082: .long 0xFEA66667
00:0000B050 00000000        	  3083: .long 0x00000000
00:0000B054 00000000        	  3084: .long 0x00000000
00:0000B058 00000000        	  3085: .long 0x00000000
00:0000B05C 00000000        	  3086: .long 0x00000000
00:0000B060 00000000        	  3087: .long 0x00000000
00:0000B064 01000000        	  3088: .long 0x00000001
00:0000B068 03000000        	  3089: .long 0x00000003
00:0000B06C 00000000        	  3090: .long 0x00000000
00:0000B070 00000000        	  3091: .long 0x00000000
00:0000B074 00000000        	  3092: .long 0x00000000
00:0000B078 00000000        	  3093: .long 0x00000000
00:0000B07C 02000000        	  3094: .long 0x00000002
00:0000B080 03000000        	  3095: .long 0x00000003
00:0000B084 04000000        	  3096: .long 0x00000004
00:0000B088 00000000        	  3097: .long 0x00000000
00:0000B08C 05000000        	  3098: .long 0x00000005
00:0000B090 02000000        	  3099: .long 0x00000002
00:0000B094 4C000000        	  3100: .long 0x0000004C
00:0000B098 02000000        	  3101: .long 0x00000002
00:0000B09C 0000A0FF        	  3102: .long 0xFFA00000
00:0000B0A0 9324C9FF        	  3103: .long 0xFFC92493
00:0000B0A4 9324C9FF        	  3104: .long 0xFFC92493
00:0000B0A8 00006000        	  3105: .long 0x00600000
00:0000B0AC 9324C9FF        	  3106: .long 0xFFC92493
00:0000B0B0 9324C9FF        	  3107: .long 0xFFC92493
00:0000B0B4 00000000        	  3108: .long 0x00000000
00:0000B0B8 343333FE        	  3109: .long 0xFE333334
00:0000B0BC 6DDB3600        	  3110: .long 0x0036DB6D
00:0000B0C0 66662600        	  3111: .long 0x00266666
00:0000B0C4 00000000        	  3112: .long 0x00000000
00:0000B0C8 00000000        	  3113: .long 0x00000000
00:0000B0CC 9A99D9FF        	  3114: .long 0xFFD9999A
00:0000B0D0 00000000        	  3115: .long 0x00000000
00:0000B0D4 00000000        	  3116: .long 0x00000000
00:0000B0D8 00000000        	  3117: .long 0x00000000
00:0000B0DC 00000000        	  3118: .long 0x00000000
00:0000B0E0 00000000        	  3119: .long 0x00000000
00:0000B0E4 02000000        	  3120: .long 0x00000002
00:0000B0E8 03000000        	  3121: .long 0x00000003
00:0000B0EC 04000000        	  3122: .long 0x00000004
00:0000B0F0 00040000        	  3123: .long 0x00000400
00:0000B0F4 00000000        	  3124: .long 0x00000000
00:0000B0F8 50E0B0E0        	  3125: .long 0xE0B0E050
00:0000B0FC 4309288C        	  3126: .long 0x8C280943
00:0000B100 00000000        	  3127: .long 0x00000000
00:0000B104 01000000        	  3128: .long 0x00000001
00:0000B108 02000000        	  3129: .long 0x00000002
00:0000B10C 40000000        	  3130: .long 0x00000040
00:0000B110 0D000000        	  3131: .long 0x0000000D
00:0000B114 08000000        	  3132: .long 0x00000008
00:0000B118 AC000000        	  3133: .long 0x000000AC
00:0000B11C 02000000        	  3134: .long 0x00000002
00:0000B120 00000000        	  3135: .long 0x00000000
00:0000B124 000000FF        	  3136: .long 0xFF000000
00:0000B128 00000000        	  3137: .long 0x00000000
00:0000B12C 000080FF        	  3138: .long 0xFF800000
00:0000B130 000040FF        	  3139: .long 0xFF400000
00:0000B134 00008000        	  3140: .long 0x00800000
00:0000B138 000080FF        	  3141: .long 0xFF800000
00:0000B13C 000040FF        	  3142: .long 0xFF400000
00:0000B140 000080FF        	  3143: .long 0xFF800000
00:0000B144 00008000        	  3144: .long 0x00800000
00:0000B148 000040FF        	  3145: .long 0xFF400000
00:0000B14C 000080FF        	  3146: .long 0xFF800000
00:0000B150 00008000        	  3147: .long 0x00800000
00:0000B154 000040FF        	  3148: .long 0xFF400000
00:0000B158 00008000        	  3149: .long 0x00800000
00:0000B15C 000080FF        	  3150: .long 0xFF800000
00:0000B160 00000000        	  3151: .long 0x00000000
00:0000B164 00008000        	  3152: .long 0x00800000
00:0000B168 000080FF        	  3153: .long 0xFF800000
00:0000B16C 00000000        	  3154: .long 0x00000000
00:0000B170 000080FF        	  3155: .long 0xFF800000
00:0000B174 00008000        	  3156: .long 0x00800000
00:0000B178 00000000        	  3157: .long 0x00000000
00:0000B17C 000080FF        	  3158: .long 0xFF800000
00:0000B180 00008000        	  3159: .long 0x00800000
00:0000B184 00000000        	  3160: .long 0x00000000
00:0000B188 00008000        	  3161: .long 0x00800000
00:0000B18C 9A9999FF        	  3162: .long 0xFF99999A
00:0000B190 000040FF        	  3163: .long 0xFF400000
00:0000B194 00008000        	  3164: .long 0x00800000
00:0000B198 9A9999FF        	  3165: .long 0xFF99999A
00:0000B19C 000040FF        	  3166: .long 0xFF400000
00:0000B1A0 000080FF        	  3167: .long 0xFF800000
00:0000B1A4 66666600        	  3168: .long 0x00666666
00:0000B1A8 000040FF        	  3169: .long 0xFF400000
00:0000B1AC 000080FF        	  3170: .long 0xFF800000
00:0000B1B0 66666600        	  3171: .long 0x00666666
00:0000B1B4 000040FF        	  3172: .long 0xFF400000
00:0000B1B8 00008000        	  3173: .long 0x00800000
00:0000B1BC 00000000        	  3174: .long 0x00000000
00:0000B1C0 00000000        	  3175: .long 0x00000000
00:0000B1C4 00000078        	  3176: .long 0x78000000
00:0000B1C8 01000000        	  3177: .long 0x00000001
00:0000B1CC 05000000        	  3178: .long 0x00000005
00:0000B1D0 09000000        	  3179: .long 0x00000009
00:0000B1D4 44040000        	  3180: .long 0x00000444
00:0000B1D8 00000000        	  3181: .long 0x00000000
00:0000B1DC 00000000        	  3182: .long 0x00000000
00:0000B1E0 00000088        	  3183: .long 0x88000000
00:0000B1E4 02000000        	  3184: .long 0x00000002
00:0000B1E8 06000000        	  3185: .long 0x00000006
00:0000B1EC 0A000000        	  3186: .long 0x0000000A
00:0000B1F0 44040000        	  3187: .long 0x00000444
00:0000B1F4 00000000        	  3188: .long 0x00000000
00:0000B1F8 5B32AB94        	  3189: .long 0x94AB325B
00:0000B1FC D266AA35        	  3190: .long 0x35AA66D2
00:0000B200 00000000        	  3191: .long 0x00000000
00:0000B204 01000000        	  3192: .long 0x00000001
00:0000B208 04000000        	  3193: .long 0x00000004
00:0000B20C 00040000        	  3194: .long 0x00000400
00:0000B210 00000000        	  3195: .long 0x00000000
00:0000B214 00000000        	  3196: .long 0x00000000
00:0000B218 00000088        	  3197: .long 0x88000000
00:0000B21C 03000000        	  3198: .long 0x00000003
00:0000B220 07000000        	  3199: .long 0x00000007
00:0000B224 0B000000        	  3200: .long 0x0000000B
00:0000B228 44040000        	  3201: .long 0x00000444
00:0000B22C 00000000        	  3202: .long 0x00000000
00:0000B230 00000000        	  3203: .long 0x00000000
00:0000B234 00000078        	  3204: .long 0x78000000
00:0000B238 04000000        	  3205: .long 0x00000004
00:0000B23C 08000000        	  3206: .long 0x00000008
00:0000B240 0C000000        	  3207: .long 0x0000000C
00:0000B244 44040000        	  3208: .long 0x00000444
00:0000B248 2E9955CA        	  3209: .long 0xCA55992E
00:0000B24C 5B32AB94        	  3210: .long 0x94AB325B
00:0000B250 00000000        	  3211: .long 0x00000000
00:0000B254 00000000        	  3212: .long 0x00000000
00:0000B258 01000000        	  3213: .long 0x00000001
00:0000B25C 02000000        	  3214: .long 0x00000002
00:0000B260 40080000        	  3215: .long 0x00000840
00:0000B264 D266AA35        	  3216: .long 0x35AA66D2
00:0000B268 5B32AB94        	  3217: .long 0x94AB325B
00:0000B26C 00000000        	  3218: .long 0x00000000
00:0000B270 00000000        	  3219: .long 0x00000000
00:0000B274 03000000        	  3220: .long 0x00000003
00:0000B278 04000000        	  3221: .long 0x00000004
00:0000B27C 40080000        	  3222: .long 0x00000840
00:0000B280 00000000        	  3223: .long 0x00000000
00:0000B284 5B32AB94        	  3224: .long 0x94AB325B
00:0000B288 2E9955CA        	  3225: .long 0xCA55992E
00:0000B28C 00000000        	  3226: .long 0x00000000
00:0000B290 02000000        	  3227: .long 0x00000002
00:0000B294 03000000        	  3228: .long 0x00000003
00:0000B298 00040000        	  3229: .long 0x00000400
00:0000B29C 10000000        	  3230: .long 0x00000010
00:0000B2A0 0C000000        	  3231: .long 0x0000000C
00:0000B2A4 D0000000        	  3232: .long 0x000000D0
00:0000B2A8 00000000        	  3233: .long 0x00000000
00:0000B2AC 9A9919FF        	  3234: .long 0xFF19999A
00:0000B2B0 676626FF        	  3235: .long 0xFF266667
00:0000B2B4 00000000        	  3236: .long 0x00000000
00:0000B2B8 000040FF        	  3237: .long 0xFF400000
00:0000B2BC 676626FF        	  3238: .long 0xFF266667
00:0000B2C0 00000000        	  3239: .long 0x00000000
00:0000B2C4 0000C000        	  3240: .long 0x00C00000
00:0000B2C8 676626FF        	  3241: .long 0xFF266667
00:0000B2CC 00000000        	  3242: .long 0x00000000
00:0000B2D0 6666E600        	  3243: .long 0x00E66666
00:0000B2D4 676626FF        	  3244: .long 0xFF266667
00:0000B2D8 00000000        	  3245: .long 0x00000000
00:0000B2DC 9A9919FF        	  3246: .long 0xFF19999A
00:0000B2E0 CDCC8CFF        	  3247: .long 0xFF8CCCCD
00:0000B2E4 6666A600        	  3248: .long 0x00A66666
00:0000B2E8 9A9919FF        	  3249: .long 0xFF19999A
00:0000B2EC CDCC8CFF        	  3250: .long 0xFF8CCCCD
00:0000B2F0 9A9959FF        	  3251: .long 0xFF59999A
00:0000B2F4 6666E600        	  3252: .long 0x00E66666
00:0000B2F8 CDCC8CFF        	  3253: .long 0xFF8CCCCD
00:0000B2FC 6666A600        	  3254: .long 0x00A66666
00:0000B300 6666E600        	  3255: .long 0x00E66666
00:0000B304 CDCC8CFF        	  3256: .long 0xFF8CCCCD
00:0000B308 9A9959FF        	  3257: .long 0xFF59999A
00:0000B30C 000040FF        	  3258: .long 0xFF400000
00:0000B310 676666FF        	  3259: .long 0xFF666667
00:0000B314 00008000        	  3260: .long 0x00800000
00:0000B318 000040FF        	  3261: .long 0xFF400000
00:0000B31C 676666FF        	  3262: .long 0xFF666667
00:0000B320 000080FF        	  3263: .long 0xFF800000
00:0000B324 0000C000        	  3264: .long 0x00C00000
00:0000B328 676666FF        	  3265: .long 0xFF666667
00:0000B32C 00008000        	  3266: .long 0x00800000
00:0000B330 0000C000        	  3267: .long 0x00C00000
00:0000B334 676666FF        	  3268: .long 0xFF666667
00:0000B338 000080FF        	  3269: .long 0xFF800000
00:0000B33C 000040FF        	  3270: .long 0xFF400000
00:0000B340 00000000        	  3271: .long 0x00000000
00:0000B344 00008000        	  3272: .long 0x00800000
00:0000B348 000040FF        	  3273: .long 0xFF400000
00:0000B34C 00000000        	  3274: .long 0x00000000
00:0000B350 000080FF        	  3275: .long 0xFF800000
00:0000B354 0000C000        	  3276: .long 0x00C00000
00:0000B358 00000000        	  3277: .long 0x00000000
00:0000B35C 00008000        	  3278: .long 0x00800000
00:0000B360 0000C000        	  3279: .long 0x00C00000
00:0000B364 00000000        	  3280: .long 0x00000000
00:0000B368 000080FF        	  3281: .long 0xFF800000
00:0000B36C 00000000        	  3282: .long 0x00000000
00:0000B370 6D0ECD99        	  3283: .long 0x99CD0E6D
00:0000B374 CC45E43E        	  3284: .long 0x3EE445CC
00:0000B378 00000000        	  3285: .long 0x00000000
00:0000B37C 04000000        	  3286: .long 0x00000004
00:0000B380 06000000        	  3287: .long 0x00000006
00:0000B384 00040000        	  3288: .long 0x00000400
00:0000B388 00000000        	  3289: .long 0x00000000
00:0000B38C 6D0ECD99        	  3290: .long 0x99CD0E6D
00:0000B390 CC45E43E        	  3291: .long 0x3EE445CC
00:0000B394 00000000        	  3292: .long 0x00000000
00:0000B398 03000000        	  3293: .long 0x00000003
00:0000B39C 06000000        	  3294: .long 0x00000006
00:0000B3A0 00040000        	  3295: .long 0x00000400
00:0000B3A4 00000088        	  3296: .long 0x88000000
00:0000B3A8 00000000        	  3297: .long 0x00000000
00:0000B3AC 00000000        	  3298: .long 0x00000000
00:0000B3B0 01000000        	  3299: .long 0x00000001
00:0000B3B4 08000000        	  3300: .long 0x00000008
00:0000B3B8 09000000        	  3301: .long 0x00000009
00:0000B3BC DD0D0000        	  3302: .long 0x00000DDD
00:0000B3C0 00000078        	  3303: .long 0x78000000
00:0000B3C4 00000000        	  3304: .long 0x00000000
00:0000B3C8 00000000        	  3305: .long 0x00000000
00:0000B3CC 02000000        	  3306: .long 0x00000002
00:0000B3D0 0A000000        	  3307: .long 0x0000000A
00:0000B3D4 0B000000        	  3308: .long 0x0000000B
00:0000B3D8 55050000        	  3309: .long 0x00000555
00:0000B3DC 00000088        	  3310: .long 0x88000000
00:0000B3E0 00000000        	  3311: .long 0x00000000
00:0000B3E4 00000000        	  3312: .long 0x00000000
00:0000B3E8 08000000        	  3313: .long 0x00000008
00:0000B3EC 0C000000        	  3314: .long 0x0000000C
00:0000B3F0 0D000000        	  3315: .long 0x0000000D
00:0000B3F4 FF0F0000        	  3316: .long 0x00000FFF
00:0000B3F8 00000088        	  3317: .long 0x88000000
00:0000B3FC 00000000        	  3318: .long 0x00000000
00:0000B400 00000000        	  3319: .long 0x00000000
00:0000B404 08000000        	  3320: .long 0x00000008
00:0000B408 09000000        	  3321: .long 0x00000009
00:0000B40C 0D000000        	  3322: .long 0x0000000D
00:0000B410 FF0F0000        	  3323: .long 0x00000FFF
00:0000B414 00000078        	  3324: .long 0x78000000
00:0000B418 00000000        	  3325: .long 0x00000000
00:0000B41C 00000000        	  3326: .long 0x00000000
00:0000B420 0A000000        	  3327: .long 0x0000000A
00:0000B424 0E000000        	  3328: .long 0x0000000E
00:0000B428 0F000000        	  3329: .long 0x0000000F
00:0000B42C 77070000        	  3330: .long 0x00000777
00:0000B430 00000078        	  3331: .long 0x78000000
00:0000B434 00000000        	  3332: .long 0x00000000
00:0000B438 00000000        	  3333: .long 0x00000000
00:0000B43C 0A000000        	  3334: .long 0x0000000A
00:0000B440 0B000000        	  3335: .long 0x0000000B
00:0000B444 0F000000        	  3336: .long 0x0000000F
00:0000B448 77070000        	  3337: .long 0x00000777
00:0000B44C 00000000        	  3338: .long 0x00000000
00:0000B450 00000000        	  3339: .long 0x00000000
00:0000B454 00000088        	  3340: .long 0x88000000
00:0000B458 09000000        	  3341: .long 0x00000009
00:0000B45C 0D000000        	  3342: .long 0x0000000D
00:0000B460 0F000000        	  3343: .long 0x0000000F
00:0000B464 BB0B0000        	  3344: .long 0x00000BBB
00:0000B468 00000000        	  3345: .long 0x00000000
00:0000B46C 00000000        	  3346: .long 0x00000000
00:0000B470 00000088        	  3347: .long 0x88000000
00:0000B474 09000000        	  3348: .long 0x00000009
00:0000B478 0B000000        	  3349: .long 0x0000000B
00:0000B47C 0F000000        	  3350: .long 0x0000000F
00:0000B480 BB0B0000        	  3351: .long 0x00000BBB
00:0000B484 00000000        	  3352: .long 0x00000000
00:0000B488 6D0ECD99        	  3353: .long 0x99CD0E6D
00:0000B48C 34BA1BC1        	  3354: .long 0xC11BBA34
00:0000B490 00000000        	  3355: .long 0x00000000
00:0000B494 05000000        	  3356: .long 0x00000005
00:0000B498 07000000        	  3357: .long 0x00000007
00:0000B49C 00080000        	  3358: .long 0x00000800
00:0000B4A0 00000000        	  3359: .long 0x00000000
00:0000B4A4 6D0ECD99        	  3360: .long 0x99CD0E6D
00:0000B4A8 34BA1BC1        	  3361: .long 0xC11BBA34
00:0000B4AC 00000000        	  3362: .long 0x00000000
00:0000B4B0 03000000        	  3363: .long 0x00000003
00:0000B4B4 07000000        	  3364: .long 0x00000007
00:0000B4B8 00080000        	  3365: .long 0x00000800
00:0000B4BC 06000000        	  3366: .long 0x00000006
00:0000B4C0 06000000        	  3367: .long 0x00000006
00:0000B4C4 58000000        	  3368: .long 0x00000058
00:0000B4C8 00000000        	  3369: .long 0x00000000
00:0000B4CC 000040FF        	  3370: .long 0xFF400000
00:0000B4D0 01000000        	  3371: .long 0x00000001
00:0000B4D4 00008000        	  3372: .long 0x00800000
00:0000B4D8 000040FF        	  3373: .long 0xFF400000
00:0000B4DC 01000000        	  3374: .long 0x00000001
00:0000B4E0 000080FF        	  3375: .long 0xFF800000
00:0000B4E4 0000C000        	  3376: .long 0x00C00000
00:0000B4E8 01000000        	  3377: .long 0x00000001
00:0000B4EC 00008000        	  3378: .long 0x00800000
00:0000B4F0 0000C000        	  3379: .long 0x00C00000
00:0000B4F4 01000000        	  3380: .long 0x00000001
00:0000B4F8 000080FF        	  3381: .long 0xFF800000
00:0000B4FC 000040FF        	  3382: .long 0xFF400000
00:0000B500 9A9999FF        	  3383: .long 0xFF99999A
00:0000B504 00008000        	  3384: .long 0x00800000
00:0000B508 0000C000        	  3385: .long 0x00C00000
00:0000B50C 3433B3FF        	  3386: .long 0xFFB33334
00:0000B510 000080FF        	  3387: .long 0xFF800000
00:0000B514 00000000        	  3388: .long 0x00000000
00:0000B518 00000078        	  3389: .long 0x78000000
00:0000B51C 00000000        	  3390: .long 0x00000000
00:0000B520 00000000        	  3391: .long 0x00000000
00:0000B524 01000000        	  3392: .long 0x00000001
00:0000B528 02000000        	  3393: .long 0x00000002
00:0000B52C 00000000        	  3394: .long 0x00000000
00:0000B530 00000000        	  3395: .long 0x00000000
00:0000B534 00000078        	  3396: .long 0x78000000
00:0000B538 00000000        	  3397: .long 0x00000000
00:0000B53C 01000000        	  3398: .long 0x00000001
00:0000B540 02000000        	  3399: .long 0x00000002
00:0000B544 03000000        	  3400: .long 0x00000003
00:0000B548 00000000        	  3401: .long 0x00000000
00:0000B54C 00000000        	  3402: .long 0x00000000
00:0000B550 00000000        	  3403: .long 0x00000000
00:0000B554 00000078        	  3404: .long 0x78000000
00:0000B558 00000000        	  3405: .long 0x00000000
00:0000B55C 02000000        	  3406: .long 0x00000002
00:0000B560 04000000        	  3407: .long 0x00000004
00:0000B564 33030000        	  3408: .long 0x00000333
00:0000B568 00000088        	  3409: .long 0x88000000
00:0000B56C 00000000        	  3410: .long 0x00000000
00:0000B570 00000000        	  3411: .long 0x00000000
00:0000B574 00000000        	  3412: .long 0x00000000
00:0000B578 01000000        	  3413: .long 0x00000001
00:0000B57C 04000000        	  3414: .long 0x00000004
00:0000B580 66060000        	  3415: .long 0x00000666
00:0000B584 00000078        	  3416: .long 0x78000000
00:0000B588 00000000        	  3417: .long 0x00000000
00:0000B58C 00000000        	  3418: .long 0x00000000
00:0000B590 02000000        	  3419: .long 0x00000002
00:0000B594 03000000        	  3420: .long 0x00000003
00:0000B598 05000000        	  3421: .long 0x00000005
00:0000B59C 55050000        	  3422: .long 0x00000555
00:0000B5A0 00000000        	  3423: .long 0x00000000
00:0000B5A4 00000000        	  3424: .long 0x00000000
00:0000B5A8 01000088        	  3425: .long 0x88000001
00:0000B5AC 01000000        	  3426: .long 0x00000001
00:0000B5B0 03000000        	  3427: .long 0x00000003
00:0000B5B4 05000000        	  3428: .long 0x00000005
00:0000B5B8 77070000        	  3429: .long 0x00000777
00:0000B5BC 06000000        	  3430: .long 0x00000006
00:0000B5C0 04000000        	  3431: .long 0x00000004
00:0000B5C4 58000000        	  3432: .long 0x00000058
00:0000B5C8 02000000        	  3433: .long 0x00000002
00:0000B5CC 00000000        	  3434: .long 0x00000000
00:0000B5D0 CDCC8CFF        	  3435: .long 0xFF8CCCCD
00:0000B5D4 0000F0FF        	  3436: .long 0xFFF00000
00:0000B5D8 99991900        	  3437: .long 0x00199999
00:0000B5DC CDCC8CFF        	  3438: .long 0xFF8CCCCD
00:0000B5E0 0000F0FF        	  3439: .long 0xFFF00000
00:0000B5E4 00008000        	  3440: .long 0x00800000
00:0000B5E8 00000000        	  3441: .long 0x00000000
00:0000B5EC 00008000        	  3442: .long 0x00800000
00:0000B5F0 000080FF        	  3443: .long 0xFF800000
00:0000B5F4 00000000        	  3444: .long 0x00000000
00:0000B5F8 00008000        	  3445: .long 0x00800000
00:0000B5FC 00008000        	  3446: .long 0x00800000
00:0000B600 00000000        	  3447: .long 0x00000000
00:0000B604 000080FF        	  3448: .long 0xFF800000
00:0000B608 000080FF        	  3449: .long 0xFF800000
00:0000B60C 00000000        	  3450: .long 0x00000000
00:0000B610 000080FF        	  3451: .long 0xFF800000
00:0000B614 00000000        	  3452: .long 0x00000000
00:0000B618 BEB54BA2        	  3453: .long 0xA24BB5BE
00:0000B61C ADA1F64A        	  3454: .long 0x4AF6A1AD
00:0000B620 00000000        	  3455: .long 0x00000000
00:0000B624 01000000        	  3456: .long 0x00000001
00:0000B628 02000000        	  3457: .long 0x00000002
00:0000B62C 00000000        	  3458: .long 0x00000000
00:0000B630 00000000        	  3459: .long 0x00000000
00:0000B634 BEB54BA2        	  3460: .long 0xA24BB5BE
00:0000B638 ADA1F64A        	  3461: .long 0x4AF6A1AD
00:0000B63C 00000000        	  3462: .long 0x00000000
00:0000B640 01000000        	  3463: .long 0x00000001
00:0000B644 03000000        	  3464: .long 0x00000003
00:0000B648 33030000        	  3465: .long 0x00000333
00:0000B64C 00000000        	  3466: .long 0x00000000
00:0000B650 60C059AC        	  3467: .long 0xAC59C060
00:0000B654 98EAF5A9        	  3468: .long 0xA9F5EA98
00:0000B658 00000000        	  3469: .long 0x00000000
00:0000B65C 01000000        	  3470: .long 0x00000001
00:0000B660 04000000        	  3471: .long 0x00000004
00:0000B664 44040000        	  3472: .long 0x00000444
00:0000B668 00000000        	  3473: .long 0x00000000
00:0000B66C 60C059AC        	  3474: .long 0xAC59C060
00:0000B670 98EAF5A9        	  3475: .long 0xA9F5EA98
00:0000B674 00000000        	  3476: .long 0x00000000
00:0000B678 01000000        	  3477: .long 0x00000001
00:0000B67C 05000000        	  3478: .long 0x00000005
00:0000B680 00000000        	  3479: .long 0x00000000
00:0000B684 0D000000        	  3480: .long 0x0000000D
00:0000B688 08000000        	  3481: .long 0x00000008
00:0000B68C AC000000        	  3482: .long 0x000000AC
00:0000B690 02000000        	  3483: .long 0x00000002
00:0000B694 00000000        	  3484: .long 0x00000000
00:0000B698 000040FE        	  3485: .long 0xFE400000
00:0000B69C 00000000        	  3486: .long 0x00000000
00:0000B6A0 0000C8FF        	  3487: .long 0xFFC80000
00:0000B6A4 D245D7FF        	  3488: .long 0xFFD745D2
00:0000B6A8 00003800        	  3489: .long 0x00380000
00:0000B6AC 0000C8FF        	  3490: .long 0xFFC80000
00:0000B6B0 D245D7FF        	  3491: .long 0xFFD745D2
00:0000B6B4 0000C8FF        	  3492: .long 0xFFC80000
00:0000B6B8 00003800        	  3493: .long 0x00380000
00:0000B6BC D245D7FF        	  3494: .long 0xFFD745D2
00:0000B6C0 00003800        	  3495: .long 0x00380000
00:0000B6C4 00003800        	  3496: .long 0x00380000
00:0000B6C8 D245D7FF        	  3497: .long 0xFFD745D2
00:0000B6CC 0000C8FF        	  3498: .long 0xFFC80000
00:0000B6D0 000090FF        	  3499: .long 0xFF900000
00:0000B6D4 00000000        	  3500: .long 0x00000000
00:0000B6D8 00007000        	  3501: .long 0x00700000
00:0000B6DC 000090FF        	  3502: .long 0xFF900000
00:0000B6E0 00000000        	  3503: .long 0x00000000
00:0000B6E4 000090FF        	  3504: .long 0xFF900000
00:0000B6E8 00007000        	  3505: .long 0x00700000
00:0000B6EC 00000000        	  3506: .long 0x00000000
00:0000B6F0 00007000        	  3507: .long 0x00700000
00:0000B6F4 00007000        	  3508: .long 0x00700000
00:0000B6F8 00000000        	  3509: .long 0x00000000
00:0000B6FC 000090FF        	  3510: .long 0xFF900000
00:0000B700 0000E4FF        	  3511: .long 0xFFE40000
00:0000B704 721C07FF        	  3512: .long 0xFF071C72
00:0000B708 00001C00        	  3513: .long 0x001C0000
00:0000B70C 0000E4FF        	  3514: .long 0xFFE40000
00:0000B710 721C07FF        	  3515: .long 0xFF071C72
00:0000B714 0000E4FF        	  3516: .long 0xFFE40000
00:0000B718 00001C00        	  3517: .long 0x001C0000
00:0000B71C 721C07FF        	  3518: .long 0xFF071C72
00:0000B720 00001C00        	  3519: .long 0x001C0000
00:0000B724 00001C00        	  3520: .long 0x001C0000
00:0000B728 721C07FF        	  3521: .long 0xFF071C72
00:0000B72C 0000E4FF        	  3522: .long 0xFFE40000
00:0000B730 00000000        	  3523: .long 0x00000000
00:0000B734 00000000        	  3524: .long 0x00000000
00:0000B738 00000000        	  3525: .long 0x00000000
00:0000B73C 09000000        	  3526: .long 0x00000009
00:0000B740 01000000        	  3527: .long 0x00000001
00:0000B744 05000000        	  3528: .long 0x00000005
00:0000B748 C00C0000        	  3529: .long 0x00000CC0
00:0000B74C 00000000        	  3530: .long 0x00000000
00:0000B750 00000000        	  3531: .long 0x00000000
00:0000B754 00000000        	  3532: .long 0x00000000
00:0000B758 0B000000        	  3533: .long 0x0000000B
00:0000B75C 03000000        	  3534: .long 0x00000003
00:0000B760 07000000        	  3535: .long 0x00000007
00:0000B764 C00C0000        	  3536: .long 0x00000CC0
00:0000B768 00000000        	  3537: .long 0x00000000
00:0000B76C 675FA7EF        	  3538: .long 0xEFA75F67
00:0000B770 6BA7E176        	  3539: .long 0x76E1A76B
00:0000B774 00000000        	  3540: .long 0x00000000
00:0000B778 01000000        	  3541: .long 0x00000001
00:0000B77C 03000000        	  3542: .long 0x00000003
00:0000B780 000C0000        	  3543: .long 0x00000C00
00:0000B784 95581E89        	  3544: .long 0x891E5895
00:0000B788 675FA7EF        	  3545: .long 0xEFA75F67
00:0000B78C 00000000        	  3546: .long 0x00000000
00:0000B790 00000000        	  3547: .long 0x00000000
00:0000B794 01000000        	  3548: .long 0x00000001
00:0000B798 02000000        	  3549: .long 0x00000002
00:0000B79C 00080000        	  3550: .long 0x00000800
00:0000B7A0 6BA7E176        	  3551: .long 0x76E1A76B
00:0000B7A4 675FA7EF        	  3552: .long 0xEFA75F67
00:0000B7A8 00000000        	  3553: .long 0x00000000
00:0000B7AC 03000000        	  3554: .long 0x00000003
00:0000B7B0 00000000        	  3555: .long 0x00000000
00:0000B7B4 04000000        	  3556: .long 0x00000004
00:0000B7B8 00080000        	  3557: .long 0x00000800
00:0000B7BC 00000000        	  3558: .long 0x00000000
00:0000B7C0 675FA7EF        	  3559: .long 0xEFA75F67
00:0000B7C4 95581E89        	  3560: .long 0x891E5895
00:0000B7C8 00000000        	  3561: .long 0x00000000
00:0000B7CC 02000000        	  3562: .long 0x00000002
00:0000B7D0 04000000        	  3563: .long 0x00000004
00:0000B7D4 000C0000        	  3564: .long 0x00000C00
00:0000B7D8 00000000        	  3565: .long 0x00000000
00:0000B7DC 00000000        	  3566: .long 0x00000000
00:0000B7E0 00000000        	  3567: .long 0x00000000
00:0000B7E4 0A000000        	  3568: .long 0x0000000A
00:0000B7E8 02000000        	  3569: .long 0x00000002
00:0000B7EC 06000000        	  3570: .long 0x00000006
00:0000B7F0 C00C0000        	  3571: .long 0x00000CC0
00:0000B7F4 00000000        	  3572: .long 0x00000000
00:0000B7F8 00000000        	  3573: .long 0x00000000
00:0000B7FC 00000000        	  3574: .long 0x00000000
00:0000B800 0C000000        	  3575: .long 0x0000000C
00:0000B804 04000000        	  3576: .long 0x00000004
00:0000B808 08000000        	  3577: .long 0x00000008
00:0000B80C C00C0000        	  3578: .long 0x00000CC0
00:0000B810 00000000        	  3579: .long 0x00000000
00:0000B814 870FC900        	  3580: .long 0x00C90F87
00:0000B818 1F1D9201        	  3581: .long 0x01921D1F
00:0000B81C D7265B02        	  3582: .long 0x025B26D7
00:0000B820 BE2A2403        	  3583: .long 0x03242ABE
00:0000B824 E626ED03        	  3584: .long 0x03ED26E6
00:0000B828 5D19B604        	  3585: .long 0x04B6195D
00:0000B82C 34007F05        	  3586: .long 0x057F0034
00:0000B830 7CD94706        	  3587: .long 0x0647D97C
00:0000B834 44A31007        	  3588: .long 0x0710A344
00:0000B838 9E5BD907        	  3589: .long 0x07D95B9E
00:0000B83C 9A00A208        	  3590: .long 0x08A2009A
00:0000B840 49906A09        	  3591: .long 0x096A9049
00:0000B844 BC08330A        	  3592: .long 0x0A3308BC
00:0000B848 0568FB0A        	  3593: .long 0x0AFB6805
00:0000B84C 35ACC30B        	  3594: .long 0x0BC3AC35
00:0000B850 5DD38B0C        	  3595: .long 0x0C8BD35D
00:0000B854 92DB530D        	  3596: .long 0x0D53DB92
00:0000B858 E3C21B0E        	  3597: .long 0x0E1BC2E3
00:0000B85C 6587E30E        	  3598: .long 0x0EE38765
00:0000B860 2B27AB0F        	  3599: .long 0x0FAB272B
00:0000B864 47A07210        	  3600: .long 0x1072A047
00:0000B868 CEF03911        	  3601: .long 0x1139F0CE
00:0000B86C D4160112        	  3602: .long 0x120116D4
00:0000B870 6E10C812        	  3603: .long 0x12C8106E
00:0000B874 B0DB8E13        	  3604: .long 0x138EDBB0
00:0000B878 B1765514        	  3605: .long 0x145576B1
00:0000B87C 85DF1B15        	  3606: .long 0x151BDF85
00:0000B880 4414E215        	  3607: .long 0x15E21444
00:0000B884 0413A816        	  3608: .long 0x16A81304
00:0000B888 DED96D17        	  3609: .long 0x176DD9DE
00:0000B88C E8663318        	  3610: .long 0x183366E8
00:0000B890 3CB8F818        	  3611: .long 0x18F8B83C
00:0000B894 F2CBBD19        	  3612: .long 0x19BDCBF2
00:0000B898 25A0821A        	  3613: .long 0x1A82A025
00:0000B89C EE32471B        	  3614: .long 0x1B4732EE
00:0000B8A0 6A820B1C        	  3615: .long 0x1C0B826A
00:0000B8A4 B28CCF1C        	  3616: .long 0x1CCF8CB2
00:0000B8A8 E44F931D        	  3617: .long 0x1D934FE4
00:0000B8AC 1DCA561E        	  3618: .long 0x1E56CA1D
00:0000B8B0 7AF9191F        	  3619: .long 0x1F19F97A
00:0000B8B4 1ADCDC1F        	  3620: .long 0x1FDCDC1A
00:0000B8B8 1C709F20        	  3621: .long 0x209F701C
00:0000B8BC 9FB36121        	  3622: .long 0x2161B39F
00:0000B8C0 C5A42322        	  3623: .long 0x2223A4C5
00:0000B8C4 AE41E522        	  3624: .long 0x22E541AE
00:0000B8C8 7E88A623        	  3625: .long 0x23A6887E
00:0000B8CC 57776724        	  3626: .long 0x24677757
00:0000B8D0 5D0C2825        	  3627: .long 0x25280C5D
00:0000B8D4 B545E825        	  3628: .long 0x25E845B5
00:0000B8D8 8521A826        	  3629: .long 0x26A82185
00:0000B8DC F39D6727        	  3630: .long 0x27679DF3
00:0000B8E0 28B92628        	  3631: .long 0x2826B928
00:0000B8E4 4A71E528        	  3632: .long 0x28E5714A
00:0000B8E8 84C4A329        	  3633: .long 0x29A3C484
00:0000B8EC 01B1612A        	  3634: .long 0x2A61B101
00:0000B8F0 EB341F2B        	  3635: .long 0x2B1F34EB
00:0000B8F4 6E4EDC2B        	  3636: .long 0x2BDC4E6E
00:0000B8F8 BAFB982C        	  3637: .long 0x2C98FBBA
00:0000B8FC FB3A552D        	  3638: .long 0x2D553AFB
00:0000B900 610A112E        	  3639: .long 0x2E110A61
00:0000B904 1D68CC2E        	  3640: .long 0x2ECC681D
00:0000B908 6252872F        	  3641: .long 0x2F875262
00:0000B90C 60C74130        	  3642: .long 0x3041C760
00:0000B910 4CC5FB30        	  3643: .long 0x30FBC54C
00:0000B914 5D4AB531        	  3644: .long 0x31B54A5D
00:0000B918 C6546E32        	  3645: .long 0x326E54C6
00:0000B91C C2E22633        	  3646: .long 0x3326E2C2
00:0000B920 86F2DE33        	  3647: .long 0x33DEF286
00:0000B924 4F829634        	  3648: .long 0x3496824F
00:0000B928 56904D35        	  3649: .long 0x354D9056
00:0000B92C D81A0436        	  3650: .long 0x36041AD8
00:0000B930 1320BA36        	  3651: .long 0x36BA2013
00:0000B934 459E6F37        	  3652: .long 0x376F9E45
00:0000B938 AF932438        	  3653: .long 0x382493AF
00:0000B93C 92FED838        	  3654: .long 0x38D8FE92
00:0000B940 31DD8C39        	  3655: .long 0x398CDD31
00:0000B944 D12D403A        	  3656: .long 0x3A402DD1
00:0000B948 B6EEF23A        	  3657: .long 0x3AF2EEB6
00:0000B94C 281EA53B        	  3658: .long 0x3BA51E28
00:0000B950 6FBA563C        	  3659: .long 0x3C56BA6F
00:0000B954 D5C1073D        	  3660: .long 0x3D07C1D5
00:0000B958 A532B83D        	  3661: .long 0x3DB832A5
00:0000B95C 2C0B683E        	  3662: .long 0x3E680B2C
00:0000B960 B749173F        	  3663: .long 0x3F1749B7
00:0000B964 97ECC53F        	  3664: .long 0x3FC5EC97
00:0000B968 1CF27340        	  3665: .long 0x4073F21C
00:0000B96C 9A582141        	  3666: .long 0x4121589A
00:0000B970 631ECE41        	  3667: .long 0x41CE1E63
00:0000B974 D0417A42        	  3668: .long 0x427A41D0
00:0000B978 35C12543        	  3669: .long 0x4325C135
00:0000B97C EC9AD043        	  3670: .long 0x43D09AEC
00:0000B980 4FCD7A44        	  3671: .long 0x447ACD4F
00:0000B984 BC562445        	  3672: .long 0x452456BC
00:0000B988 8E35CD45        	  3673: .long 0x45CD358E
00:0000B98C 27687546        	  3674: .long 0x46756827
00:0000B990 E6EC1C47        	  3675: .long 0x471CECE6
00:0000B994 2EC2C347        	  3676: .long 0x47C3C22E
00:0000B998 64E66948        	  3677: .long 0x4869E664
00:0000B99C ED570F49        	  3678: .long 0x490F57ED
00:0000B9A0 3315B449        	  3679: .long 0x49B41533
00:0000B9A4 9D1C584A        	  3680: .long 0x4A581C9D
00:0000B9A8 976CFB4A        	  3681: .long 0x4AFB6C97
00:0000B9AC 8E039E4B        	  3682: .long 0x4B9E038E
00:0000B9B0 F3DF3F4C        	  3683: .long 0x4C3FDFF3
00:0000B9B4 3300E14C        	  3684: .long 0x4CE10033
00:0000B9B8 C362814D        	  3685: .long 0x4D8162C3
00:0000B9BC 1606214E        	  3686: .long 0x4E210616
00:0000B9C0 A4E8BF4E        	  3687: .long 0x4EBFE8A4
00:0000B9C4 E2085E4F        	  3688: .long 0x4F5E08E2
00:0000B9C8 4C65FB4F        	  3689: .long 0x4FFB654C
00:0000B9CC 5DFC9750        	  3690: .long 0x5097FC5D
00:0000B9D0 93CC3351        	  3691: .long 0x5133CC93
00:0000B9D4 6DD4CE51        	  3692: .long 0x51CED46D
00:0000B9D8 6D126952        	  3693: .long 0x5269126D
00:0000B9DC 17850253        	  3694: .long 0x53028517
00:0000B9E0 EF2A9B53        	  3695: .long 0x539B2AEF
00:0000B9E4 7C023354        	  3696: .long 0x5433027C
00:0000B9E8 490ACA54        	  3697: .long 0x54CA0A49
00:0000B9EC E2406055        	  3698: .long 0x556040E2
00:0000B9F0 D1A4F555        	  3699: .long 0x55F5A4D1
00:0000B9F4 A8348A56        	  3700: .long 0x568A34A8
00:0000B9F8 F8EE1D57        	  3701: .long 0x571DEEF8
00:0000B9FC 55D2B057        	  3702: .long 0x57B0D255
00:0000BA00 53DD4258        	  3703: .long 0x5842DD53
00:0000BA04 8B0ED458        	  3704: .long 0x58D40E8B
00:0000BA08 97646459        	  3705: .long 0x59646497
00:0000BA0C 11DEF359        	  3706: .long 0x59F3DE11
00:0000BA10 9979825A        	  3707: .long 0x5A827999
00:0000BA14 CE35105B        	  3708: .long 0x5B1035CE
00:0000BA18 53119D5B        	  3709: .long 0x5B9D1153
00:0000BA1C CB0A295C        	  3710: .long 0x5C290ACB
00:0000BA20 DF20B45C        	  3711: .long 0x5CB420DF
00:0000BA24 36523E5D        	  3712: .long 0x5D3E5236
00:0000BA28 7B9DC75D        	  3713: .long 0x5DC79D7B
00:0000BA2C 5C01505E        	  3714: .long 0x5E50015C
00:0000BA30 897CD75E        	  3715: .long 0x5ED77C89
00:0000BA34 B20D5E5F        	  3716: .long 0x5F5E0DB2
00:0000BA38 8CB3E35F        	  3717: .long 0x5FE3B38C
00:0000BA3C CD6C6860        	  3718: .long 0x60686CCD
00:0000BA40 2E38EC60        	  3719: .long 0x60EC382E
00:0000BA44 6A146F61        	  3720: .long 0x616F146A
00:0000BA48 3E00F161        	  3721: .long 0x61F1003E
00:0000BA4C 68FA7162        	  3722: .long 0x6271FA68
00:0000BA50 AB01F262        	  3723: .long 0x62F201AB
00:0000BA54 CB147163        	  3724: .long 0x637114CB
00:0000BA58 8E32EF63        	  3725: .long 0x63EF328E
00:0000BA5C BE596C64        	  3726: .long 0x646C59BE
00:0000BA60 2589E864        	  3727: .long 0x64E88925
00:0000BA64 91BF6365        	  3728: .long 0x6563BF91
00:0000BA68 D2FBDD65        	  3729: .long 0x65DDFBD2
00:0000BA6C BA3C5766        	  3730: .long 0x66573CBA
00:0000BA70 1E81CF66        	  3731: .long 0x66CF811E
00:0000BA74 D6C74667        	  3732: .long 0x6746C7D6
00:0000BA78 BB0FBD67        	  3733: .long 0x67BD0FBB
00:0000BA7C A9573268        	  3734: .long 0x683257A9
00:0000BA80 809EA668        	  3735: .long 0x68A69E80
00:0000BA84 1FE31969        	  3736: .long 0x6919E31F
00:0000BA88 6B248C69        	  3737: .long 0x698C246B
00:0000BA8C 4961FD69        	  3738: .long 0x69FD6149
00:0000BA90 A3986D6A        	  3739: .long 0x6A6D98A3
00:0000BA94 63C9DC6A        	  3740: .long 0x6ADCC963
00:0000BA98 77F24A6B        	  3741: .long 0x6B4AF277
00:0000BA9C CF12B86B        	  3742: .long 0x6BB812CF
00:0000BAA0 5F29246C        	  3743: .long 0x6C24295F
00:0000BAA4 1A358F6C        	  3744: .long 0x6C8F351A
00:0000BAA8 FB34F96C        	  3745: .long 0x6CF934FB
00:0000BAAC F927626D        	  3746: .long 0x6D6227F9
00:0000BAB0 130DCA6D        	  3747: .long 0x6DCA0D13
00:0000BAB4 49E3306E        	  3748: .long 0x6E30E349
00:0000BAB8 9CA9966E        	  3749: .long 0x6E96A99C
00:0000BABC 115FFB6E        	  3750: .long 0x6EFB5F11
00:0000BAC0 B1025F6F        	  3751: .long 0x6F5F02B1
00:0000BAC4 8493C16F        	  3752: .long 0x6FC19384
00:0000BAC8 98102370        	  3753: .long 0x70231098
00:0000BACC FE788370        	  3754: .long 0x708378FE
00:0000BAD0 C5CBE270        	  3755: .long 0x70E2CBC5
00:0000BAD4 03084171        	  3756: .long 0x71410803
00:0000BAD8 D12C9E71        	  3757: .long 0x719E2CD1
00:0000BADC 4739FA71        	  3758: .long 0x71FA3947
00:0000BAE0 842C5572        	  3759: .long 0x72552C84
00:0000BAE4 A605AF72        	  3760: .long 0x72AF05A6
00:0000BAE8 CFC30773        	  3761: .long 0x7307C3CF
00:0000BAEC 25665F73        	  3762: .long 0x735F6625
00:0000BAF0 D0EBB573        	  3763: .long 0x73B5EBD0
00:0000BAF4 F9530B74        	  3764: .long 0x740B53F9
00:0000BAF8 D09D5F74        	  3765: .long 0x745F9DD0
00:0000BAFC 82C8B274        	  3766: .long 0x74B2C882
00:0000BB00 44D30475        	  3767: .long 0x7504D344
00:0000BB04 4ABD5575        	  3768: .long 0x7555BD4A
00:0000BB08 CE85A575        	  3769: .long 0x75A585CE
00:0000BB0C 092CF475        	  3770: .long 0x75F42C09
00:0000BB10 3BAF4176        	  3771: .long 0x7641AF3B
00:0000BB14 A40E8E76        	  3772: .long 0x768E0EA4
00:0000BB18 8849D976        	  3773: .long 0x76D94988
00:0000BB1C 2C5F2377        	  3774: .long 0x77235F2C
00:0000BB20 DA4E6C77        	  3775: .long 0x776C4EDA
00:0000BB24 DE17B477        	  3776: .long 0x77B417DE
00:0000BB28 87B9FA77        	  3777: .long 0x77FAB987
00:0000BB2C 27334078        	  3778: .long 0x78403327
00:0000BB30 13848478        	  3779: .long 0x78848413
00:0000BB34 A0ABC778        	  3780: .long 0x78C7ABA0
00:0000BB38 2BA90979        	  3781: .long 0x7909A92B
00:0000BB3C 107C4A79        	  3782: .long 0x794A7C10
00:0000BB40 B0238A79        	  3783: .long 0x798A23B0
00:0000BB44 6C9FC879        	  3784: .long 0x79C89F6C
00:0000BB48 ACEE057A        	  3785: .long 0x7A05EEAC
00:0000BB4C D710427A        	  3786: .long 0x7A4210D7
00:0000BB50 5A057D7A        	  3787: .long 0x7A7D055A
00:0000BB54 A2CBB67A        	  3788: .long 0x7AB6CBA2
00:0000BB58 2263EF7A        	  3789: .long 0x7AEF6322
00:0000BB5C 4ECB267B        	  3790: .long 0x7B26CB4E
00:0000BB60 9C035D7B        	  3791: .long 0x7B5D039C
00:0000BB64 880B927B        	  3792: .long 0x7B920B88
00:0000BB68 8EE2C57B        	  3793: .long 0x7BC5E28E
00:0000BB6C 2F88F87B        	  3794: .long 0x7BF8882F
00:0000BB70 EDFB297C        	  3795: .long 0x7C29FBED
00:0000BB74 4E3D5A7C        	  3796: .long 0x7C5A3D4E
00:0000BB78 DC4B897C        	  3797: .long 0x7C894BDC
00:0000BB7C 2327B77C        	  3798: .long 0x7CB72723
00:0000BB80 B0CEE37C        	  3799: .long 0x7CE3CEB0
00:0000BB84 17420F7D        	  3800: .long 0x7D0F4217
00:0000BB88 EB80397D        	  3801: .long 0x7D3980EB
00:0000BB8C C58A627D        	  3802: .long 0x7D628AC5
00:0000BB90 3F5F8A7D        	  3803: .long 0x7D8A5F3F
00:0000BB94 F6FDB07D        	  3804: .long 0x7DB0FDF6
00:0000BB98 8D66D67D        	  3805: .long 0x7DD6668D
00:0000BB9C A798FA7D        	  3806: .long 0x7DFA98A7
00:0000BBA0 E8931D7E        	  3807: .long 0x7E1D93E8
00:0000BBA4 FD573F7E        	  3808: .long 0x7E3F57FD
00:0000BBA8 92E45F7E        	  3809: .long 0x7E5FE492
00:0000BBAC 55397F7E        	  3810: .long 0x7E7F3955
00:0000BBB0 FB559D7E        	  3811: .long 0x7E9D55FB
00:0000BBB4 383ABA7E        	  3812: .long 0x7EBA3A38
00:0000BBB8 C5E5D57E        	  3813: .long 0x7ED5E5C5
00:0000BBBC 5E58F07E        	  3814: .long 0x7EF0585E
00:0000BBC0 C291097F        	  3815: .long 0x7F0991C2
00:0000BBC4 B391217F        	  3816: .long 0x7F2191B3
00:0000BBC8 F557387F        	  3817: .long 0x7F3857F5
00:0000BBCC 4FE44D7F        	  3818: .long 0x7F4DE44F
00:0000BBD0 8E36627F        	  3819: .long 0x7F62368E
00:0000BBD4 7E4E757F        	  3820: .long 0x7F754E7E
00:0000BBD8 F22B877F        	  3821: .long 0x7F872BF2
00:0000BBDC BCCE977F        	  3822: .long 0x7F97CEBC
00:0000BBE0 B336A77F        	  3823: .long 0x7FA736B3
00:0000BBE4 B263B57F        	  3824: .long 0x7FB563B2
00:0000BBE8 9555C27F        	  3825: .long 0x7FC25595
00:0000BBEC 3D0CCE7F        	  3826: .long 0x7FCE0C3D
00:0000BBF0 8D87D87F        	  3827: .long 0x7FD8878D
00:0000BBF4 6AC7E17F        	  3828: .long 0x7FE1C76A
00:0000BBF8 BFCBE97F        	  3829: .long 0x7FE9CBBF
00:0000BBFC 7794F07F        	  3830: .long 0x7FF09477
00:0000BC00 8121F67F        	  3831: .long 0x7FF62181
00:0000BC04 D072FA7F        	  3832: .long 0x7FFA72D0
00:0000BC08 5988FD7F        	  3833: .long 0x7FFD8859
00:0000BC0C 1662FF7F        	  3834: .long 0x7FFF6216
00:0000BC10 FEFFFF7F        	  3835: .long 0x7FFFFFFE
00:0000BC14 1662FF7F        	  3836: .long 0x7FFF6216
00:0000BC18 5988FD7F        	  3837: .long 0x7FFD8859
00:0000BC1C D072FA7F        	  3838: .long 0x7FFA72D0
00:0000BC20 8121F67F        	  3839: .long 0x7FF62181
00:0000BC24 7794F07F        	  3840: .long 0x7FF09477
00:0000BC28 BFCBE97F        	  3841: .long 0x7FE9CBBF
00:0000BC2C 6AC7E17F        	  3842: .long 0x7FE1C76A
00:0000BC30 8D87D87F        	  3843: .long 0x7FD8878D
00:0000BC34 3D0CCE7F        	  3844: .long 0x7FCE0C3D
00:0000BC38 9555C27F        	  3845: .long 0x7FC25595
00:0000BC3C B263B57F        	  3846: .long 0x7FB563B2
00:0000BC40 B336A77F        	  3847: .long 0x7FA736B3
00:0000BC44 BCCE977F        	  3848: .long 0x7F97CEBC
00:0000BC48 F22B877F        	  3849: .long 0x7F872BF2
00:0000BC4C 7E4E757F        	  3850: .long 0x7F754E7E
00:0000BC50 8E36627F        	  3851: .long 0x7F62368E
00:0000BC54 4FE44D7F        	  3852: .long 0x7F4DE44F
00:0000BC58 F557387F        	  3853: .long 0x7F3857F5
00:0000BC5C B391217F        	  3854: .long 0x7F2191B3
00:0000BC60 C291097F        	  3855: .long 0x7F0991C2
00:0000BC64 5E58F07E        	  3856: .long 0x7EF0585E
00:0000BC68 C5E5D57E        	  3857: .long 0x7ED5E5C5
00:0000BC6C 383ABA7E        	  3858: .long 0x7EBA3A38
00:0000BC70 FB559D7E        	  3859: .long 0x7E9D55FB
00:0000BC74 55397F7E        	  3860: .long 0x7E7F3955
00:0000BC78 92E45F7E        	  3861: .long 0x7E5FE492
00:0000BC7C FD573F7E        	  3862: .long 0x7E3F57FD
00:0000BC80 E8931D7E        	  3863: .long 0x7E1D93E8
00:0000BC84 A798FA7D        	  3864: .long 0x7DFA98A7
00:0000BC88 8D66D67D        	  3865: .long 0x7DD6668D
00:0000BC8C F6FDB07D        	  3866: .long 0x7DB0FDF6
00:0000BC90 3F5F8A7D        	  3867: .long 0x7D8A5F3F
00:0000BC94 C58A627D        	  3868: .long 0x7D628AC5
00:0000BC98 EB80397D        	  3869: .long 0x7D3980EB
00:0000BC9C 17420F7D        	  3870: .long 0x7D0F4217
00:0000BCA0 B0CEE37C        	  3871: .long 0x7CE3CEB0
00:0000BCA4 2327B77C        	  3872: .long 0x7CB72723
00:0000BCA8 DC4B897C        	  3873: .long 0x7C894BDC
00:0000BCAC 4E3D5A7C        	  3874: .long 0x7C5A3D4E
00:0000BCB0 EDFB297C        	  3875: .long 0x7C29FBED
00:0000BCB4 2F88F87B        	  3876: .long 0x7BF8882F
00:0000BCB8 8EE2C57B        	  3877: .long 0x7BC5E28E
00:0000BCBC 880B927B        	  3878: .long 0x7B920B88
00:0000BCC0 9C035D7B        	  3879: .long 0x7B5D039C
00:0000BCC4 4ECB267B        	  3880: .long 0x7B26CB4E
00:0000BCC8 2263EF7A        	  3881: .long 0x7AEF6322
00:0000BCCC A2CBB67A        	  3882: .long 0x7AB6CBA2
00:0000BCD0 5A057D7A        	  3883: .long 0x7A7D055A
00:0000BCD4 D710427A        	  3884: .long 0x7A4210D7
00:0000BCD8 ACEE057A        	  3885: .long 0x7A05EEAC
00:0000BCDC 6C9FC879        	  3886: .long 0x79C89F6C
00:0000BCE0 B0238A79        	  3887: .long 0x798A23B0
00:0000BCE4 107C4A79        	  3888: .long 0x794A7C10
00:0000BCE8 2BA90979        	  3889: .long 0x7909A92B
00:0000BCEC A0ABC778        	  3890: .long 0x78C7ABA0
00:0000BCF0 13848478        	  3891: .long 0x78848413
00:0000BCF4 27334078        	  3892: .long 0x78403327
00:0000BCF8 87B9FA77        	  3893: .long 0x77FAB987
00:0000BCFC DE17B477        	  3894: .long 0x77B417DE
00:0000BD00 DA4E6C77        	  3895: .long 0x776C4EDA
00:0000BD04 2C5F2377        	  3896: .long 0x77235F2C
00:0000BD08 8849D976        	  3897: .long 0x76D94988
00:0000BD0C A40E8E76        	  3898: .long 0x768E0EA4
00:0000BD10 3BAF4176        	  3899: .long 0x7641AF3B
00:0000BD14 092CF475        	  3900: .long 0x75F42C09
00:0000BD18 CE85A575        	  3901: .long 0x75A585CE
00:0000BD1C 4ABD5575        	  3902: .long 0x7555BD4A
00:0000BD20 44D30475        	  3903: .long 0x7504D344
00:0000BD24 82C8B274        	  3904: .long 0x74B2C882
00:0000BD28 D09D5F74        	  3905: .long 0x745F9DD0
00:0000BD2C FA530B74        	  3906: .long 0x740B53FA
00:0000BD30 D0EBB573        	  3907: .long 0x73B5EBD0
00:0000BD34 25665F73        	  3908: .long 0x735F6625
00:0000BD38 CFC30773        	  3909: .long 0x7307C3CF
00:0000BD3C A505AF72        	  3910: .long 0x72AF05A5
00:0000BD40 842C5572        	  3911: .long 0x72552C84
00:0000BD44 4839FA71        	  3912: .long 0x71FA3948
00:0000BD48 D12C9E71        	  3913: .long 0x719E2CD1
00:0000BD4C 03084171        	  3914: .long 0x71410803
00:0000BD50 C5CBE270        	  3915: .long 0x70E2CBC5
00:0000BD54 FD788370        	  3916: .long 0x708378FD
00:0000BD58 98102370        	  3917: .long 0x70231098
00:0000BD5C 8493C16F        	  3918: .long 0x6FC19384
00:0000BD60 B0025F6F        	  3919: .long 0x6F5F02B0
00:0000BD64 115FFB6E        	  3920: .long 0x6EFB5F11
00:0000BD68 9CA9966E        	  3921: .long 0x6E96A99C
00:0000BD6C 48E3306E        	  3922: .long 0x6E30E348
00:0000BD70 130DCA6D        	  3923: .long 0x6DCA0D13
00:0000BD74 F927626D        	  3924: .long 0x6D6227F9
00:0000BD78 FB34F96C        	  3925: .long 0x6CF934FB
00:0000BD7C 1A358F6C        	  3926: .long 0x6C8F351A
00:0000BD80 5F29246C        	  3927: .long 0x6C24295F
00:0000BD84 D012B86B        	  3928: .long 0x6BB812D0
00:0000BD88 77F24A6B        	  3929: .long 0x6B4AF277
00:0000BD8C 63C9DC6A        	  3930: .long 0x6ADCC963
00:0000BD90 A3986D6A        	  3931: .long 0x6A6D98A3
00:0000BD94 4961FD69        	  3932: .long 0x69FD6149
00:0000BD98 6B248C69        	  3933: .long 0x698C246B
00:0000BD9C 20E31969        	  3934: .long 0x6919E320
00:0000BDA0 809EA668        	  3935: .long 0x68A69E80
00:0000BDA4 AA573268        	  3936: .long 0x683257AA
00:0000BDA8 BC0FBD67        	  3937: .long 0x67BD0FBC
00:0000BDAC D6C74667        	  3938: .long 0x6746C7D6
00:0000BDB0 1E81CF66        	  3939: .long 0x66CF811E
00:0000BDB4 BA3C5766        	  3940: .long 0x66573CBA
00:0000BDB8 D1FBDD65        	  3941: .long 0x65DDFBD1
00:0000BDBC 91BF6365        	  3942: .long 0x6563BF91
00:0000BDC0 2589E864        	  3943: .long 0x64E88925
00:0000BDC4 BF596C64        	  3944: .long 0x646C59BF
00:0000BDC8 8E32EF63        	  3945: .long 0x63EF328E
00:0000BDCC CB147163        	  3946: .long 0x637114CB
00:0000BDD0 AC01F262        	  3947: .long 0x62F201AC
00:0000BDD4 68FA7162        	  3948: .long 0x6271FA68
00:0000BDD8 3E00F161        	  3949: .long 0x61F1003E
00:0000BDDC 6B146F61        	  3950: .long 0x616F146B
00:0000BDE0 2E38EC60        	  3951: .long 0x60EC382E
00:0000BDE4 CE6C6860        	  3952: .long 0x60686CCE
00:0000BDE8 8DB3E35F        	  3953: .long 0x5FE3B38D
00:0000BDEC B20D5E5F        	  3954: .long 0x5F5E0DB2
00:0000BDF0 897CD75E        	  3955: .long 0x5ED77C89
00:0000BDF4 5D01505E        	  3956: .long 0x5E50015D
00:0000BDF8 7B9DC75D        	  3957: .long 0x5DC79D7B
00:0000BDFC 36523E5D        	  3958: .long 0x5D3E5236
00:0000BE00 DF20B45C        	  3959: .long 0x5CB420DF
00:0000BE04 CB0A295C        	  3960: .long 0x5C290ACB
00:0000BE08 53119D5B        	  3961: .long 0x5B9D1153
00:0000BE0C CF35105B        	  3962: .long 0x5B1035CF
00:0000BE10 9A79825A        	  3963: .long 0x5A82799A
00:0000BE14 11DEF359        	  3964: .long 0x59F3DE11
00:0000BE18 97646459        	  3965: .long 0x59646497
00:0000BE1C 8C0ED458        	  3966: .long 0x58D40E8C
00:0000BE20 53DD4258        	  3967: .long 0x5842DD53
00:0000BE24 56D2B057        	  3968: .long 0x57B0D256
00:0000BE28 FAEE1D57        	  3969: .long 0x571DEEFA
00:0000BE2C A8348A56        	  3970: .long 0x568A34A8
00:0000BE30 D2A4F555        	  3971: .long 0x55F5A4D2
00:0000BE34 E2406055        	  3972: .long 0x556040E2
00:0000BE38 490ACA54        	  3973: .long 0x54CA0A49
00:0000BE3C 7D023354        	  3974: .long 0x5433027D
00:0000BE40 EF2A9B53        	  3975: .long 0x539B2AEF
00:0000BE44 16850253        	  3976: .long 0x53028516
00:0000BE48 6E126952        	  3977: .long 0x5269126E
00:0000BE4C 6ED4CE51        	  3978: .long 0x51CED46E
00:0000BE50 93CC3351        	  3979: .long 0x5133CC93
00:0000BE54 5DFC9750        	  3980: .long 0x5097FC5D
00:0000BE58 4D65FB4F        	  3981: .long 0x4FFB654D
00:0000BE5C E2085E4F        	  3982: .long 0x4F5E08E2
00:0000BE60 A4E8BF4E        	  3983: .long 0x4EBFE8A4
00:0000BE64 1706214E        	  3984: .long 0x4E210617
00:0000BE68 C462814D        	  3985: .long 0x4D8162C4
00:0000BE6C 3300E14C        	  3986: .long 0x4CE10033
00:0000BE70 F3DF3F4C        	  3987: .long 0x4C3FDFF3
00:0000BE74 90039E4B        	  3988: .long 0x4B9E0390
00:0000BE78 976CFB4A        	  3989: .long 0x4AFB6C97
00:0000BE7C 9D1C584A        	  3990: .long 0x4A581C9D
00:0000BE80 3315B449        	  3991: .long 0x49B41533
00:0000BE84 ED570F49        	  3992: .long 0x490F57ED
00:0000BE88 64E66948        	  3993: .long 0x4869E664
00:0000BE8C 2FC2C347        	  3994: .long 0x47C3C22F
00:0000BE90 E6EC1C47        	  3995: .long 0x471CECE6
00:0000BE94 27687546        	  3996: .long 0x46756827
00:0000BE98 8F35CD45        	  3997: .long 0x45CD358F
00:0000BE9C BC562445        	  3998: .long 0x452456BC
00:0000BEA0 50CD7A44        	  3999: .long 0x447ACD50
00:0000BEA4 EC9AD043        	  4000: .long 0x43D09AEC
00:0000BEA8 34C12543        	  4001: .long 0x4325C134
00:0000BEAC D0417A42        	  4002: .long 0x427A41D0
00:0000BEB0 641ECE41        	  4003: .long 0x41CE1E64
00:0000BEB4 9B582141        	  4004: .long 0x4121589B
00:0000BEB8 1CF27340        	  4005: .long 0x4073F21C
00:0000BEBC 98ECC53F        	  4006: .long 0x3FC5EC98
00:0000BEC0 B849173F        	  4007: .long 0x3F1749B8
00:0000BEC4 2C0B683E        	  4008: .long 0x3E680B2C
00:0000BEC8 A632B83D        	  4009: .long 0x3DB832A6
00:0000BECC D6C1073D        	  4010: .long 0x3D07C1D6
00:0000BED0 6FBA563C        	  4011: .long 0x3C56BA6F
00:0000BED4 281EA53B        	  4012: .long 0x3BA51E28
00:0000BED8 B7EEF23A        	  4013: .long 0x3AF2EEB7
00:0000BEDC D02D403A        	  4014: .long 0x3A402DD0
00:0000BEE0 32DD8C39        	  4015: .long 0x398CDD32
00:0000BEE4 93FED838        	  4016: .long 0x38D8FE93
00:0000BEE8 AF932438        	  4017: .long 0x382493AF
00:0000BEEC 459E6F37        	  4018: .long 0x376F9E45
00:0000BEF0 1320BA36        	  4019: .long 0x36BA2013
00:0000BEF4 D71A0436        	  4020: .long 0x36041AD7
00:0000BEF8 56904D35        	  4021: .long 0x354D9056
00:0000BEFC 4F829634        	  4022: .long 0x3496824F
00:0000BF00 87F2DE33        	  4023: .long 0x33DEF287
00:0000BF04 C1E22633        	  4024: .long 0x3326E2C1
00:0000BF08 C7546E32        	  4025: .long 0x326E54C7
00:0000BF0C 5E4AB531        	  4026: .long 0x31B54A5E
00:0000BF10 4CC5FB30        	  4027: .long 0x30FBC54C
00:0000BF14 60C74130        	  4028: .long 0x3041C760
00:0000BF18 6252872F        	  4029: .long 0x2F875262
00:0000BF1C 1D68CC2E        	  4030: .long 0x2ECC681D
00:0000BF20 610A112E        	  4031: .long 0x2E110A61
00:0000BF24 FC3A552D        	  4032: .long 0x2D553AFC
00:0000BF28 B9FB982C        	  4033: .long 0x2C98FBB9
00:0000BF2C 6F4EDC2B        	  4034: .long 0x2BDC4E6F
00:0000BF30 EB341F2B        	  4035: .long 0x2B1F34EB
00:0000BF34 00B1612A        	  4036: .long 0x2A61B100
00:0000BF38 84C4A329        	  4037: .long 0x29A3C484
00:0000BF3C 4B71E528        	  4038: .long 0x28E5714B
00:0000BF40 27B92628        	  4039: .long 0x2826B927
00:0000BF44 F39D6727        	  4040: .long 0x27679DF3
00:0000BF48 8621A826        	  4041: .long 0x26A82186
00:0000BF4C B645E825        	  4042: .long 0x25E845B6
00:0000BF50 5D0C2825        	  4043: .long 0x25280C5D
00:0000BF54 57776724        	  4044: .long 0x24677757
00:0000BF58 7F88A623        	  4045: .long 0x23A6887F
00:0000BF5C AE41E522        	  4046: .long 0x22E541AE
00:0000BF60 C5A42322        	  4047: .long 0x2223A4C5
00:0000BF64 A0B36121        	  4048: .long 0x2161B3A0
00:0000BF68 1B709F20        	  4049: .long 0x209F701B
00:0000BF6C 1ADCDC1F        	  4050: .long 0x1FDCDC1A
00:0000BF70 7BF9191F        	  4051: .long 0x1F19F97B
00:0000BF74 1DCA561E        	  4052: .long 0x1E56CA1D
00:0000BF78 E54F931D        	  4053: .long 0x1D934FE5
00:0000BF7C B38CCF1C        	  4054: .long 0x1CCF8CB3
00:0000BF80 69820B1C        	  4055: .long 0x1C0B8269
00:0000BF84 EF32471B        	  4056: .long 0x1B4732EF
00:0000BF88 26A0821A        	  4057: .long 0x1A82A026
00:0000BF8C F1CBBD19        	  4058: .long 0x19BDCBF1
00:0000BF90 3CB8F818        	  4059: .long 0x18F8B83C
00:0000BF94 E8663318        	  4060: .long 0x183366E8
00:0000BF98 DDD96D17        	  4061: .long 0x176DD9DD
00:0000BF9C 0413A816        	  4062: .long 0x16A81304
00:0000BFA0 4414E215        	  4063: .long 0x15E21444
00:0000BFA4 86DF1B15        	  4064: .long 0x151BDF86
00:0000BFA8 B0765514        	  4065: .long 0x145576B0
00:0000BFAC B1DB8E13        	  4066: .long 0x138EDBB1
00:0000BFB0 6F10C812        	  4067: .long 0x12C8106F
00:0000BFB4 D4160112        	  4068: .long 0x120116D4
00:0000BFB8 CFF03911        	  4069: .long 0x1139F0CF
00:0000BFBC 48A07210        	  4070: .long 0x1072A048
00:0000BFC0 2A27AB0F        	  4071: .long 0x0FAB272A
00:0000BFC4 6587E30E        	  4072: .long 0x0EE38765
00:0000BFC8 E4C21B0E        	  4073: .long 0x0E1BC2E4
00:0000BFCC 91DB530D        	  4074: .long 0x0D53DB91
00:0000BFD0 5ED38B0C        	  4075: .long 0x0C8BD35E
00:0000BFD4 35ACC30B        	  4076: .long 0x0BC3AC35
00:0000BFD8 0468FB0A        	  4077: .long 0x0AFB6804
00:0000BFDC BC08330A        	  4078: .long 0x0A3308BC
00:0000BFE0 49906A09        	  4079: .long 0x096A9049
00:0000BFE4 9900A208        	  4080: .long 0x08A20099
00:0000BFE8 9E5BD907        	  4081: .long 0x07D95B9E
00:0000BFEC 45A31007        	  4082: .long 0x0710A345
00:0000BFF0 7DD94706        	  4083: .long 0x0647D97D
00:0000BFF4 34007F05        	  4084: .long 0x057F0034
00:0000BFF8 5D19B604        	  4085: .long 0x04B6195D
00:0000BFFC E726ED03        	  4086: .long 0x03ED26E7
00:0000C000 BE2A2403        	  4087: .long 0x03242ABE
00:0000C004 D7265B02        	  4088: .long 0x025B26D7
00:0000C008 201D9201        	  4089: .long 0x01921D20
00:0000C00C 870FC900        	  4090: .long 0x00C90F87
00:0000C010 00000000        	  4091: .long 0x00000000
00:0000C014 79F036FF        	  4092: .long 0xFF36F079
00:0000C018 E0E26DFE        	  4093: .long 0xFE6DE2E0
00:0000C01C 29D9A4FD        	  4094: .long 0xFDA4D929
00:0000C020 42D5DBFC        	  4095: .long 0xFCDBD542
00:0000C024 1AD912FC        	  4096: .long 0xFC12D91A
00:0000C028 A3E649FB        	  4097: .long 0xFB49E6A3
00:0000C02C CDFF80FA        	  4098: .long 0xFA80FFCD
00:0000C030 8426B8F9        	  4099: .long 0xF9B82684
00:0000C034 BC5CEFF8        	  4100: .long 0xF8EF5CBC
00:0000C038 63A426F8        	  4101: .long 0xF826A463
00:0000C03C 67FF5DF7        	  4102: .long 0xF75DFF67
00:0000C040 B76F95F6        	  4103: .long 0xF6956FB7
00:0000C044 45F7CCF5        	  4104: .long 0xF5CCF745
00:0000C048 FC9704F5        	  4105: .long 0xF50497FC
00:0000C04C CB533CF4        	  4106: .long 0xF43C53CB
00:0000C050 A32C74F3        	  4107: .long 0xF3742CA3
00:0000C054 7024ACF2        	  4108: .long 0xF2AC2470
00:0000C058 1D3DE4F1        	  4109: .long 0xF1E43D1D
00:0000C05C 9B781CF1        	  4110: .long 0xF11C789B
00:0000C060 D6D854F0        	  4111: .long 0xF054D8D6
00:0000C064 B95F8DEF        	  4112: .long 0xEF8D5FB9
00:0000C068 320FC6EE        	  4113: .long 0xEEC60F32
00:0000C06C 2DE9FEED        	  4114: .long 0xEDFEE92D
00:0000C070 92EF37ED        	  4115: .long 0xED37EF92
00:0000C074 502471EC        	  4116: .long 0xEC712450
00:0000C078 5089AAEB        	  4117: .long 0xEBAA8950
00:0000C07C 7B20E4EA        	  4118: .long 0xEAE4207B
00:0000C080 BCEB1DEA        	  4119: .long 0xEA1DEBBC
00:0000C084 FCEC57E9        	  4120: .long 0xE957ECFC
00:0000C088 242692E8        	  4121: .long 0xE8922624
00:0000C08C 1899CCE7        	  4122: .long 0xE7CC9918
00:0000C090 C54707E7        	  4123: .long 0xE70747C5
00:0000C094 0F3442E6        	  4124: .long 0xE642340F
00:0000C098 DB5F7DE5        	  4125: .long 0xE57D5FDB
00:0000C09C 12CDB8E4        	  4126: .long 0xE4B8CD12
00:0000C0A0 977DF4E3        	  4127: .long 0xE3F47D97
00:0000C0A4 4D7330E3        	  4128: .long 0xE330734D
00:0000C0A8 1CB06CE2        	  4129: .long 0xE26CB01C
00:0000C0AC E435A9E1        	  4130: .long 0xE1A935E4
00:0000C0B0 8506E6E0        	  4131: .long 0xE0E60685
00:0000C0B4 E62323E0        	  4132: .long 0xE02323E6
00:0000C0B8 E58F60DF        	  4133: .long 0xDF608FE5
00:0000C0BC 614C9EDE        	  4134: .long 0xDE9E4C61
00:0000C0C0 3C5BDCDD        	  4135: .long 0xDDDC5B3C
00:0000C0C4 53BE1ADD        	  4136: .long 0xDD1ABE53
00:0000C0C8 827759DC        	  4137: .long 0xDC597782
00:0000C0CC A98898DB        	  4138: .long 0xDB9888A9
00:0000C0D0 A4F3D7DA        	  4139: .long 0xDAD7F3A4
00:0000C0D4 4ABA17DA        	  4140: .long 0xDA17BA4A
00:0000C0D8 7BDE57D9        	  4141: .long 0xD957DE7B
00:0000C0DC 0D6298D8        	  4142: .long 0xD898620D
00:0000C0E0 DA46D9D7        	  4143: .long 0xD7D946DA
00:0000C0E4 B68E1AD7        	  4144: .long 0xD71A8EB6
00:0000C0E8 7C3B5CD6        	  4145: .long 0xD65C3B7C
00:0000C0EC 014F9ED5        	  4146: .long 0xD59E4F01
00:0000C0F0 15CBE0D4        	  4147: .long 0xD4E0CB15
00:0000C0F4 92B123D4        	  4148: .long 0xD423B192
00:0000C0F8 470467D3        	  4149: .long 0xD3670447
00:0000C0FC 05C5AAD2        	  4150: .long 0xD2AAC505
00:0000C100 9FF5EED1        	  4151: .long 0xD1EEF59F
00:0000C104 E39733D1        	  4152: .long 0xD13397E3
00:0000C108 9EAD78D0        	  4153: .long 0xD078AD9E
00:0000C10C A138BECF        	  4154: .long 0xCFBE38A1
00:0000C110 B53A04CF        	  4155: .long 0xCF043AB5
00:0000C114 A3B54ACE        	  4156: .long 0xCE4AB5A3
00:0000C118 3AAB91CD        	  4157: .long 0xCD91AB3A
00:0000C11C 3F1DD9CC        	  4158: .long 0xCCD91D3F
00:0000C120 790D21CC        	  4159: .long 0xCC210D79
00:0000C124 B17D69CB        	  4160: .long 0xCB697DB1
00:0000C128 AB6FB2CA        	  4161: .long 0xCAB26FAB
00:0000C12C 29E5FBC9        	  4162: .long 0xC9FBE529
00:0000C130 EDDF45C9        	  4163: .long 0xC945DFED
00:0000C134 BC6190C8        	  4164: .long 0xC89061BC
00:0000C138 526CDBC7        	  4165: .long 0xC7DB6C52
00:0000C13C 6E0127C7        	  4166: .long 0xC727016E
00:0000C140 CF2273C6        	  4167: .long 0xC67322CF
00:0000C144 30D2BFC5        	  4168: .long 0xC5BFD230
00:0000C148 4A110DC5        	  4169: .long 0xC50D114A
00:0000C14C D8E15AC4        	  4170: .long 0xC45AE1D8
00:0000C150 9245A9C3        	  4171: .long 0xC3A94592
00:0000C154 2B3EF8C2        	  4172: .long 0xC2F83E2B
00:0000C158 5BCD47C2        	  4173: .long 0xC247CD5B
00:0000C15C D5F497C1        	  4174: .long 0xC197F4D5
00:0000C160 49B6E8C0        	  4175: .long 0xC0E8B649
00:0000C164 69133AC0        	  4176: .long 0xC03A1369
00:0000C168 E50D8CBF        	  4177: .long 0xBF8C0DE5
00:0000C16C 66A7DEBE        	  4178: .long 0xBEDEA766
00:0000C170 9DE131BE        	  4179: .long 0xBE31E19D
00:0000C174 31BE85BD        	  4180: .long 0xBD85BE31
00:0000C178 CD3EDABC        	  4181: .long 0xBCDA3ECD
00:0000C17C 14652FBC        	  4182: .long 0xBC2F6514
00:0000C180 B13285BB        	  4183: .long 0xBB8532B1
00:0000C184 45A9DBBA        	  4184: .long 0xBADBA945
00:0000C188 72CA32BA        	  4185: .long 0xBA32CA72
00:0000C18C DA978AB9        	  4186: .long 0xB98A97DA
00:0000C190 1B13E3B8        	  4187: .long 0xB8E3131B
00:0000C194 D23D3CB8        	  4188: .long 0xB83C3DD2
00:0000C198 9D1996B7        	  4189: .long 0xB796199D
00:0000C19C 14A8F0B6        	  4190: .long 0xB6F0A814
00:0000C1A0 CDEA4BB6        	  4191: .long 0xB64BEACD
00:0000C1A4 64E3A7B5        	  4192: .long 0xB5A7E364
00:0000C1A8 6A9304B5        	  4193: .long 0xB504936A
00:0000C1AC 71FC61B4        	  4194: .long 0xB461FC71
00:0000C1B0 0E20C0B3        	  4195: .long 0xB3C0200E
00:0000C1B4 CEFF1EB3        	  4196: .long 0xB31EFFCE
00:0000C1B8 3D9D7EB2        	  4197: .long 0xB27E9D3D
00:0000C1BC EAF9DEB1        	  4198: .long 0xB1DEF9EA
00:0000C1C0 5D1740B1        	  4199: .long 0xB140175D
00:0000C1C4 1FF7A1B0        	  4200: .long 0xB0A1F71F
00:0000C1C8 B49A04B0        	  4201: .long 0xB0049AB4
00:0000C1CC A30368AF        	  4202: .long 0xAF6803A3
00:0000C1D0 6E33CCAE        	  4203: .long 0xAECC336E
00:0000C1D4 932B31AE        	  4204: .long 0xAE312B93
00:0000C1D8 93ED96AD        	  4205: .long 0xAD96ED93
00:0000C1DC EA7AFDAC        	  4206: .long 0xACFD7AEA
00:0000C1E0 11D564AC        	  4207: .long 0xAC64D511
00:0000C1E4 84FDCCAB        	  4208: .long 0xABCCFD84
00:0000C1E8 B7F535AB        	  4209: .long 0xAB35F5B7
00:0000C1EC 1EBF9FAA        	  4210: .long 0xAA9FBF1E
00:0000C1F0 2F5B0AAA        	  4211: .long 0xAA0A5B2F
00:0000C1F4 58CB75A9        	  4212: .long 0xA975CB58
00:0000C1F8 0711E2A8        	  4213: .long 0xA8E21107
00:0000C1FC AB2D4FA8        	  4214: .long 0xA84F2DAB
00:0000C200 AD22BDA7        	  4215: .long 0xA7BD22AD
00:0000C204 74F12BA7        	  4216: .long 0xA72BF174
00:0000C208 699B9BA6        	  4217: .long 0xA69B9B69
00:0000C20C EF210CA6        	  4218: .long 0xA60C21EF
00:0000C210 67867DA5        	  4219: .long 0xA57D8667
00:0000C214 32CAEFA4        	  4220: .long 0xA4EFCA32
00:0000C218 AEEE62A4        	  4221: .long 0xA462EEAE
00:0000C21C 36F5D6A3        	  4222: .long 0xA3D6F536
00:0000C220 21DF4BA3        	  4223: .long 0xA34BDF21
00:0000C224 CBADC1A2        	  4224: .long 0xA2C1ADCB
00:0000C228 866238A2        	  4225: .long 0xA2386286
00:0000C22C A4FEAFA1        	  4226: .long 0xA1AFFEA4
00:0000C230 788328A1        	  4227: .long 0xA1288378
00:0000C234 4FF2A1A0        	  4228: .long 0xA0A1F24F
00:0000C238 744C1CA0        	  4229: .long 0xA01C4C74
00:0000C23C 3393979F        	  4230: .long 0x9F979333
00:0000C240 D2C7139F        	  4231: .long 0x9F13C7D2
00:0000C244 96EB909E        	  4232: .long 0x9E90EB96
00:0000C248 C4FF0E9E        	  4233: .long 0x9E0EFFC4
00:0000C24C 99058E9D        	  4234: .long 0x9D8E0599
00:0000C250 55FE0D9D        	  4235: .long 0x9D0DFE55
00:0000C254 37EB8E9C        	  4236: .long 0x9C8EEB37
00:0000C258 72CD109C        	  4237: .long 0x9C10CD72
00:0000C25C 42A6939B        	  4238: .long 0x9B93A642
00:0000C260 DD76179B        	  4239: .long 0x9B1776DD
00:0000C264 70409C9A        	  4240: .long 0x9A9C4070
00:0000C268 2E04229A        	  4241: .long 0x9A22042E
00:0000C26C 47C3A899        	  4242: .long 0x99A8C347
00:0000C270 E27E3099        	  4243: .long 0x99307EE2
00:0000C274 2938B998        	  4244: .long 0x98B93829
00:0000C278 46F04298        	  4245: .long 0x9842F046
00:0000C27C 57A8CD97        	  4246: .long 0x97CDA857
00:0000C280 80615997        	  4247: .long 0x97596180
00:0000C284 E21CE696        	  4248: .long 0x96E61CE2
00:0000C288 96DB7396        	  4249: .long 0x9673DB96
00:0000C28C B69E0296        	  4250: .long 0x96029EB6
00:0000C290 5E679295        	  4251: .long 0x9592675E
00:0000C294 9D362395        	  4252: .long 0x9523369D
00:0000C298 880DB594        	  4253: .long 0x94B50D88
00:0000C29C 31ED4794        	  4254: .long 0x9447ED31
00:0000C2A0 A1D6DB93        	  4255: .long 0x93DBD6A1
00:0000C2A4 E4CA7093        	  4256: .long 0x9370CAE4
00:0000C2A8 06CB0693        	  4257: .long 0x9306CB06
00:0000C2AC 07D89D92        	  4258: .long 0x929DD807
00:0000C2B0 ECF23592        	  4259: .long 0x9235F2EC
00:0000C2B4 B81CCF91        	  4260: .long 0x91CF1CB8
00:0000C2B8 64566991        	  4261: .long 0x91695664
00:0000C2BC EEA00491        	  4262: .long 0x9104A0EE
00:0000C2C0 50FDA090        	  4263: .long 0x90A0FD50
00:0000C2C4 7C6C3E90        	  4264: .long 0x903E6C7C
00:0000C2C8 67EFDC8F        	  4265: .long 0x8FDCEF67
00:0000C2CC 03877C8F        	  4266: .long 0x8F7C8703
00:0000C2D0 3B341D8F        	  4267: .long 0x8F1D343B
00:0000C2D4 FCF7BE8E        	  4268: .long 0x8EBEF7FC
00:0000C2D8 2FD3618E        	  4269: .long 0x8E61D32F
00:0000C2DC B8C6058E        	  4270: .long 0x8E05C6B8
00:0000C2E0 7DD3AA8D        	  4271: .long 0x8DAAD37D
00:0000C2E4 5BFA508D        	  4272: .long 0x8D50FA5B
00:0000C2E8 313CF88C        	  4273: .long 0x8CF83C31
00:0000C2EC DC99A08C        	  4274: .long 0x8CA099DC
00:0000C2F0 30144A8C        	  4275: .long 0x8C4A1430
00:0000C2F4 06ACF48B        	  4276: .long 0x8BF4AC06
00:0000C2F8 3162A08B        	  4277: .long 0x8BA06231
00:0000C2FC 7E374D8B        	  4278: .long 0x8B4D377E
00:0000C300 BC2CFB8A        	  4279: .long 0x8AFB2CBC
00:0000C304 B642AA8A        	  4280: .long 0x8AAA42B6
00:0000C308 327A5A8A        	  4281: .long 0x8A5A7A32
00:0000C30C F6D30B8A        	  4282: .long 0x8A0BD3F6
00:0000C310 C550BE89        	  4283: .long 0x89BE50C5
00:0000C314 5CF17189        	  4284: .long 0x8971F15C
00:0000C318 78B62689        	  4285: .long 0x8926B678
00:0000C31C D5A0DC88        	  4286: .long 0x88DCA0D5
00:0000C320 26B19388        	  4287: .long 0x8893B126
00:0000C324 21E84B88        	  4288: .long 0x884BE821
00:0000C328 79460588        	  4289: .long 0x88054679
00:0000C32C D9CCBF87        	  4290: .long 0x87BFCCD9
00:0000C330 ED7B7B87        	  4291: .long 0x877B7BED
00:0000C334 60543887        	  4292: .long 0x87385460
00:0000C338 D556F686        	  4293: .long 0x86F656D5
00:0000C33C EF83B586        	  4294: .long 0x86B583EF
00:0000C340 51DC7586        	  4295: .long 0x8675DC51
00:0000C344 94603786        	  4296: .long 0x86376094
00:0000C348 5411FA85        	  4297: .long 0x85FA1154
00:0000C34C 29EFBD85        	  4298: .long 0x85BDEF29
00:0000C350 A6FA8285        	  4299: .long 0x8582FAA6
00:0000C354 5D344985        	  4300: .long 0x8549345D
00:0000C358 DE9C1085        	  4301: .long 0x85109CDE
00:0000C35C B234D984        	  4302: .long 0x84D934B2
00:0000C360 63FCA284        	  4303: .long 0x84A2FC63
00:0000C364 78F46D84        	  4304: .long 0x846DF478
00:0000C368 721D3A84        	  4305: .long 0x843A1D72
00:0000C36C D1770784        	  4306: .long 0x840777D1
00:0000C370 1304D683        	  4307: .long 0x83D60413
00:0000C374 B1C2A583        	  4308: .long 0x83A5C2B1
00:0000C378 24B47683        	  4309: .long 0x8376B424
00:0000C37C DDD84883        	  4310: .long 0x8348D8DD
00:0000C380 50311C83        	  4311: .long 0x831C3150
00:0000C384 EABDF082        	  4312: .long 0x82F0BDEA
00:0000C388 157FC682        	  4313: .long 0x82C67F15
00:0000C38C 3B759D82        	  4314: .long 0x829D753B
00:0000C390 C2A07582        	  4315: .long 0x8275A0C2
00:0000C394 0A024F82        	  4316: .long 0x824F020A
00:0000C398 73992982        	  4317: .long 0x82299973
00:0000C39C 5A670582        	  4318: .long 0x8205675A
00:0000C3A0 186CE281        	  4319: .long 0x81E26C18
00:0000C3A4 03A8C081        	  4320: .long 0x81C0A803
00:0000C3A8 6F1BA081        	  4321: .long 0x81A01B6F
00:0000C3AC ABC68081        	  4322: .long 0x8180C6AB
00:0000C3B0 05AA6281        	  4323: .long 0x8162AA05
00:0000C3B4 C9C54581        	  4324: .long 0x8145C5C9
00:0000C3B8 3B1A2A81        	  4325: .long 0x812A1A3B
00:0000C3BC A2A70F81        	  4326: .long 0x810FA7A2
00:0000C3C0 3E6EF680        	  4327: .long 0x80F66E3E
00:0000C3C4 4D6EDE80        	  4328: .long 0x80DE6E4D
00:0000C3C8 0BA8C780        	  4329: .long 0x80C7A80B
00:0000C3CC B11BB280        	  4330: .long 0x80B21BB1
00:0000C3D0 72C99D80        	  4331: .long 0x809DC972
00:0000C3D4 81B18A80        	  4332: .long 0x808AB181
00:0000C3D8 0ED47880        	  4333: .long 0x8078D40E
00:0000C3DC 44316880        	  4334: .long 0x80683144
00:0000C3E0 4DC95880        	  4335: .long 0x8058C94D
00:0000C3E4 4E9C4A80        	  4336: .long 0x804A9C4E
00:0000C3E8 6BAA3D80        	  4337: .long 0x803DAA6B
00:0000C3EC C3F33180        	  4338: .long 0x8031F3C3
00:0000C3F0 73782780        	  4339: .long 0x80277873
00:0000C3F4 96381E80        	  4340: .long 0x801E3896
00:0000C3F8 41341680        	  4341: .long 0x80163441
00:0000C3FC 896B0F80        	  4342: .long 0x800F6B89
00:0000C400 7FDE0980        	  4343: .long 0x8009DE7F
00:0000C404 308D0580        	  4344: .long 0x80058D30
00:0000C408 A7770280        	  4345: .long 0x800277A7
00:0000C40C EB9D0080        	  4346: .long 0x80009DEB
00:0000C410 01000080        	  4347: .long 0x80000001
00:0000C414 EB9D0080        	  4348: .long 0x80009DEB
00:0000C418 A7770280        	  4349: .long 0x800277A7
00:0000C41C 308D0580        	  4350: .long 0x80058D30
00:0000C420 7FDE0980        	  4351: .long 0x8009DE7F
00:0000C424 896B0F80        	  4352: .long 0x800F6B89
00:0000C428 41341680        	  4353: .long 0x80163441
00:0000C42C 95381E80        	  4354: .long 0x801E3895
00:0000C430 73782780        	  4355: .long 0x80277873
00:0000C434 C3F33180        	  4356: .long 0x8031F3C3
00:0000C438 6BAA3D80        	  4357: .long 0x803DAA6B
00:0000C43C 4E9C4A80        	  4358: .long 0x804A9C4E
00:0000C440 4DC95880        	  4359: .long 0x8058C94D
00:0000C444 45316880        	  4360: .long 0x80683145
00:0000C448 0ED47880        	  4361: .long 0x8078D40E
00:0000C44C 82B18A80        	  4362: .long 0x808AB182
00:0000C450 72C99D80        	  4363: .long 0x809DC972
00:0000C454 B11BB280        	  4364: .long 0x80B21BB1
00:0000C458 0BA8C780        	  4365: .long 0x80C7A80B
00:0000C45C 4D6EDE80        	  4366: .long 0x80DE6E4D
00:0000C460 3E6EF680        	  4367: .long 0x80F66E3E
00:0000C464 A1A70F81        	  4368: .long 0x810FA7A1
00:0000C468 3B1A2A81        	  4369: .long 0x812A1A3B
00:0000C46C C8C54581        	  4370: .long 0x8145C5C8
00:0000C470 05AA6281        	  4371: .long 0x8162AA05
00:0000C474 AAC68081        	  4372: .long 0x8180C6AA
00:0000C478 6E1BA081        	  4373: .long 0x81A01B6E
00:0000C47C 03A8C081        	  4374: .long 0x81C0A803
00:0000C480 186CE281        	  4375: .long 0x81E26C18
00:0000C484 5A670582        	  4376: .long 0x8205675A
00:0000C488 72992982        	  4377: .long 0x82299972
00:0000C48C 09024F82        	  4378: .long 0x824F0209
00:0000C490 C2A07582        	  4379: .long 0x8275A0C2
00:0000C494 3B759D82        	  4380: .long 0x829D753B
00:0000C498 157FC682        	  4381: .long 0x82C67F15
00:0000C49C EABDF082        	  4382: .long 0x82F0BDEA
00:0000C4A0 4F311C83        	  4383: .long 0x831C314F
00:0000C4A4 DDD84883        	  4384: .long 0x8348D8DD
00:0000C4A8 24B47683        	  4385: .long 0x8376B424
00:0000C4AC B1C2A583        	  4386: .long 0x83A5C2B1
00:0000C4B0 1304D683        	  4387: .long 0x83D60413
00:0000C4B4 D0770784        	  4388: .long 0x840777D0
00:0000C4B8 711D3A84        	  4389: .long 0x843A1D71
00:0000C4BC 78F46D84        	  4390: .long 0x846DF478
00:0000C4C0 63FCA284        	  4391: .long 0x84A2FC63
00:0000C4C4 B234D984        	  4392: .long 0x84D934B2
00:0000C4C8 DE9C1085        	  4393: .long 0x85109CDE
00:0000C4CC 5D344985        	  4394: .long 0x8549345D
00:0000C4D0 A6FA8285        	  4395: .long 0x8582FAA6
00:0000C4D4 29EFBD85        	  4396: .long 0x85BDEF29
00:0000C4D8 5311FA85        	  4397: .long 0x85FA1153
00:0000C4DC 93603786        	  4398: .long 0x86376093
00:0000C4E0 50DC7586        	  4399: .long 0x8675DC50
00:0000C4E4 EF83B586        	  4400: .long 0x86B583EF
00:0000C4E8 D456F686        	  4401: .long 0x86F656D4
00:0000C4EC 60543887        	  4402: .long 0x87385460
00:0000C4F0 ED7B7B87        	  4403: .long 0x877B7BED
00:0000C4F4 D8CCBF87        	  4404: .long 0x87BFCCD8
00:0000C4F8 79460588        	  4405: .long 0x88054679
00:0000C4FC 21E84B88        	  4406: .long 0x884BE821
00:0000C500 26B19388        	  4407: .long 0x8893B126
00:0000C504 D4A0DC88        	  4408: .long 0x88DCA0D4
00:0000C508 78B62689        	  4409: .long 0x8926B678
00:0000C50C 5BF17189        	  4410: .long 0x8971F15B
00:0000C510 C550BE89        	  4411: .long 0x89BE50C5
00:0000C514 F6D30B8A        	  4412: .long 0x8A0BD3F6
00:0000C518 327A5A8A        	  4413: .long 0x8A5A7A32
00:0000C51C B642AA8A        	  4414: .long 0x8AAA42B6
00:0000C520 BB2CFB8A        	  4415: .long 0x8AFB2CBB
00:0000C524 7D374D8B        	  4416: .long 0x8B4D377D
00:0000C528 3162A08B        	  4417: .long 0x8BA06231
00:0000C52C 06ACF48B        	  4418: .long 0x8BF4AC06
00:0000C530 30144A8C        	  4419: .long 0x8C4A1430
00:0000C534 DB99A08C        	  4420: .long 0x8CA099DB
00:0000C538 303CF88C        	  4421: .long 0x8CF83C30
00:0000C53C 5AFA508D        	  4422: .long 0x8D50FA5A
00:0000C540 7DD3AA8D        	  4423: .long 0x8DAAD37D
00:0000C544 B8C6058E        	  4424: .long 0x8E05C6B8
00:0000C548 2FD3618E        	  4425: .long 0x8E61D32F
00:0000C54C FBF7BE8E        	  4426: .long 0x8EBEF7FB
00:0000C550 3A341D8F        	  4427: .long 0x8F1D343A
00:0000C554 02877C8F        	  4428: .long 0x8F7C8702
00:0000C558 66EFDC8F        	  4429: .long 0x8FDCEF66
00:0000C55C 7B6C3E90        	  4430: .long 0x903E6C7B
00:0000C560 4FFDA090        	  4431: .long 0x90A0FD4F
00:0000C564 EEA00491        	  4432: .long 0x9104A0EE
00:0000C568 64566991        	  4433: .long 0x91695664
00:0000C56C B71CCF91        	  4434: .long 0x91CF1CB7
00:0000C570 ECF23592        	  4435: .long 0x9235F2EC
00:0000C574 06D89D92        	  4436: .long 0x929DD806
00:0000C578 05CB0693        	  4437: .long 0x9306CB05
00:0000C57C E4CA7093        	  4438: .long 0x9370CAE4
00:0000C580 A0D6DB93        	  4439: .long 0x93DBD6A0
00:0000C584 31ED4794        	  4440: .long 0x9447ED31
00:0000C588 880DB594        	  4441: .long 0x94B50D88
00:0000C58C 9D362395        	  4442: .long 0x9523369D
00:0000C590 5E679295        	  4443: .long 0x9592675E
00:0000C594 B69E0296        	  4444: .long 0x96029EB6
00:0000C598 95DB7396        	  4445: .long 0x9673DB95
00:0000C59C E21CE696        	  4446: .long 0x96E61CE2
00:0000C5A0 7F615997        	  4447: .long 0x9759617F
00:0000C5A4 56A8CD97        	  4448: .long 0x97CDA856
00:0000C5A8 45F04298        	  4449: .long 0x9842F045
00:0000C5AC 2938B998        	  4450: .long 0x98B93829
00:0000C5B0 E27E3099        	  4451: .long 0x99307EE2
00:0000C5B4 47C3A899        	  4452: .long 0x99A8C347
00:0000C5B8 2D04229A        	  4453: .long 0x9A22042D
00:0000C5BC 6F409C9A        	  4454: .long 0x9A9C406F
00:0000C5C0 DC76179B        	  4455: .long 0x9B1776DC
00:0000C5C4 41A6939B        	  4456: .long 0x9B93A641
00:0000C5C8 72CD109C        	  4457: .long 0x9C10CD72
00:0000C5CC 36EB8E9C        	  4458: .long 0x9C8EEB36
00:0000C5D0 54FE0D9D        	  4459: .long 0x9D0DFE54
00:0000C5D4 98058E9D        	  4460: .long 0x9D8E0598
00:0000C5D8 C3FF0E9E        	  4461: .long 0x9E0EFFC3
00:0000C5DC 95EB909E        	  4462: .long 0x9E90EB95
00:0000C5E0 D2C7139F        	  4463: .long 0x9F13C7D2
00:0000C5E4 3493979F        	  4464: .long 0x9F979334
00:0000C5E8 734C1CA0        	  4465: .long 0xA01C4C73
00:0000C5EC 4EF2A1A0        	  4466: .long 0xA0A1F24E
00:0000C5F0 768328A1        	  4467: .long 0xA1288376
00:0000C5F4 A3FEAFA1        	  4468: .long 0xA1AFFEA3
00:0000C5F8 856238A2        	  4469: .long 0xA2386285
00:0000C5FC C9ADC1A2        	  4470: .long 0xA2C1ADC9
00:0000C600 21DF4BA3        	  4471: .long 0xA34BDF21
00:0000C604 35F5D6A3        	  4472: .long 0xA3D6F535
00:0000C608 ACEE62A4        	  4473: .long 0xA462EEAC
00:0000C60C 31CAEFA4        	  4474: .long 0xA4EFCA31
00:0000C610 67867DA5        	  4475: .long 0xA57D8667
00:0000C614 ED210CA6        	  4476: .long 0xA60C21ED
00:0000C618 699B9BA6        	  4477: .long 0xA69B9B69
00:0000C61C 75F12BA7        	  4478: .long 0xA72BF175
00:0000C620 AB22BDA7        	  4479: .long 0xA7BD22AB
00:0000C624 AA2D4FA8        	  4480: .long 0xA84F2DAA
00:0000C628 0811E2A8        	  4481: .long 0xA8E21108
00:0000C62C 56CB75A9        	  4482: .long 0xA975CB56
00:0000C630 2E5B0AAA        	  4483: .long 0xAA0A5B2E
00:0000C634 1FBF9FAA        	  4484: .long 0xAA9FBF1F
00:0000C638 B5F535AB        	  4485: .long 0xAB35F5B5
00:0000C63C 83FDCCAB        	  4486: .long 0xABCCFD83
00:0000C640 12D564AC        	  4487: .long 0xAC64D512
00:0000C644 E87AFDAC        	  4488: .long 0xACFD7AE8
00:0000C648 92ED96AD        	  4489: .long 0xAD96ED92
00:0000C64C 932B31AE        	  4490: .long 0xAE312B93
00:0000C650 6C33CCAE        	  4491: .long 0xAECC336C
00:0000C654 A30368AF        	  4492: .long 0xAF6803A3
00:0000C658 B59A04B0        	  4493: .long 0xB0049AB5
00:0000C65C 1DF7A1B0        	  4494: .long 0xB0A1F71D
00:0000C660 5C1740B1        	  4495: .long 0xB140175C
00:0000C664 EAF9DEB1        	  4496: .long 0xB1DEF9EA
00:0000C668 3C9D7EB2        	  4497: .long 0xB27E9D3C
00:0000C66C CDFF1EB3        	  4498: .long 0xB31EFFCD
00:0000C670 0F20C0B3        	  4499: .long 0xB3C0200F
00:0000C674 70FC61B4        	  4500: .long 0xB461FC70
00:0000C678 699304B5        	  4501: .long 0xB5049369
00:0000C67C 65E3A7B5        	  4502: .long 0xB5A7E365
00:0000C680 CDEA4BB6        	  4503: .long 0xB64BEACD
00:0000C684 13A8F0B6        	  4504: .long 0xB6F0A813
00:0000C688 9A1996B7        	  4505: .long 0xB796199A
00:0000C68C D13D3CB8        	  4506: .long 0xB83C3DD1
00:0000C690 1A13E3B8        	  4507: .long 0xB8E3131A
00:0000C694 D7978AB9        	  4508: .long 0xB98A97D7
00:0000C698 71CA32BA        	  4509: .long 0xBA32CA71
00:0000C69C 44A9DBBA        	  4510: .long 0xBADBA944
00:0000C6A0 AF3285BB        	  4511: .long 0xBB8532AF
00:0000C6A4 14652FBC        	  4512: .long 0xBC2F6514
00:0000C6A8 CC3EDABC        	  4513: .long 0xBCDA3ECC
00:0000C6AC 2FBE85BD        	  4514: .long 0xBD85BE2F
00:0000C6B0 9CE131BE        	  4515: .long 0xBE31E19C
00:0000C6B4 67A7DEBE        	  4516: .long 0xBEDEA767
00:0000C6B8 E20D8CBF        	  4517: .long 0xBF8C0DE2
00:0000C6BC 68133AC0        	  4518: .long 0xC03A1368
00:0000C6C0 49B6E8C0        	  4519: .long 0xC0E8B649
00:0000C6C4 D3F497C1        	  4520: .long 0xC197F4D3
00:0000C6C8 5ACD47C2        	  4521: .long 0xC247CD5A
00:0000C6CC 2C3EF8C2        	  4522: .long 0xC2F83E2C
00:0000C6D0 8F45A9C3        	  4523: .long 0xC3A9458F
00:0000C6D4 D8E15AC4        	  4524: .long 0xC45AE1D8
00:0000C6D8 4B110DC5        	  4525: .long 0xC50D114B
00:0000C6DC 2ED2BFC5        	  4526: .long 0xC5BFD22E
00:0000C6E0 CE2273C6        	  4527: .long 0xC67322CE
00:0000C6E4 6F0127C7        	  4528: .long 0xC727016F
00:0000C6E8 4F6CDBC7        	  4529: .long 0xC7DB6C4F
00:0000C6EC BB6190C8        	  4530: .long 0xC89061BB
00:0000C6F0 EEDF45C9        	  4531: .long 0xC945DFEE
00:0000C6F4 27E5FBC9        	  4532: .long 0xC9FBE527
00:0000C6F8 AA6FB2CA        	  4533: .long 0xCAB26FAA
00:0000C6FC B27D69CB        	  4534: .long 0xCB697DB2
00:0000C700 780D21CC        	  4535: .long 0xCC210D78
00:0000C704 3E1DD9CC        	  4536: .long 0xCCD91D3E
00:0000C708 3BAB91CD        	  4537: .long 0xCD91AB3B
00:0000C70C A2B54ACE        	  4538: .long 0xCE4AB5A2
00:0000C710 B43A04CF        	  4539: .long 0xCF043AB4
00:0000C714 A238BECF        	  4540: .long 0xCFBE38A2
00:0000C718 9DAD78D0        	  4541: .long 0xD078AD9D
00:0000C71C E39733D1        	  4542: .long 0xD13397E3
00:0000C720 A0F5EED1        	  4543: .long 0xD1EEF5A0
00:0000C724 04C5AAD2        	  4544: .long 0xD2AAC504
00:0000C728 460467D3        	  4545: .long 0xD3670446
00:0000C72C 8FB123D4        	  4546: .long 0xD423B18F
00:0000C730 14CBE0D4        	  4547: .long 0xD4E0CB14
00:0000C734 004F9ED5        	  4548: .long 0xD59E4F00
00:0000C738 7A3B5CD6        	  4549: .long 0xD65C3B7A
00:0000C73C B58E1AD7        	  4550: .long 0xD71A8EB5
00:0000C740 D946D9D7        	  4551: .long 0xD7D946D9
00:0000C744 0B6298D8        	  4552: .long 0xD898620B
00:0000C748 7ADE57D9        	  4553: .long 0xD957DE7A
00:0000C74C 4BBA17DA        	  4554: .long 0xDA17BA4B
00:0000C750 A1F3D7DA        	  4555: .long 0xDAD7F3A1
00:0000C754 A88898DB        	  4556: .long 0xDB9888A8
00:0000C758 837759DC        	  4557: .long 0xDC597783
00:0000C75C 50BE1ADD        	  4558: .long 0xDD1ABE50
00:0000C760 3B5BDCDD        	  4559: .long 0xDDDC5B3B
00:0000C764 624C9EDE        	  4560: .long 0xDE9E4C62
00:0000C768 E28F60DF        	  4561: .long 0xDF608FE2
00:0000C76C E52323E0        	  4562: .long 0xE02323E5
00:0000C770 8606E6E0        	  4563: .long 0xE0E60686
00:0000C774 E135A9E1        	  4564: .long 0xE1A935E1
00:0000C778 1BB06CE2        	  4565: .long 0xE26CB01B
00:0000C77C 4F7330E3        	  4566: .long 0xE330734F
00:0000C780 957DF4E3        	  4567: .long 0xE3F47D95
00:0000C784 11CDB8E4        	  4568: .long 0xE4B8CD11
00:0000C788 DC5F7DE5        	  4569: .long 0xE57D5FDC
00:0000C78C 0C3442E6        	  4570: .long 0xE642340C
00:0000C790 C44707E7        	  4571: .long 0xE70747C4
00:0000C794 1999CCE7        	  4572: .long 0xE7CC9919
00:0000C798 212692E8        	  4573: .long 0xE8922621
00:0000C79C FCEC57E9        	  4574: .long 0xE957ECFC
00:0000C7A0 BDEB1DEA        	  4575: .long 0xEA1DEBBD
00:0000C7A4 7A20E4EA        	  4576: .long 0xEAE4207A
00:0000C7A8 4F89AAEB        	  4577: .long 0xEBAA894F
00:0000C7AC 512471EC        	  4578: .long 0xEC712451
00:0000C7B0 91EF37ED        	  4579: .long 0xED37EF91
00:0000C7B4 2CE9FEED        	  4580: .long 0xEDFEE92C
00:0000C7B8 330FC6EE        	  4581: .long 0xEEC60F33
00:0000C7BC B85F8DEF        	  4582: .long 0xEF8D5FB8
00:0000C7C0 D5D854F0        	  4583: .long 0xF054D8D5
00:0000C7C4 98781CF1        	  4584: .long 0xF11C7898
00:0000C7C8 1C3DE4F1        	  4585: .long 0xF1E43D1C
00:0000C7CC 6F24ACF2        	  4586: .long 0xF2AC246F
00:0000C7D0 A02C74F3        	  4587: .long 0xF3742CA0
00:0000C7D4 CA533CF4        	  4588: .long 0xF43C53CA
00:0000C7D8 FC9704F5        	  4589: .long 0xF50497FC
00:0000C7DC 42F7CCF5        	  4590: .long 0xF5CCF742
00:0000C7E0 B66F95F6        	  4591: .long 0xF6956FB6
00:0000C7E4 67FF5DF7        	  4592: .long 0xF75DFF67
00:0000C7E8 60A426F8        	  4593: .long 0xF826A460
00:0000C7EC BB5CEFF8        	  4594: .long 0xF8EF5CBB
00:0000C7F0 8526B8F9        	  4595: .long 0xF9B82685
00:0000C7F4 CAFF80FA        	  4596: .long 0xFA80FFCA
00:0000C7F8 A2E649FB        	  4597: .long 0xFB49E6A2
00:0000C7FC 1BD912FC        	  4598: .long 0xFC12D91B
00:0000C800 40D5DBFC        	  4599: .long 0xFCDBD540
00:0000C804 28D9A4FD        	  4600: .long 0xFDA4D928
00:0000C808 E1E26DFE        	  4601: .long 0xFE6DE2E1
00:0000C80C 77F036FF        	  4602: .long 0xFF36F077
00:0000C810 00000000        	  4603: .long 0x00000000
00:0000C814 557C5100        	  4604: .long 0x00517C55
00:0000C818 1EF6A200        	  4605: .long 0x00A2F61E
00:0000C81C D06AF400        	  4606: .long 0x00F46AD0
00:0000C820 E1D74501        	  4607: .long 0x0145D7E1
00:0000C824 C73A9701        	  4608: .long 0x01973AC7
00:0000C828 FC90E801        	  4609: .long 0x01E890FC
00:0000C82C FBD73902        	  4610: .long 0x0239D7FB
00:0000C830 430D8B02        	  4611: .long 0x028B0D43
00:0000C834 532EDC02        	  4612: .long 0x02DC2E53
00:0000C838 B3382D03        	  4613: .long 0x032D38B3
00:0000C83C EB297E03        	  4614: .long 0x037E29EB
00:0000C840 89FFCE03        	  4615: .long 0x03CEFF89
00:0000C844 21B71F04        	  4616: .long 0x041FB721
00:0000C848 4A4E7004        	  4617: .long 0x04704E4A
00:0000C84C A4C2C004        	  4618: .long 0x04C0C2A4
00:0000C850 D4111105        	  4619: .long 0x051111D4
00:0000C854 83396105        	  4620: .long 0x05613983
00:0000C858 6737B105        	  4621: .long 0x05B13767
00:0000C85C 37090106        	  4622: .long 0x06010937
00:0000C860 B6AC5006        	  4623: .long 0x0650ACB6
00:0000C864 AE1FA006        	  4624: .long 0x06A01FAE
00:0000C868 F15FEF06        	  4625: .long 0x06EF5FF1
00:0000C86C 5A6B3E07        	  4626: .long 0x073E6B5A
00:0000C870 CE3F8D07        	  4627: .long 0x078D3FCE
00:0000C874 3ADBDB07        	  4628: .long 0x07DBDB3A
00:0000C878 943B2A08        	  4629: .long 0x082A3B94
00:0000C87C DF5E7808        	  4630: .long 0x08785EDF
00:0000C880 2543C608        	  4631: .long 0x08C64325
00:0000C884 7CE61309        	  4632: .long 0x0913E67C
00:0000C888 03476109        	  4633: .long 0x09614703
00:0000C88C E662AE09        	  4634: .long 0x09AE62E6
00:0000C890 5B38FB09        	  4635: .long 0x09FB385B
00:0000C894 A2C5470A        	  4636: .long 0x0A47C5A2
00:0000C898 0709940A        	  4637: .long 0x0A940907
00:0000C89C E100E00A        	  4638: .long 0x0AE000E1
00:0000C8A0 95AB2B0B        	  4639: .long 0x0B2BAB95
00:0000C8A4 8F07770B        	  4640: .long 0x0B77078F
00:0000C8A8 4B13C20B        	  4641: .long 0x0BC2134B
00:0000C8AC 4ECD0C0C        	  4642: .long 0x0C0CCD4E
00:0000C8B0 2A34570C        	  4643: .long 0x0C57342A
00:0000C8B4 7C46A10C        	  4644: .long 0x0CA1467C
00:0000C8B8 EF02EB0C        	  4645: .long 0x0CEB02EF
00:0000C8BC 3668340D        	  4646: .long 0x0D346836
00:0000C8C0 14757D0D        	  4647: .long 0x0D7D7514
00:0000C8C4 5628C60D        	  4648: .long 0x0DC62856
00:0000C8C8 D4800E0E        	  4649: .long 0x0E0E80D4
00:0000C8CC 737D560E        	  4650: .long 0x0E567D73
00:0000C8D0 231D9E0E        	  4651: .long 0x0E9E1D23
00:0000C8D4 E25EE50E        	  4652: .long 0x0EE55EE2
00:0000C8D8 B6412C0F        	  4653: .long 0x0F2C41B6
00:0000C8DC B3C4720F        	  4654: .long 0x0F72C4B3
00:0000C8E0 F9E6B80F        	  4655: .long 0x0FB8E6F9
00:0000C8E4 B0A7FE0F        	  4656: .long 0x0FFEA7B0
00:0000C8E8 0F064410        	  4657: .long 0x1044060F
00:0000C8EC 56018910        	  4658: .long 0x10890156
00:0000C8F0 D198CD10        	  4659: .long 0x10CD98D1
00:0000C8F4 D6CB1111        	  4660: .long 0x1111CBD6
00:0000C8F8 C6995511        	  4661: .long 0x115599C6
00:0000C8FC 0E029911        	  4662: .long 0x1199020E
00:0000C900 2304DC11        	  4663: .long 0x11DC0423
00:0000C904 869F1E12        	  4664: .long 0x121E9F86
00:0000C908 C1D36012        	  4665: .long 0x1260D3C1
00:0000C90C 69A0A212        	  4666: .long 0x12A2A069
00:0000C910 1D05E412        	  4667: .long 0x12E4051D
00:0000C914 83012513        	  4668: .long 0x13250183
00:0000C918 4E956513        	  4669: .long 0x1365954E
00:0000C91C 38C0A513        	  4670: .long 0x13A5C038
00:0000C920 0382E513        	  4671: .long 0x13E58203
00:0000C924 7DDA2414        	  4672: .long 0x1424DA7D
00:0000C928 7AC96314        	  4673: .long 0x1463C97A
00:0000C92C D74EA214        	  4674: .long 0x14A24ED7
00:0000C930 7A6AE014        	  4675: .long 0x14E06A7A
00:0000C934 501C1E15        	  4676: .long 0x151E1C50
00:0000C938 50645B15        	  4677: .long 0x155B6450
00:0000C93C 75429815        	  4678: .long 0x15984275
00:0000C940 C4B6D415        	  4679: .long 0x15D4B6C4
00:0000C944 49C11016        	  4680: .long 0x1610C149
00:0000C948 16624C16        	  4681: .long 0x164C6216
00:0000C94C 45998716        	  4682: .long 0x16879945
00:0000C950 F666C216        	  4683: .long 0x16C266F6
00:0000C954 50CBFC16        	  4684: .long 0x16FCCB50
00:0000C958 7EC63617        	  4685: .long 0x1736C67E
00:0000C95C B5587017        	  4686: .long 0x177058B5
00:0000C960 2C82A917        	  4687: .long 0x17A9822C
00:0000C964 2243E217        	  4688: .long 0x17E24322
00:0000C968 DA9B1A18        	  4689: .long 0x181A9BDA
00:0000C96C 9E8C5218        	  4690: .long 0x18528C9E
00:0000C970 BB158A18        	  4691: .long 0x188A15BB
00:0000C974 8537C118        	  4692: .long 0x18C13785
00:0000C978 52F2F718        	  4693: .long 0x18F7F252
00:0000C97C 7F462E19        	  4694: .long 0x192E467F
00:0000C980 6D346419        	  4695: .long 0x1964346D
00:0000C984 80BC9919        	  4696: .long 0x1999BC80
00:0000C988 21DFCE19        	  4697: .long 0x19CEDF21
00:0000C98C BD9C031A        	  4698: .long 0x1A039CBD
00:0000C990 C4F5371A        	  4699: .long 0x1A37F5C4
00:0000C994 A9EA6B1A        	  4700: .long 0x1A6BEAA9
00:0000C998 E47B9F1A        	  4701: .long 0x1A9F7BE4
00:0000C99C EFA9D21A        	  4702: .long 0x1AD2A9EF
00:0000C9A0 4875051B        	  4703: .long 0x1B057548
00:0000C9A4 6EDE371B        	  4704: .long 0x1B37DE6E
00:0000C9A8 E5E5691B        	  4705: .long 0x1B69E5E5
00:0000C9AC 338C9B1B        	  4706: .long 0x1B9B8C33
00:0000C9B0 DFD1CC1B        	  4707: .long 0x1BCCD1DF
00:0000C9B4 75B7FD1B        	  4708: .long 0x1BFDB775
00:0000C9B8 813D2E1C        	  4709: .long 0x1C2E3D81
00:0000C9BC 91645E1C        	  4710: .long 0x1C5E6491
00:0000C9C0 382D8E1C        	  4711: .long 0x1C8E2D38
00:0000C9C4 0798BD1C        	  4712: .long 0x1CBD9807
00:0000C9C8 93A5EC1C        	  4713: .long 0x1CECA593
00:0000C9CC 71561B1D        	  4714: .long 0x1D1B5671
00:0000C9D0 3AAB491D        	  4715: .long 0x1D49AB3A
00:0000C9D4 86A4771D        	  4716: .long 0x1D77A486
00:0000C9D8 F042A51D        	  4717: .long 0x1DA542F0
00:0000C9DC 1387D21D        	  4718: .long 0x1DD28713
00:0000C9E0 8C71FF1D        	  4719: .long 0x1DFF718C
00:0000C9E4 F7022C1E        	  4720: .long 0x1E2C02F7
00:0000C9E8 F43B581E        	  4721: .long 0x1E583BF4
00:0000C9EC 211D841E        	  4722: .long 0x1E841D21
00:0000C9F0 1EA7AF1E        	  4723: .long 0x1EAFA71E
00:0000C9F4 8DDADA1E        	  4724: .long 0x1EDADA8D
00:0000C9F8 0DB8051F        	  4725: .long 0x1F05B80D
00:0000C9FC 4240301F        	  4726: .long 0x1F304042
00:0000CA00 CC735A1F        	  4727: .long 0x1F5A73CC
00:0000CA04 4E53841F        	  4728: .long 0x1F84534E
00:0000CA08 6BDFAD1F        	  4729: .long 0x1FADDF6B
00:0000CA0C C518D71F        	  4730: .long 0x1FD718C5
00:0000CA10 00000000        	  4731: .long 0x00000000
00:0000CA14 FFFFFF03        	  4732: .long 0x03FFFFFF
00:0000CA18 9927A805        	  4733: .long 0x05A82799
00:0000CA1C BA9EED06        	  4734: .long 0x06ED9EBA
00:0000CA20 FFFFFF07        	  4735: .long 0x07FFFFFF
00:0000CA24 CDBBF108        	  4736: .long 0x08F1BBCD
00:0000CA28 0947CC09        	  4737: .long 0x09CC4709
00:0000CA2C D43F950A        	  4738: .long 0x0A953FD4
00:0000CA30 334F500B        	  4739: .long 0x0B504F33
00:0000CA34 FFFFFF0B        	  4740: .long 0x0BFFFFFF
00:0000CA38 1D2CA60C        	  4741: .long 0x0CA62C1D
00:0000CA3C 4939440D        	  4742: .long 0x0D443949
00:0000CA40 743DDB0D        	  4743: .long 0x0DDB3D74
00:0000CA44 A2156C0E        	  4744: .long 0x0E6C15A2
00:0000CA48 0875F70E        	  4745: .long 0x0EF77508
00:0000CA4C 58EF7D0F        	  4746: .long 0x0F7DEF58
00:0000CA50 FFFFFF0F        	  4747: .long 0x0FFFFFFF
00:0000CA54 660F7E10        	  4748: .long 0x107E0F66
00:0000CA58 CC76F810        	  4749: .long 0x10F876CC
00:0000CA5C 34836F11        	  4750: .long 0x116F8334
00:0000CA60 9B77E311        	  4751: .long 0x11E3779B
00:0000CA64 B98E5412        	  4752: .long 0x12548EB9
00:0000CA68 59FCC212        	  4753: .long 0x12C2FC59
00:0000CA6C 75EE2E13        	  4754: .long 0x132EEE75
00:0000CA70 138E9813        	  4755: .long 0x13988E13
00:0000CA74 FFFFFF13        	  4756: .long 0x13FFFFFF
00:0000CA78 5F656514        	  4757: .long 0x1465655F
00:0000CA7C 2EDCC814        	  4758: .long 0x14C8DC2E
00:0000CA80 A97F2A15        	  4759: .long 0x152A7FA9
00:0000CA84 A4688A15        	  4760: .long 0x158A68A4
00:0000CA88 D2ADE815        	  4761: .long 0x15E8ADD2
00:0000CA8C 05644516        	  4762: .long 0x16456405
00:0000CA90 669EA016        	  4763: .long 0x16A09E66
00:0000CA94 A16EFA16        	  4764: .long 0x16FA6EA1
00:0000CA98 0DE55217        	  4765: .long 0x1752E50D
00:0000CA9C D110AA17        	  4766: .long 0x17AA10D1
00:0000CAA0 FFFFFF17        	  4767: .long 0x17FFFFFF
00:0000CAA4 B3BF5418        	  4768: .long 0x1854BFB3
00:0000CAA8 245CA818        	  4769: .long 0x18A85C24
00:0000CAAC C1E0FA18        	  4770: .long 0x18FAE0C1
00:0000CAB0 3A584C19        	  4771: .long 0x194C583A
00:0000CAB4 99CC9C19        	  4772: .long 0x199CCC99
00:0000CAB8 4947EC19        	  4773: .long 0x19EC4749
00:0000CABC 29D13A1A        	  4774: .long 0x1A3AD129
00:0000CAC0 9372881A        	  4775: .long 0x1A887293
00:0000CAC4 6933D51A        	  4776: .long 0x1AD53369
00:0000CAC8 1C1B211B        	  4777: .long 0x1B211B1C
00:0000CACC B8306C1B        	  4778: .long 0x1B6C30B8
00:0000CAD0 E87AB61B        	  4779: .long 0x1BB67AE8
00:0000CAD4 FFFFFF1B        	  4780: .long 0x1BFFFFFF
00:0000CAD8 FFC5481C        	  4781: .long 0x1C48C5FF
00:0000CADC 9CD2901C        	  4782: .long 0x1C90D29C
00:0000CAE0 442BD81C        	  4783: .long 0x1CD82B44
00:0000CAE4 20D51E1D        	  4784: .long 0x1D1ED520
00:0000CAE8 1DD5641D        	  4785: .long 0x1D64D51D
00:0000CAEC EF2FAA1D        	  4786: .long 0x1DAA2FEF
00:0000CAF0 11EAEE1D        	  4787: .long 0x1DEEEA11
00:0000CAF4 CC07331E        	  4788: .long 0x1E3307CC
00:0000CAF8 398D761E        	  4789: .long 0x1E768D39
00:0000CAFC 457EB91E        	  4790: .long 0x1EB97E45
00:0000CB00 B1DEFB1E        	  4791: .long 0x1EFBDEB1
00:0000CB04 17B23D1F        	  4792: .long 0x1F3DB217
00:0000CB08 EBFB7E1F        	  4793: .long 0x1F7EFBEB
00:0000CB0C 7EBFBF1F        	  4794: .long 0x1FBFBF7E
00:0000CB10 FFFFFF1F        	  4795: .long 0x1FFFFFFF
00:0000CB14 7EC03F20        	  4796: .long 0x203FC07E
00:0000CB18 EC037F20        	  4797: .long 0x207F03EC
00:0000CB1C 1DCDBD20        	  4798: .long 0x20BDCD1D
00:0000CB20 CD1EFC20        	  4799: .long 0x20FC1ECD
00:0000CB24 9AFB3921        	  4800: .long 0x2139FB9A
00:0000CB28 0F667721        	  4801: .long 0x2177660F
00:0000CB2C 9B60B421        	  4802: .long 0x21B4609B
00:0000CB30 99EDF021        	  4803: .long 0x21F0ED99
00:0000CB34 510F2D22        	  4804: .long 0x222D0F51
00:0000CB38 F4C76822        	  4805: .long 0x2268C7F4
00:0000CB3C A219A422        	  4806: .long 0x22A419A2
00:0000CB40 6806DF22        	  4807: .long 0x22DF0668
00:0000CB44 43901923        	  4808: .long 0x23199043
00:0000CB48 1EB95323        	  4809: .long 0x2353B91E
00:0000CB4C D6828D23        	  4810: .long 0x238D82D6
00:0000CB50 37EFC623        	  4811: .long 0x23C6EF37
00:0000CB54 FFFFFF23        	  4812: .long 0x23FFFFFF
00:0000CB58 E1B63824        	  4813: .long 0x2438B6E1
00:0000CB5C 7F157124        	  4814: .long 0x2471157F
00:0000CB60 721DA924        	  4815: .long 0x24A91D72
00:0000CB64 43D0E024        	  4816: .long 0x24E0D043
00:0000CB68 722F1825        	  4817: .long 0x25182F72
00:0000CB6C 743C4F25        	  4818: .long 0x254F3C74
00:0000CB70 B2F88525        	  4819: .long 0x2585F8B2
00:0000CB74 8C65BC25        	  4820: .long 0x25BC658C
00:0000CB78 5884F225        	  4821: .long 0x25F28458
00:0000CB7C 61562826        	  4822: .long 0x26285661
00:0000CB80 EADC5D26        	  4823: .long 0x265DDCEA
00:0000CB84 2F199326        	  4824: .long 0x2693192F
00:0000CB88 600CC826        	  4825: .long 0x26C80C60
00:0000CB8C A7B7FC26        	  4826: .long 0x26FCB7A7
00:0000CB90 271C3127        	  4827: .long 0x27311C27
00:0000CB94 FA3A6527        	  4828: .long 0x27653AFA
00:0000CB98 33159927        	  4829: .long 0x27991533
00:0000CB9C DDABCC27        	  4830: .long 0x27CCABDD
00:0000CBA0 FFFFFF27        	  4831: .long 0x27FFFFFF
00:0000CBA4 98123328        	  4832: .long 0x28331298
00:0000CBA8 9FE46528        	  4833: .long 0x2865E49F
00:0000CBAC 07779828        	  4834: .long 0x28987707
00:0000CBB0 BECACA28        	  4835: .long 0x28CACABE
00:0000CBB4 A9E0FC28        	  4836: .long 0x28FCE0A9
00:0000CBB8 AAB92E29        	  4837: .long 0x292EB9AA
00:0000CBBC 9E566029        	  4838: .long 0x2960569E
00:0000CBC0 5CB89129        	  4839: .long 0x2991B85C
00:0000CBC4 B5DFC229        	  4840: .long 0x29C2DFB5
00:0000CBC8 77CDF329        	  4841: .long 0x29F3CD77
00:0000CBCC 6A82242A        	  4842: .long 0x2A24826A
00:0000CBD0 53FF542A        	  4843: .long 0x2A54FF53
00:0000CBD4 F144852A        	  4844: .long 0x2A8544F1
00:0000CBD8 0054B52A        	  4845: .long 0x2AB55400
00:0000CBDC 362DE52A        	  4846: .long 0x2AE52D36
00:0000CBE0 49D1142B        	  4847: .long 0x2B14D149
00:0000CBE4 E640442B        	  4848: .long 0x2B4440E6
00:0000CBE8 BA7C732B        	  4849: .long 0x2B737CBA
00:0000CBEC 6D85A22B        	  4850: .long 0x2BA2856D
00:0000CBF0 A45BD12B        	  4851: .long 0x2BD15BA4
00:0000CBF4 FFFFFF2B        	  4852: .long 0x2BFFFFFF
00:0000CBF8 1E732E2C        	  4853: .long 0x2C2E731E
00:0000CBFC 99B55C2C        	  4854: .long 0x2C5CB599
00:0000CC00 0AC88A2C        	  4855: .long 0x2C8AC80A
00:0000CC04 04ABB82C        	  4856: .long 0x2CB8AB04
00:0000CC08 195FE62C        	  4857: .long 0x2CE65F19
00:0000CC0C D8E4132D        	  4858: .long 0x2D13E4D8
00:0000CC10 CC3C412D        	  4859: .long 0x2D413CCC
00:0000CC14 7F676E2D        	  4860: .long 0x2D6E677F
00:0000CC18 77659B2D        	  4861: .long 0x2D9B6577
00:0000CC1C 3737C82D        	  4862: .long 0x2DC83737
00:0000CC20 42DDF42D        	  4863: .long 0x2DF4DD42
00:0000CC24 1658212E        	  4864: .long 0x2E215816
00:0000CC28 30A84D2E        	  4865: .long 0x2E4DA830
00:0000CC2C 09CE792E        	  4866: .long 0x2E79CE09
00:0000CC30 1BCAA52E        	  4867: .long 0x2EA5CA1B
00:0000CC34 DA9CD12E        	  4868: .long 0x2ED19CDA
00:0000CC38 BA46FD2E        	  4869: .long 0x2EFD46BA
00:0000CC3C 2DC8282F        	  4870: .long 0x2F28C82D
00:0000CC40 A321542F        	  4871: .long 0x2F5421A3
00:0000CC44 88537F2F        	  4872: .long 0x2F7F5388
00:0000CC48 485EAA2F        	  4873: .long 0x2FAA5E48
00:0000CC4C 4D42D52F        	  4874: .long 0x2FD5424D
00:0000CC50 FFFFFF2F        	  4875: .long 0x2FFFFFFF
00:0000CC54 C4972A30        	  4876: .long 0x302A97C4
00:0000CC58 000A5530        	  4877: .long 0x30550A00
00:0000CC5C 16577F30        	  4878: .long 0x307F5716
00:0000CC60 667FA930        	  4879: .long 0x30A97F66
00:0000CC64 5083D330        	  4880: .long 0x30D38350
00:0000CC68 3163FD30        	  4881: .long 0x30FD6331
00:0000CC6C 661F2731        	  4882: .long 0x31271F66
00:0000CC70 49B85031        	  4883: .long 0x3150B849
00:0000CC74 332E7A31        	  4884: .long 0x317A2E33
00:0000CC78 7C81A331        	  4885: .long 0x31A3817C
00:0000CC7C 7AB2CC31        	  4886: .long 0x31CCB27A
00:0000CC80 82C1F531        	  4887: .long 0x31F5C182
00:0000CC84 E7AE1E32        	  4888: .long 0x321EAEE7
00:0000CC88 FB7A4732        	  4889: .long 0x32477AFB
00:0000CC8C 10267032        	  4890: .long 0x32702610
00:0000CC90 75B09832        	  4891: .long 0x3298B075
00:0000CC94 781AC132        	  4892: .long 0x32C11A78
00:0000CC98 6664E932        	  4893: .long 0x32E96466
00:0000CC9C 8B8E1133        	  4894: .long 0x33118E8B
00:0000CCA0 32993933        	  4895: .long 0x33399932
00:0000CCA4 A5846133        	  4896: .long 0x336184A5
00:0000CCA8 2C518933        	  4897: .long 0x3389512C
00:0000CCAC 0FFFB033        	  4898: .long 0x33B0FF0F
00:0000CCB0 938ED833        	  4899: .long 0x33D88E93
00:0000CCB4 FFFFFF33        	  4900: .long 0x33FFFFFF
00:0000CCB8 96532734        	  4901: .long 0x34275396
00:0000CCBC 9C894E34        	  4902: .long 0x344E899C
00:0000CCC0 53A27534        	  4903: .long 0x3475A253
00:0000CCC4 FD9D9C34        	  4904: .long 0x349C9DFD
00:0000CCC8 D97CC334        	  4905: .long 0x34C37CD9
00:0000CCCC 283FEA34        	  4906: .long 0x34EA3F28
00:0000CCD0 27E51035        	  4907: .long 0x3510E527
00:0000CCD4 156F3735        	  4908: .long 0x35376F15
00:0000CCD8 2EDD5D35        	  4909: .long 0x355DDD2E
00:0000CCDC AF2F8435        	  4910: .long 0x35842FAF
00:0000CCE0 D266AA35        	  4911: .long 0x35AA66D2
00:0000CCE4 D282D035        	  4912: .long 0x35D082D2
00:0000CCE8 E883F635        	  4913: .long 0x35F683E8
00:0000CCEC 4C6A1C36        	  4914: .long 0x361C6A4C
00:0000CCF0 38364236        	  4915: .long 0x36423638
00:0000CCF4 E2E76736        	  4916: .long 0x3667E7E2
00:0000CCF8 807F8D36        	  4917: .long 0x368D7F80
00:0000CCFC 48FDB236        	  4918: .long 0x36B2FD48
00:0000CD00 7061D836        	  4919: .long 0x36D86170
00:0000CD04 2AACFD36        	  4920: .long 0x36FDAC2A
00:0000CD08 ACDD2237        	  4921: .long 0x3722DDAC
00:0000CD0C 28F64737        	  4922: .long 0x3747F628
00:0000CD10 D0F56C37        	  4923: .long 0x376CF5D0
00:0000CD14 D5DC9137        	  4924: .long 0x3791DCD5
00:0000CD18 6AABB637        	  4925: .long 0x37B6AB6A
00:0000CD1C BD61DB37        	  4926: .long 0x37DB61BD
00:0000CD20 FFFFFF37        	  4927: .long 0x37FFFFFF
00:0000CD24 5F862438        	  4928: .long 0x3824865F
00:0000CD28 0BF54838        	  4929: .long 0x3848F50B
00:0000CD2C 314C6D38        	  4930: .long 0x386D4C31
00:0000CD30 FF8B9138        	  4931: .long 0x38918BFF
00:0000CD34 A2B4B538        	  4932: .long 0x38B5B4A2
00:0000CD38 44C6D938        	  4933: .long 0x38D9C644
00:0000CD3C 13C1FD38        	  4934: .long 0x38FDC113
00:0000CD40 39A52139        	  4935: .long 0x3921A539
00:0000CD44 E2724539        	  4936: .long 0x394572E2
00:0000CD48 362A6939        	  4937: .long 0x39692A36
00:0000CD4C 60CB8C39        	  4938: .long 0x398CCB60
00:0000CD50 8856B039        	  4939: .long 0x39B05688
00:0000CD54 D7CBD339        	  4940: .long 0x39D3CBD7
00:0000CD58 762BF739        	  4941: .long 0x39F72B76
00:0000CD5C 8C751A3A        	  4942: .long 0x3A1A758C
00:0000CD60 40AA3D3A        	  4943: .long 0x3A3DAA40
00:0000CD64 B9C9603A        	  4944: .long 0x3A60C9B9
00:0000CD68 1CD4833A        	  4945: .long 0x3A83D41C
00:0000CD6C 91C9A63A        	  4946: .long 0x3AA6C991
00:0000CD70 3BAAC93A        	  4947: .long 0x3AC9AA3B
00:0000CD74 4176EC3A        	  4948: .long 0x3AEC7641
00:0000CD78 C62D0F3B        	  4949: .long 0x3B0F2DC6
00:0000CD7C EFD0313B        	  4950: .long 0x3B31D0EF
00:0000CD80 DE5F543B        	  4951: .long 0x3B545FDE
00:0000CD84 B9DA763B        	  4952: .long 0x3B76DAB9
00:0000CD88 A141993B        	  4953: .long 0x3B9941A1
00:0000CD8C B894BB3B        	  4954: .long 0x3BBB94B8
00:0000CD90 22D4DD3B        	  4955: .long 0x3BDDD422
00:0000CD94 FFFFFF3B        	  4956: .long 0x3BFFFFFF
00:0000CD98 7118223C        	  4957: .long 0x3C221871
00:0000CD9C 991D443C        	  4958: .long 0x3C441D99
00:0000CDA0 980F663C        	  4959: .long 0x3C660F98
00:0000CDA4 8DEE873C        	  4960: .long 0x3C87EE8D
00:0000CDA8 99BAA93C        	  4961: .long 0x3CA9BA99
00:0000CDAC DB73CB3C        	  4962: .long 0x3CCB73DB
00:0000CDB0 721AED3C        	  4963: .long 0x3CED1A72
00:0000CDB4 7EAE0E3D        	  4964: .long 0x3D0EAE7E
00:0000CDB8 1C30303D        	  4965: .long 0x3D30301C
00:0000CDBC 6C9F513D        	  4966: .long 0x3D519F6C
00:0000CDC0 8AFC723D        	  4967: .long 0x3D72FC8A
00:0000CDC4 9447943D        	  4968: .long 0x3D944794
00:0000CDC8 A980B53D        	  4969: .long 0x3DB580A9
00:0000CDCC E4A7D63D        	  4970: .long 0x3DD6A7E4
00:0000CDD0 62BDF73D        	  4971: .long 0x3DF7BD62
00:0000CDD4 40C1183E        	  4972: .long 0x3E18C140
00:0000CDD8 99B3393E        	  4973: .long 0x3E39B399
00:0000CDDC 8A945A3E        	  4974: .long 0x3E5A948A
00:0000CDE0 2E647B3E        	  4975: .long 0x3E7B642E
00:0000CDE4 A0229C3E        	  4976: .long 0x3E9C22A0
00:0000CDE8 FBCFBC3E        	  4977: .long 0x3EBCCFFB
00:0000CDEC 596CDD3E        	  4978: .long 0x3EDD6C59
00:0000CDF0 D6F7FD3E        	  4979: .long 0x3EFDF7D6
00:0000CDF4 8B721E3F        	  4980: .long 0x3F1E728B
00:0000CDF8 92DC3E3F        	  4981: .long 0x3F3EDC92
00:0000CDFC 05365F3F        	  4982: .long 0x3F5F3605
00:0000CE00 FD7E7F3F        	  4983: .long 0x3F7F7EFD
00:0000CE04 92B79F3F        	  4984: .long 0x3F9FB792
00:0000CE08 DFDFBF3F        	  4985: .long 0x3FBFDFDF
00:0000CE0C FBF7DF3F        	  4986: .long 0x3FDFF7FB
00:0000CE10 FFFFFF3F        	  4987: .long 0x3FFFFFFF
00:0000CE14 03F81F40        	  4988: .long 0x401FF803
00:0000CE18 1FE03F40        	  4989: .long 0x403FE01F
00:0000CE1C 6AB85F40        	  4990: .long 0x405FB86A
00:0000CE20 FD807F40        	  4991: .long 0x407F80FD
00:0000CE24 ED399F40        	  4992: .long 0x409F39ED
00:0000CE28 53E3BE40        	  4993: .long 0x40BEE353
00:0000CE2C 447DDE40        	  4994: .long 0x40DE7D44
00:0000CE30 D807FE40        	  4995: .long 0x40FE07D8
00:0000CE34 25831D41        	  4996: .long 0x411D8325
00:0000CE38 40EF3C41        	  4997: .long 0x413CEF40
00:0000CE3C 404C5C41        	  4998: .long 0x415C4C40
00:0000CE40 3B9A7B41        	  4999: .long 0x417B9A3B
00:0000CE44 46D99A41        	  5000: .long 0x419AD946
00:0000CE48 7609BA41        	  5001: .long 0x41BA0976
00:0000CE4C E02AD941        	  5002: .long 0x41D92AE0
00:0000CE50 9A3DF841        	  5003: .long 0x41F83D9A
00:0000CE54 B8411742        	  5004: .long 0x421741B8
00:0000CE58 4E373642        	  5005: .long 0x4236374E
00:0000CE5C 711E5542        	  5006: .long 0x42551E71
00:0000CE60 35F77342        	  5007: .long 0x4273F735
00:0000CE64 AFC19242        	  5008: .long 0x4292C1AF
00:0000CE68 F17DB142        	  5009: .long 0x42B17DF1
00:0000CE6C 0F2CD042        	  5010: .long 0x42D02C0F
00:0000CE70 1ECCEE42        	  5011: .long 0x42EECC1E
00:0000CE74 305E0D43        	  5012: .long 0x430D5E30
00:0000CE78 57E22B43        	  5013: .long 0x432BE257
00:0000CE7C A9584A43        	  5014: .long 0x434A58A9
00:0000CE80 36C16843        	  5015: .long 0x4368C136
00:0000CE84 111C8743        	  5016: .long 0x43871C11
00:0000CE88 4E69A543        	  5017: .long 0x43A5694E
00:0000CE8C FEA8C343        	  5018: .long 0x43C3A8FE
00:0000CE90 33DBE143        	  5019: .long 0x43E1DB33
00:0000CE94 FFFFFF43        	  5020: .long 0x43FFFFFF
00:0000CE98 75171E44        	  5021: .long 0x441E1775
00:0000CE9C A5213C44        	  5022: .long 0x443C21A5
00:0000CEA0 A21E5A44        	  5023: .long 0x445A1EA2
00:0000CEA4 7C0E7844        	  5024: .long 0x44780E7C
00:0000CEA8 45F19544        	  5025: .long 0x4495F145
00:0000CEAC 0EC7B344        	  5026: .long 0x44B3C70E
00:0000CEB0 E88FD144        	  5027: .long 0x44D18FE8
00:0000CEB4 E34BEF44        	  5028: .long 0x44EF4BE3
00:0000CEB8 11FB0C45        	  5029: .long 0x450CFB11
00:0000CEBC 819D2A45        	  5030: .long 0x452A9D81
00:0000CEC0 44334845        	  5031: .long 0x45483344
00:0000CEC4 6ABC6545        	  5032: .long 0x4565BC6A
00:0000CEC8 04398345        	  5033: .long 0x45833904
00:0000CECC 21A9A045        	  5034: .long 0x45A0A921
00:0000CED0 D10CBE45        	  5035: .long 0x45BE0CD1
00:0000CED4 2364DB45        	  5036: .long 0x45DB6423
00:0000CED8 28AFF845        	  5037: .long 0x45F8AF28
00:0000CEDC EFED1546        	  5038: .long 0x4615EDEF
00:0000CEE0 87203346        	  5039: .long 0x46332087
00:0000CEE4 FE465046        	  5040: .long 0x465046FE
00:0000CEE8 65616D46        	  5041: .long 0x466D6165
00:0000CEEC CB6F8A46        	  5042: .long 0x468A6FCB
00:0000CEF0 3D72A746        	  5043: .long 0x46A7723D
00:0000CEF4 CB68C446        	  5044: .long 0x46C468CB
00:0000CEF8 8353E146        	  5045: .long 0x46E15383
00:0000CEFC 7432FE46        	  5046: .long 0x46FE3274
00:0000CF00 AC051B47        	  5047: .long 0x471B05AC
00:0000CF04 39CD3747        	  5048: .long 0x4737CD39
00:0000CF08 2A895447        	  5049: .long 0x4754892A
00:0000CF0C 8C397147        	  5050: .long 0x4771398C
00:0000CF10 6EDE8D47        	  5051: .long 0x478DDE6E
00:0000CF14 DC77AA47        	  5052: .long 0x47AA77DC
00:0000CF18 E605C747        	  5053: .long 0x47C705E6
00:0000CF1C 9888E347        	  5054: .long 0x47E38898
00:0000CF20 FFFFFF47        	  5055: .long 0x47FFFFFF
00:0000CF24 2A6C1C48        	  5056: .long 0x481C6C2A
00:0000CF28 26CD3848        	  5057: .long 0x4838CD26
00:0000CF2C FF225548        	  5058: .long 0x485522FF
00:0000CF30 C36D7148        	  5059: .long 0x48716DC3
00:0000CF34 7EAD8D48        	  5060: .long 0x488DAD7E
00:0000CF38 3EE2A948        	  5061: .long 0x48A9E23E
00:0000CF3C 100CC648        	  5062: .long 0x48C60C10
00:0000CF40 FF2AE248        	  5063: .long 0x48E22AFF
00:0000CF44 193FFE48        	  5064: .long 0x48FE3F19
00:0000CF48 6B481A49        	  5065: .long 0x491A486B
00:0000CF4C FF463649        	  5066: .long 0x493646FF
00:0000CF50 E43A5249        	  5067: .long 0x49523AE4
00:0000CF54 24246E49        	  5068: .long 0x496E2424
00:0000CF58 CC028A49        	  5069: .long 0x498A02CC
00:0000CF5C E9D6A549        	  5070: .long 0x49A5D6E9
00:0000CF60 86A0C149        	  5071: .long 0x49C1A086
00:0000CF64 AE5FDD49        	  5072: .long 0x49DD5FAE
00:0000CF68 6E14F949        	  5073: .long 0x49F9146E
00:0000CF6C D2BE144A        	  5074: .long 0x4A14BED2
00:0000CF70 E45E304A        	  5075: .long 0x4A305EE4
00:0000CF74 B1F44B4A        	  5076: .long 0x4A4BF4B1
00:0000CF78 4480674A        	  5077: .long 0x4A678044
00:0000CF7C A801834A        	  5078: .long 0x4A8301A8
00:0000CF80 E8789E4A        	  5079: .long 0x4A9E78E8
00:0000CF84 10E6B94A        	  5080: .long 0x4AB9E610
00:0000CF88 2B49D54A        	  5081: .long 0x4AD5492B
00:0000CF8C 43A2F04A        	  5082: .long 0x4AF0A243
00:0000CF90 65F10B4B        	  5083: .long 0x4B0BF165
00:0000CF94 9936274B        	  5084: .long 0x4B273699
00:0000CF98 ED71424B        	  5085: .long 0x4B4271ED
00:0000CF9C 69A35D4B        	  5086: .long 0x4B5DA369
00:0000CFA0 19CB784B        	  5087: .long 0x4B78CB19
00:0000CFA4 07E9934B        	  5088: .long 0x4B93E907
00:0000CFA8 3EFDAE4B        	  5089: .long 0x4BAEFD3E
00:0000CFAC C807CA4B        	  5090: .long 0x4BCA07C8
00:0000CFB0 B008E54B        	  5091: .long 0x4BE508B0
00:0000CFB4 FFFFFF4B        	  5092: .long 0x4BFFFFFF
00:0000CFB8 C1ED1A4C        	  5093: .long 0x4C1AEDC1
00:0000CFBC FED1354C        	  5094: .long 0x4C35D1FE
00:0000CFC0 C2AC504C        	  5095: .long 0x4C50ACC2
00:0000CFC4 167E6B4C        	  5096: .long 0x4C6B7E16
00:0000CFC8 0446864C        	  5097: .long 0x4C864604
00:0000CFCC 9604A14C        	  5098: .long 0x4CA10496
00:0000CFD0 D5B9BB4C        	  5099: .long 0x4CBBB9D5
00:0000CFD4 CC65D64C        	  5100: .long 0x4CD665CC
00:0000CFD8 8408F14C        	  5101: .long 0x4CF10884
00:0000CFDC 07A20B4D        	  5102: .long 0x4D0BA207
00:0000CFE0 5E32264D        	  5103: .long 0x4D26325E
00:0000CFE4 93B9404D        	  5104: .long 0x4D40B993
00:0000CFE8 AE375B4D        	  5105: .long 0x4D5B37AE
00:0000CFEC BBAC754D        	  5106: .long 0x4D75ACBB
00:0000CFF0 C018904D        	  5107: .long 0x4D9018C0
00:0000CFF4 C97BAA4D        	  5108: .long 0x4DAA7BC9
00:0000CFF8 DED5C44D        	  5109: .long 0x4DC4D5DE
00:0000CFFC 0827DF4D        	  5110: .long 0x4DDF2708
00:0000D000 4F6FF94D        	  5111: .long 0x4DF96F4F
00:0000D004 BFAE134E        	  5112: .long 0x4E13AEBF
00:0000D008 5EE52D4E        	  5113: .long 0x4E2DE55E
00:0000D00C 3613484E        	  5114: .long 0x4E481336
00:0000D010 4F38624E        	  5115: .long 0x4E62384F
00:0000D014 B3547C4E        	  5116: .long 0x4E7C54B3
00:0000D018 6B68964E        	  5117: .long 0x4E96686B
00:0000D01C 7E73B04E        	  5118: .long 0x4EB0737E
00:0000D020 F575CA4E        	  5119: .long 0x4ECA75F5
00:0000D024 D96FE44E        	  5120: .long 0x4EE46FD9
00:0000D028 3261FE4E        	  5121: .long 0x4EFE6132
00:0000D02C 094A184F        	  5122: .long 0x4F184A09
00:0000D030 662A324F        	  5123: .long 0x4F322A66
00:0000D034 51024C4F        	  5124: .long 0x4F4C0251
00:0000D038 D3D1654F        	  5125: .long 0x4F65D1D3
00:0000D03C F4987F4F        	  5126: .long 0x4F7F98F4
00:0000D040 BB57994F        	  5127: .long 0x4F9957BB
00:0000D044 320EB34F        	  5128: .long 0x4FB30E32
00:0000D048 5FBCCC4F        	  5129: .long 0x4FCCBC5F
00:0000D04C 4C62E64F        	  5130: .long 0x4FE6624C
00:0000D050 FFFFFF4F        	  5131: .long 0x4FFFFFFF
00:0000D054 82951950        	  5132: .long 0x50199582
00:0000D058 DB223350        	  5133: .long 0x503322DB
00:0000D05C 12A84C50        	  5134: .long 0x504CA812
00:0000D060 30256650        	  5135: .long 0x50662530
00:0000D064 3B9A7F50        	  5136: .long 0x507F9A3B
00:0000D068 3D079950        	  5137: .long 0x5099073D
00:0000D06C 3B6CB250        	  5138: .long 0x50B26C3B
00:0000D070 3EC9CB50        	  5139: .long 0x50CBC93E
00:0000D074 4D1EE550        	  5140: .long 0x50E51E4D
00:0000D078 706BFE50        	  5141: .long 0x50FE6B70
00:0000D07C AEB01751        	  5142: .long 0x5117B0AE
00:0000D080 0FEE3051        	  5143: .long 0x5130EE0F
00:0000D084 99234A51        	  5144: .long 0x514A2399
00:0000D088 55516351        	  5145: .long 0x51635155
00:0000D08C 48777C51        	  5146: .long 0x517C7748
00:0000D090 7C959551        	  5147: .long 0x5195957C
00:0000D094 F5ABAE51        	  5148: .long 0x51AEABF5
00:0000D098 BDBAC751        	  5149: .long 0x51C7BABD
00:0000D09C DAC1E051        	  5150: .long 0x51E0C1DA
00:0000D0A0 52C1F951        	  5151: .long 0x51F9C152
00:0000D0A4 2DB91252        	  5152: .long 0x5212B92D
00:0000D0A8 72A92B52        	  5153: .long 0x522BA972
00:0000D0AC 28924452        	  5154: .long 0x52449228
00:0000D0B0 55735D52        	  5155: .long 0x525D7355
00:0000D0B4 014D7652        	  5156: .long 0x52764D01
00:0000D0B8 311F8F52        	  5157: .long 0x528F1F31
00:0000D0BC EEE9A752        	  5158: .long 0x52A7E9EE
00:0000D0C0 3DADC052        	  5159: .long 0x52C0AD3D
00:0000D0C4 2669D952        	  5160: .long 0x52D96926
00:0000D0C8 AE1DF252        	  5161: .long 0x52F21DAE
00:0000D0CC DDCA0A53        	  5162: .long 0x530ACADD
00:0000D0D0 B8702353        	  5163: .long 0x532370B8
00:0000D0D4 470F3C53        	  5164: .long 0x533C0F47
00:0000D0D8 91A65453        	  5165: .long 0x5354A691
00:0000D0DC 9A366D53        	  5166: .long 0x536D369A
00:0000D0E0 6ABF8553        	  5167: .long 0x5385BF6A
00:0000D0E4 08419E53        	  5168: .long 0x539E4108
00:0000D0E8 79BBB653        	  5169: .long 0x53B6BB79
00:0000D0EC C42ECF53        	  5170: .long 0x53CF2EC4
00:0000D0F0 EE9AE753        	  5171: .long 0x53E79AEE
00:0000D0F4 FFFFFF53        	  5172: .long 0x53FFFFFF
00:0000D0F8 FD5D1854        	  5173: .long 0x54185DFD
00:0000D0FC ECB43054        	  5174: .long 0x5430B4EC
00:0000D100 D5044954        	  5175: .long 0x544904D5
00:0000D104 BC4D6154        	  5176: .long 0x54614DBC
00:0000D108 A88F7954        	  5177: .long 0x54798FA8
00:0000D10C 9FCA9154        	  5178: .long 0x5491CA9F
00:0000D110 A7FEA954        	  5179: .long 0x54A9FEA7
00:0000D114 C52BC254        	  5180: .long 0x54C22BC5
00:0000D118 0052DA54        	  5181: .long 0x54DA5200
00:0000D11C 5D71F254        	  5182: .long 0x54F2715D
00:0000D120 E3890A55        	  5183: .long 0x550A89E3
00:0000D124 969B2255        	  5184: .long 0x55229B96
00:0000D128 7EA63A55        	  5185: .long 0x553AA67E
00:0000D12C 9FAA5255        	  5186: .long 0x5552AA9F
00:0000D130 00A86A55        	  5187: .long 0x556AA800
00:0000D134 A69E8255        	  5188: .long 0x55829EA6
00:0000D138 968E9A55        	  5189: .long 0x559A8E96
00:0000D13C D777B255        	  5190: .long 0x55B277D7
00:0000D140 6D5ACA55        	  5191: .long 0x55CA5A6D
00:0000D144 6036E255        	  5192: .long 0x55E23660
00:0000D148 B30BFA55        	  5193: .long 0x55FA0BB3
00:0000D14C 6CDA1156        	  5194: .long 0x5611DA6C
00:0000D150 92A22956        	  5195: .long 0x5629A292
00:0000D154 29644156        	  5196: .long 0x56416429
00:0000D158 371F5956        	  5197: .long 0x56591F37
00:0000D15C C1D37056        	  5198: .long 0x5670D3C1
00:0000D160 CC818856        	  5199: .long 0x568881CC
00:0000D164 5F29A056        	  5200: .long 0x56A0295F
00:0000D168 7ECAB756        	  5201: .long 0x56B7CA7E
00:0000D16C 2E65CF56        	  5202: .long 0x56CF652E
00:0000D170 75F9E656        	  5203: .long 0x56E6F975
00:0000D174 5787FE56        	  5204: .long 0x56FE8757
00:0000D178 DB0E1657        	  5205: .long 0x57160EDB
00:0000D17C 05902D57        	  5206: .long 0x572D9005
00:0000D180 DB0A4557        	  5207: .long 0x57450ADB
00:0000D184 617F5C57        	  5208: .long 0x575C7F61
00:0000D188 9CED7357        	  5209: .long 0x5773ED9C
00:0000D18C 92558B57        	  5210: .long 0x578B5592
00:0000D190 48B7A257        	  5211: .long 0x57A2B748
00:0000D194 C312BA57        	  5212: .long 0x57BA12C3
00:0000D198 0768D157        	  5213: .long 0x57D16807
00:0000D19C 19B7E857        	  5214: .long 0x57E8B719
00:0000D1A0 FFFFFF57        	  5215: .long 0x57FFFFFF
00:0000D1A4 BE421758        	  5216: .long 0x581742BE
00:0000D1A8 597F2E58        	  5217: .long 0x582E7F59
00:0000D1AC D7B54558        	  5218: .long 0x5845B5D7
00:0000D1B0 3CE65C58        	  5219: .long 0x585CE63C
00:0000D1B4 8C107458        	  5220: .long 0x5874108C
00:0000D1B8 CD348B58        	  5221: .long 0x588B34CD
00:0000D1BC 0353A258        	  5222: .long 0x58A25303
00:0000D1C0 336BB958        	  5223: .long 0x58B96B33
00:0000D1C4 627DD058        	  5224: .long 0x58D07D62
00:0000D1C8 9489E758        	  5225: .long 0x58E78994
00:0000D1CC CE8FFE58        	  5226: .long 0x58FE8FCE
00:0000D1D0 15901559        	  5227: .long 0x59159015
00:0000D1D4 6D8A2C59        	  5228: .long 0x592C8A6D
00:0000D1D8 DA7E4359        	  5229: .long 0x59437EDA
00:0000D1DC 626D5A59        	  5230: .long 0x595A6D62
00:0000D1E0 09567159        	  5231: .long 0x59715609
00:0000D1E4 D3388859        	  5232: .long 0x598838D3
00:0000D1E8 C6159F59        	  5233: .long 0x599F15C6
00:0000D1EC E4ECB559        	  5234: .long 0x59B5ECE4
00:0000D1F0 33BECC59        	  5235: .long 0x59CCBE33
00:0000D1F4 B889E359        	  5236: .long 0x59E389B8
00:0000D1F8 764FFA59        	  5237: .long 0x59FA4F76
00:0000D1FC 720F115A        	  5238: .long 0x5A110F72
00:0000D200 B1C9275A        	  5239: .long 0x5A27C9B1
00:0000D204 367E3E5A        	  5240: .long 0x5A3E7E36
00:0000D208 062D555A        	  5241: .long 0x5A552D06
00:0000D20C 26D66B5A        	  5242: .long 0x5A6BD626
00:0000D210 9979825A        	  5243: .long 0x5A827999
00:0000D214 6417995A        	  5244: .long 0x5A991764
00:0000D218 8BAFAF5A        	  5245: .long 0x5AAFAF8B
00:0000D21C 1342C65A        	  5246: .long 0x5AC64213
00:0000D220 FFCEDC5A        	  5247: .long 0x5ADCCEFF
00:0000D224 5356F35A        	  5248: .long 0x5AF35653
00:0000D228 14D8095B        	  5249: .long 0x5B09D814
00:0000D22C 4754205B        	  5250: .long 0x5B205447
00:0000D230 EECA365B        	  5251: .long 0x5B36CAEE
00:0000D234 0E3C4D5B        	  5252: .long 0x5B4D3C0E
00:0000D238 ACA7635B        	  5253: .long 0x5B63A7AC
00:0000D23C CB0D7A5B        	  5254: .long 0x5B7A0DCB
00:0000D240 6F6E905B        	  5255: .long 0x5B906E6F
00:0000D244 9DC9A65B        	  5256: .long 0x5BA6C99D
00:0000D248 571FBD5B        	  5257: .long 0x5BBD1F57
00:0000D24C A46FD35B        	  5258: .long 0x5BD36FA4
00:0000D250 85BAE95B        	  5259: .long 0x5BE9BA85
00:0000D254 FFFFFF5B        	  5260: .long 0x5BFFFFFF
00:0000D258 1740165C        	  5261: .long 0x5C164017
00:0000D25C CF7A2C5C        	  5262: .long 0x5C2C7ACF
00:0000D260 2DB0425C        	  5263: .long 0x5C42B02D
00:0000D264 33E0585C        	  5264: .long 0x5C58E033
00:0000D268 E60A6F5C        	  5265: .long 0x5C6F0AE6
00:0000D26C 4930855C        	  5266: .long 0x5C853049
00:0000D270 60509B5C        	  5267: .long 0x5C9B5060
00:0000D274 2F6BB15C        	  5268: .long 0x5CB16B2F
00:0000D278 BB80C75C        	  5269: .long 0x5CC780BB
00:0000D27C 0591DD5C        	  5270: .long 0x5CDD9105
00:0000D280 139CF35C        	  5271: .long 0x5CF39C13
00:0000D284 E8A1095D        	  5272: .long 0x5D09A1E8
00:0000D288 88A21F5D        	  5273: .long 0x5D1FA288
00:0000D28C F69D355D        	  5274: .long 0x5D359DF6
00:0000D290 36944B5D        	  5275: .long 0x5D4B9436
00:0000D294 4C85615D        	  5276: .long 0x5D61854C
00:0000D298 3B71775D        	  5277: .long 0x5D77713B
00:0000D29C 07588D5D        	  5278: .long 0x5D8D5807
00:0000D2A0 B439A35D        	  5279: .long 0x5DA339B4
00:0000D2A4 4516B95D        	  5280: .long 0x5DB91645
00:0000D2A8 BEEDCE5D        	  5281: .long 0x5DCEEDBE
00:0000D2AC 22C0E45D        	  5282: .long 0x5DE4C022
00:0000D2B0 758DFA5D        	  5283: .long 0x5DFA8D75
00:0000D2B4 BA55105E        	  5284: .long 0x5E1055BA
00:0000D2B8 F518265E        	  5285: .long 0x5E2618F5
00:0000D2BC 2AD73B5E        	  5286: .long 0x5E3BD72A
00:0000D2C0 5B90515E        	  5287: .long 0x5E51905B
00:0000D2C4 8D44675E        	  5288: .long 0x5E67448D
00:0000D2C8 C2F37C5E        	  5289: .long 0x5E7CF3C2
00:0000D2CC FE9D925E        	  5290: .long 0x5E929DFE
00:0000D2D0 4643A85E        	  5291: .long 0x5EA84346
00:0000D2D4 9BE3BD5E        	  5292: .long 0x5EBDE39B
00:0000D2D8 017FD35E        	  5293: .long 0x5ED37F01
00:0000D2DC 7C15E95E        	  5294: .long 0x5EE9157C
00:0000D2E0 10A7FE5E        	  5295: .long 0x5EFEA710
00:0000D2E4 BE33145F        	  5296: .long 0x5F1433BE
00:0000D2E8 8CBB295F        	  5297: .long 0x5F29BB8C
00:0000D2EC 7B3E3F5F        	  5298: .long 0x5F3F3E7B
00:0000D2F0 90BC545F        	  5299: .long 0x5F54BC90
00:0000D2F4 CE356A5F        	  5300: .long 0x5F6A35CE
00:0000D2F8 37AA7F5F        	  5301: .long 0x5F7FAA37
00:0000D2FC D019955F        	  5302: .long 0x5F9519D0
00:0000D300 9B84AA5F        	  5303: .long 0x5FAA849B
00:0000D304 9CEABF5F        	  5304: .long 0x5FBFEA9C
00:0000D308 D54BD55F        	  5305: .long 0x5FD54BD5
00:0000D30C 4BA8EA5F        	  5306: .long 0x5FEAA84B
00:0000D310 FFFFFF5F        	  5307: .long 0x5FFFFFFF
00:0000D314 F6521560        	  5308: .long 0x601552F6
00:0000D318 32A12A60        	  5309: .long 0x602AA132
00:0000D31C B8EA3F60        	  5310: .long 0x603FEAB8
00:0000D320 892F5560        	  5311: .long 0x60552F89
00:0000D324 A96F6A60        	  5312: .long 0x606A6FA9
00:0000D328 1AAB7F60        	  5313: .long 0x607FAB1A
00:0000D32C E1E19460        	  5314: .long 0x6094E1E1
00:0000D330 0114AA60        	  5315: .long 0x60AA1401
00:0000D334 7B41BF60        	  5316: .long 0x60BF417B
00:0000D338 546AD460        	  5317: .long 0x60D46A54
00:0000D33C 8E8EE960        	  5318: .long 0x60E98E8E
00:0000D340 2CAEFE60        	  5319: .long 0x60FEAE2C
00:0000D344 32C91361        	  5320: .long 0x6113C932
00:0000D348 A2DF2861        	  5321: .long 0x6128DFA2
00:0000D34C 7FF13D61        	  5322: .long 0x613DF17F
00:0000D350 CCFE5261        	  5323: .long 0x6152FECC
00:0000D354 8D076861        	  5324: .long 0x6168078D
00:0000D358 C40B7D61        	  5325: .long 0x617D0BC4
00:0000D35C 740B9261        	  5326: .long 0x61920B74
00:0000D360 A006A761        	  5327: .long 0x61A706A0
00:0000D364 4BFDBB61        	  5328: .long 0x61BBFD4B
00:0000D368 78EFD061        	  5329: .long 0x61D0EF78
00:0000D36C 2ADDE561        	  5330: .long 0x61E5DD2A
00:0000D370 63C6FA61        	  5331: .long 0x61FAC663
00:0000D374 27AB0F62        	  5332: .long 0x620FAB27
00:0000D378 788B2462        	  5333: .long 0x62248B78
00:0000D37C 59673962        	  5334: .long 0x62396759
00:0000D380 CD3E4E62        	  5335: .long 0x624E3ECD
00:0000D384 D7116362        	  5336: .long 0x626311D7
00:0000D388 79E07762        	  5337: .long 0x6277E079
00:0000D38C B7AA8C62        	  5338: .long 0x628CAAB7
00:0000D390 9370A162        	  5339: .long 0x62A17093
00:0000D394 0F32B662        	  5340: .long 0x62B6320F
00:0000D398 30EFCA62        	  5341: .long 0x62CAEF30
00:0000D39C F7A7DF62        	  5342: .long 0x62DFA7F7
00:0000D3A0 675CF462        	  5343: .long 0x62F45C67
00:0000D3A4 830C0963        	  5344: .long 0x63090C83
00:0000D3A8 4DB81D63        	  5345: .long 0x631DB84D
00:0000D3AC C95F3263        	  5346: .long 0x63325FC9
00:0000D3B0 F9024763        	  5347: .long 0x634702F9
00:0000D3B4 DFA15B63        	  5348: .long 0x635BA1DF
00:0000D3B8 7F3C7063        	  5349: .long 0x63703C7F
00:0000D3BC DAD28463        	  5350: .long 0x6384D2DA
00:0000D3C0 F5649963        	  5351: .long 0x639964F5
00:0000D3C4 D0F2AD63        	  5352: .long 0x63ADF2D0
00:0000D3C8 6F7CC263        	  5353: .long 0x63C27C6F
00:0000D3CC D501D763        	  5354: .long 0x63D701D5
00:0000D3D0 0483EB63        	  5355: .long 0x63EB8304
00:0000D3D4 FFFFFF63        	  5356: .long 0x63FFFFFF
00:0000D3D8 C8781464        	  5357: .long 0x641478C8
00:0000D3DC 61ED2864        	  5358: .long 0x6428ED61
00:0000D3E0 CE5D3D64        	  5359: .long 0x643D5DCE
00:0000D3E4 11CA5164        	  5360: .long 0x6451CA11
00:0000D3E8 2D326664        	  5361: .long 0x6466322D
00:0000D3EC 23967A64        	  5362: .long 0x647A9623
00:0000D3F0 F7F58E64        	  5363: .long 0x648EF5F7
00:0000D3F4 AB51A364        	  5364: .long 0x64A351AB
00:0000D3F8 42A9B764        	  5365: .long 0x64B7A942
00:0000D3FC BEFCCB64        	  5366: .long 0x64CBFCBE
00:0000D400 214CE064        	  5367: .long 0x64E04C21
00:0000D404 6E97F464        	  5368: .long 0x64F4976E
00:0000D408 A8DE0865        	  5369: .long 0x6508DEA8
00:0000D40C D0211D65        	  5370: .long 0x651D21D0
00:0000D410 EA603165        	  5371: .long 0x653160EA
00:0000D414 F89B4565        	  5372: .long 0x65459BF8
00:0000D418 FCD25965        	  5373: .long 0x6559D2FC
00:0000D41C F8056E65        	  5374: .long 0x656E05F8
00:0000D420 F0348265        	  5375: .long 0x658234F0
00:0000D424 E55F9665        	  5376: .long 0x65965FE5
00:0000D428 DA86AA65        	  5377: .long 0x65AA86DA
00:0000D42C D0A9BE65        	  5378: .long 0x65BEA9D0
00:0000D430 CCC8D265        	  5379: .long 0x65D2C8CC
00:0000D434 CEE3E665        	  5380: .long 0x65E6E3CE
00:0000D438 DAFAFA65        	  5381: .long 0x65FAFADA
00:0000D43C F10D0F66        	  5382: .long 0x660F0DF1
00:0000D440 171D2366        	  5383: .long 0x66231D17
00:0000D444 4C283766        	  5384: .long 0x6637284C
00:0000D448 942F4B66        	  5385: .long 0x664B2F94
00:0000D44C F1325F66        	  5386: .long 0x665F32F1
00:0000D450 65327366        	  5387: .long 0x66733265
00:0000D454 F32D8766        	  5388: .long 0x66872DF3
00:0000D458 9C259B66        	  5389: .long 0x669B259C
00:0000D45C 6319AF66        	  5390: .long 0x66AF1963
00:0000D460 4B09C366        	  5391: .long 0x66C3094B
00:0000D464 55F5D666        	  5392: .long 0x66D6F555
00:0000D468 84DDEA66        	  5393: .long 0x66EADD84
00:0000D46C DAC1FE66        	  5394: .long 0x66FEC1DA
00:0000D470 59A21267        	  5395: .long 0x6712A259
00:0000D474 047F2667        	  5396: .long 0x67267F04
00:0000D478 DC573A67        	  5397: .long 0x673A57DC
00:0000D47C E42C4E67        	  5398: .long 0x674E2CE4
00:0000D480 1EFE6167        	  5399: .long 0x6761FE1E
00:0000D484 8DCB7567        	  5400: .long 0x6775CB8D
00:0000D488 32958967        	  5401: .long 0x67899532
00:0000D48C 0F5B9D67        	  5402: .long 0x679D5B0F
00:0000D490 271DB167        	  5403: .long 0x67B11D27
00:0000D494 7CDBC467        	  5404: .long 0x67C4DB7C
00:0000D498 1196D867        	  5405: .long 0x67D89611
00:0000D49C E64CEC67        	  5406: .long 0x67EC4CE6
00:0000D4A0 FFFFFF67        	  5407: .long 0x67FFFFFF
00:0000D4A4 5DAF1368        	  5408: .long 0x6813AF5D
00:0000D4A8 035B2768        	  5409: .long 0x68275B03
00:0000D4AC F2023B68        	  5410: .long 0x683B02F2
00:0000D4B0 2DA74E68        	  5411: .long 0x684EA72D
00:0000D4B4 B6476268        	  5412: .long 0x686247B6
00:0000D4B8 8FE47568        	  5413: .long 0x6875E48F
00:0000D4BC BA7D8968        	  5414: .long 0x68897DBA
00:0000D4C0 39139D68        	  5415: .long 0x689D1339
00:0000D4C4 0EA5B068        	  5416: .long 0x68B0A50E
00:0000D4C8 3C33C468        	  5417: .long 0x68C4333C
00:0000D4CC C3BDD768        	  5418: .long 0x68D7BDC3
00:0000D4D0 A744EB68        	  5419: .long 0x68EB44A7
00:0000D4D4 E9C7FE68        	  5420: .long 0x68FEC7E9
00:0000D4D8 8C471269        	  5421: .long 0x6912478C
00:0000D4DC 91C32569        	  5422: .long 0x6925C391
00:0000D4E0 FA3B3969        	  5423: .long 0x69393BFA
00:0000D4E4 CAB04C69        	  5424: .long 0x694CB0CA
00:0000D4E8 02226069        	  5425: .long 0x69602202
00:0000D4EC A48F7369        	  5426: .long 0x69738FA4
00:0000D4F0 B3F98669        	  5427: .long 0x6986F9B3
00:0000D4F4 30609A69        	  5428: .long 0x699A6030
00:0000D4F8 1DC3AD69        	  5429: .long 0x69ADC31D
00:0000D4FC 7C22C169        	  5430: .long 0x69C1227C
00:0000D500 507ED469        	  5431: .long 0x69D47E50
00:0000D504 9AD6E769        	  5432: .long 0x69E7D69A
00:0000D508 5B2BFB69        	  5433: .long 0x69FB2B5B
00:0000D50C 977C0E6A        	  5434: .long 0x6A0E7C97
00:0000D510 4FCA216A        	  5435: .long 0x6A21CA4F
00:0000D514 8414356A        	  5436: .long 0x6A351484
00:0000D518 395B486A        	  5437: .long 0x6A485B39
00:0000D51C 709E5B6A        	  5438: .long 0x6A5B9E70
00:0000D520 2BDE6E6A        	  5439: .long 0x6A6EDE2B
00:0000D524 6A1A826A        	  5440: .long 0x6A821A6A
00:0000D528 3253956A        	  5441: .long 0x6A955332
00:0000D52C 8288A86A        	  5442: .long 0x6AA88882
00:0000D530 5DBABB6A        	  5443: .long 0x6ABBBA5D
00:0000D534 C5E8CE6A        	  5444: .long 0x6ACEE8C5
00:0000D538 BD13E26A        	  5445: .long 0x6AE213BD
00:0000D53C 443BF56A        	  5446: .long 0x6AF53B44
00:0000D540 5E5F086B        	  5447: .long 0x6B085F5E
00:0000D544 0D801B6B        	  5448: .long 0x6B1B800D
00:0000D548 519D2E6B        	  5449: .long 0x6B2E9D51
00:0000D54C 2EB7416B        	  5450: .long 0x6B41B72E
00:0000D550 A4CD546B        	  5451: .long 0x6B54CDA4
00:0000D554 B6E0676B        	  5452: .long 0x6B67E0B6
00:0000D558 66F07A6B        	  5453: .long 0x6B7AF066
00:0000D55C B4FC8D6B        	  5454: .long 0x6B8DFCB4
00:0000D560 A405A16B        	  5455: .long 0x6BA105A4
00:0000D564 360BB46B        	  5456: .long 0x6BB40B36
00:0000D568 6D0DC76B        	  5457: .long 0x6BC70D6D
00:0000D56C 4A0CDA6B        	  5458: .long 0x6BDA0C4A
00:0000D570 D007ED6B        	  5459: .long 0x6BED07D0
00:0000D574 FFFFFF6B        	  5460: .long 0x6BFFFFFF
00:0000D578 DAF4126C        	  5461: .long 0x6C12F4DA
00:0000D57C 62E6256C        	  5462: .long 0x6C25E662
00:0000D580 99D4386C        	  5463: .long 0x6C38D499
00:0000D584 81BF4B6C        	  5464: .long 0x6C4BBF81
00:0000D588 1CA75E6C        	  5465: .long 0x6C5EA71C
00:0000D58C 6B8B716C        	  5466: .long 0x6C718B6B
00:0000D590 716C846C        	  5467: .long 0x6C846C71
00:0000D594 2D4A976C        	  5468: .long 0x6C974A2D
00:0000D598 A424AA6C        	  5469: .long 0x6CAA24A4
00:0000D59C D5FBBC6C        	  5470: .long 0x6CBCFBD5
00:0000D5A0 C4CFCF6C        	  5471: .long 0x6CCFCFC4
00:0000D5A4 71A0E26C        	  5472: .long 0x6CE2A071
00:0000D5A8 DE6DF56C        	  5473: .long 0x6CF56DDE
00:0000D5AC 0D38086D        	  5474: .long 0x6D08380D
00:0000D5B0 00FF1A6D        	  5475: .long 0x6D1AFF00
00:0000D5B4 B8C22D6D        	  5476: .long 0x6D2DC2B8
00:0000D5B8 3783406D        	  5477: .long 0x6D408337
00:0000D5BC 7F40536D        	  5478: .long 0x6D53407F
00:0000D5C0 91FA656D        	  5479: .long 0x6D65FA91
00:0000D5C4 6FB1786D        	  5480: .long 0x6D78B16F
00:0000D5C8 1A658B6D        	  5481: .long 0x6D8B651A
00:0000D5CC 94159E6D        	  5482: .long 0x6D9E1594
00:0000D5D0 E0C2B06D        	  5483: .long 0x6DB0C2E0
00:0000D5D4 FD6CC36D        	  5484: .long 0x6DC36CFD
00:0000D5D8 EF13D66D        	  5485: .long 0x6DD613EF
00:0000D5DC B7B7E86D        	  5486: .long 0x6DE8B7B7
00:0000D5E0 5558FB6D        	  5487: .long 0x6DFB5855
00:0000D5E4 CDF50D6E        	  5488: .long 0x6E0DF5CD
00:0000D5E8 1F90206E        	  5489: .long 0x6E20901F
00:0000D5EC 4D27336E        	  5490: .long 0x6E33274D
00:0000D5F0 59BB456E        	  5491: .long 0x6E45BB59
00:0000D5F4 444C586E        	  5492: .long 0x6E584C44
00:0000D5F8 10DA6A6E        	  5493: .long 0x6E6ADA10
00:0000D5FC BE647D6E        	  5494: .long 0x6E7D64BE
00:0000D600 50EC8F6E        	  5495: .long 0x6E8FEC50
00:0000D604 C870A26E        	  5496: .long 0x6EA270C8
00:0000D608 27F2B46E        	  5497: .long 0x6EB4F227
00:0000D60C 6E70C76E        	  5498: .long 0x6EC7706E
00:0000D610 A0EBD96E        	  5499: .long 0x6ED9EBA0
00:0000D614 BE63EC6E        	  5500: .long 0x6EEC63BE
00:0000D618 C8D8FE6E        	  5501: .long 0x6EFED8C8
00:0000D61C C24A116F        	  5502: .long 0x6F114AC2
00:0000D620 ABB9236F        	  5503: .long 0x6F23B9AB
00:0000D624 8725366F        	  5504: .long 0x6F362587
00:0000D628 568E486F        	  5505: .long 0x6F488E56
00:0000D62C 1AF45A6F        	  5506: .long 0x6F5AF41A
00:0000D630 D4566D6F        	  5507: .long 0x6F6D56D4
00:0000D634 86B67F6F        	  5508: .long 0x6F7FB686
00:0000D638 3213926F        	  5509: .long 0x6F921332
00:0000D63C D86CA46F        	  5510: .long 0x6FA46CD8
00:0000D640 7BC3B66F        	  5511: .long 0x6FB6C37B
00:0000D644 1B17C96F        	  5512: .long 0x6FC9171B
00:0000D648 BB67DB6F        	  5513: .long 0x6FDB67BB
00:0000D64C 5CB5ED6F        	  5514: .long 0x6FEDB55C
00:0000D650 FFFFFF6F        	  5515: .long 0x6FFFFFFF
00:0000D654 A5471270        	  5516: .long 0x701247A5
00:0000D658 518C2470        	  5517: .long 0x70248C51
00:0000D65C 04CE3670        	  5518: .long 0x7036CE04
00:0000D660 BE0C4970        	  5519: .long 0x70490CBE
00:0000D664 83485B70        	  5520: .long 0x705B4883
00:0000D668 52816D70        	  5521: .long 0x706D8152
00:0000D66C 2DB77F70        	  5522: .long 0x707FB72D
00:0000D670 17EA9170        	  5523: .long 0x7091EA17
00:0000D674 0F1AA470        	  5524: .long 0x70A41A0F
00:0000D678 1947B670        	  5525: .long 0x70B64719
00:0000D67C 3471C870        	  5526: .long 0x70C87134
00:0000D680 6398DA70        	  5527: .long 0x70DA9863
00:0000D684 A7BCEC70        	  5528: .long 0x70ECBCA7
00:0000D688 02DEFE70        	  5529: .long 0x70FEDE02
00:0000D68C 74FC1071        	  5530: .long 0x7110FC74
00:0000D690 FF172371        	  5531: .long 0x712317FF
00:0000D694 A5303571        	  5532: .long 0x713530A5
00:0000D698 67464771        	  5533: .long 0x71474667
00:0000D69C 46595971        	  5534: .long 0x71595946
00:0000D6A0 44696B71        	  5535: .long 0x716B6944
00:0000D6A4 61767D71        	  5536: .long 0x717D7661
00:0000D6A8 A1808F71        	  5537: .long 0x718F80A1
00:0000D6AC 0388A171        	  5538: .long 0x71A18803
00:0000D6B0 898CB371        	  5539: .long 0x71B38C89
00:0000D6B4 358EC571        	  5540: .long 0x71C58E35
00:0000D6B8 088DD771        	  5541: .long 0x71D78D08
00:0000D6BC 0289E971        	  5542: .long 0x71E98902
00:0000D6C0 2782FB71        	  5543: .long 0x71FB8227
00:0000D6C4 76780D72        	  5544: .long 0x720D7876
00:0000D6C8 F26B1F72        	  5545: .long 0x721F6BF2
00:0000D6CC 9B5C3172        	  5546: .long 0x72315C9B
00:0000D6D0 734A4372        	  5547: .long 0x72434A73
00:0000D6D4 7C355572        	  5548: .long 0x7255357C
00:0000D6D8 B61D6772        	  5549: .long 0x72671DB6
00:0000D6DC 23037972        	  5550: .long 0x72790323
00:0000D6E0 C4E58A72        	  5551: .long 0x728AE5C4
00:0000D6E4 9AC59C72        	  5552: .long 0x729CC59A
00:0000D6E8 A8A2AE72        	  5553: .long 0x72AEA2A8
00:0000D6EC ED7CC072        	  5554: .long 0x72C07CED
00:0000D6F0 6C54D272        	  5555: .long 0x72D2546C
00:0000D6F4 2629E472        	  5556: .long 0x72E42926
00:0000D6F8 1BFBF572        	  5557: .long 0x72F5FB1B
00:0000D6FC 4ECA0773        	  5558: .long 0x7307CA4E
00:0000D700 C0961973        	  5559: .long 0x731996C0
00:0000D704 71602B73        	  5560: .long 0x732B6071
00:0000D708 63273D73        	  5561: .long 0x733D2763
00:0000D70C 98EB4E73        	  5562: .long 0x734EEB98
00:0000D710 10AD6073        	  5563: .long 0x7360AD10
00:0000D714 CE6B7273        	  5564: .long 0x73726BCE
00:0000D718 D1278473        	  5565: .long 0x738427D1
00:0000D71C 1CE19573        	  5566: .long 0x7395E11C
00:0000D720 AF97A773        	  5567: .long 0x73A797AF
00:0000D724 8D4BB973        	  5568: .long 0x73B94B8D
00:0000D728 B6FCCA73        	  5569: .long 0x73CAFCB6
00:0000D72C 2BABDC73        	  5570: .long 0x73DCAB2B
00:0000D730 ED56EE73        	  5571: .long 0x73EE56ED
00:0000D734 FFFFFF73        	  5572: .long 0x73FFFFFF
00:0000D738 60A61174        	  5573: .long 0x7411A660
00:0000D73C 134A2374        	  5574: .long 0x74234A13
00:0000D740 19EB3474        	  5575: .long 0x7434EB19
00:0000D744 72894674        	  5576: .long 0x74468972
00:0000D748 20255874        	  5577: .long 0x74582520
00:0000D74C 25BE6974        	  5578: .long 0x7469BE25
00:0000D750 81547B74        	  5579: .long 0x747B5481
00:0000D754 35E88C74        	  5580: .long 0x748CE835
00:0000D758 43799E74        	  5581: .long 0x749E7943
00:0000D75C AC07B074        	  5582: .long 0x74B007AC
00:0000D760 7293C174        	  5583: .long 0x74C19372
00:0000D764 951CD374        	  5584: .long 0x74D31C95
00:0000D768 16A3E474        	  5585: .long 0x74E4A316
00:0000D76C F726F674        	  5586: .long 0x74F626F7
00:0000D770 39A80775        	  5587: .long 0x7507A839
00:0000D774 DD261975        	  5588: .long 0x751926DD
00:0000D778 E5A22A75        	  5589: .long 0x752AA2E5
00:0000D77C 501C3C75        	  5590: .long 0x753C1C50
00:0000D780 22934D75        	  5591: .long 0x754D9322
00:0000D784 5A075F75        	  5592: .long 0x755F075A
00:0000D788 FA787075        	  5593: .long 0x757078FA
00:0000D78C 04E88175        	  5594: .long 0x7581E804
00:0000D790 77549375        	  5595: .long 0x75935477
00:0000D794 56BEA475        	  5596: .long 0x75A4BE56
00:0000D798 A125B675        	  5597: .long 0x75B625A1
00:0000D79C 5A8AC775        	  5598: .long 0x75C78A5A
00:0000D7A0 82ECD875        	  5599: .long 0x75D8EC82
00:0000D7A4 1A4CEA75        	  5600: .long 0x75EA4C1A
00:0000D7A8 23A9FB75        	  5601: .long 0x75FBA923
00:0000D7AC 9E030D76        	  5602: .long 0x760D039E
00:0000D7B0 8C5B1E76        	  5603: .long 0x761E5B8C
00:0000D7B4 EFB02F76        	  5604: .long 0x762FB0EF
00:0000D7B8 C8034176        	  5605: .long 0x764103C8
00:0000D7BC 17545276        	  5606: .long 0x76525417
00:0000D7C0 DEA16376        	  5607: .long 0x7663A1DE
00:0000D7C4 1DED7476        	  5608: .long 0x7674ED1D
00:0000D7C8 D7358676        	  5609: .long 0x768635D7
00:0000D7CC 0C7C9776        	  5610: .long 0x76977C0C
00:0000D7D0 BDBFA876        	  5611: .long 0x76A8BFBD
00:0000D7D4 EC00BA76        	  5612: .long 0x76BA00EC
00:0000D7D8 993FCB76        	  5613: .long 0x76CB3F99
00:0000D7DC C57BDC76        	  5614: .long 0x76DC7BC5
00:0000D7E0 72B5ED76        	  5615: .long 0x76EDB572
00:0000D7E4 A1ECFE76        	  5616: .long 0x76FEECA1
00:0000D7E8 52211077        	  5617: .long 0x77102152
00:0000D7EC 88532177        	  5618: .long 0x77215388
00:0000D7F0 42833277        	  5619: .long 0x77328342
00:0000D7F4 82B04377        	  5620: .long 0x7743B082
00:0000D7F8 49DB5477        	  5621: .long 0x7754DB49
00:0000D7FC 99036677        	  5622: .long 0x77660399
00:0000D800 71297777        	  5623: .long 0x77772971
00:0000D804 D44C8877        	  5624: .long 0x77884CD4
00:0000D808 C26D9977        	  5625: .long 0x77996DC2
00:0000D80C 3D8CAA77        	  5626: .long 0x77AA8C3D
00:0000D810 44A8BB77        	  5627: .long 0x77BBA844
00:0000D814 DBC1CC77        	  5628: .long 0x77CCC1DB
00:0000D818 00D9DD77        	  5629: .long 0x77DDD900
00:0000D81C B7EDEE77        	  5630: .long 0x77EEEDB7
00:0000D820 FFFFFF77        	  5631: .long 0x77FFFFFF
00:0000D824 D90F1178        	  5632: .long 0x78110FD9
00:0000D828 481D2278        	  5633: .long 0x78221D48
00:0000D82C 4A283378        	  5634: .long 0x7833284A
00:0000D830 E3304478        	  5635: .long 0x784430E3
00:0000D834 12375578        	  5636: .long 0x78553712
00:0000D838 D93A6678        	  5637: .long 0x78663AD9
00:0000D83C 393C7778        	  5638: .long 0x78773C39
00:0000D840 333B8878        	  5639: .long 0x78883B33
00:0000D844 C8379978        	  5640: .long 0x789937C8
00:0000D848 F831AA78        	  5641: .long 0x78AA31F8
00:0000D84C C529BB78        	  5642: .long 0x78BB29C5
00:0000D850 301FCC78        	  5643: .long 0x78CC1F30
00:0000D854 3A12DD78        	  5644: .long 0x78DD123A
00:0000D858 E402EE78        	  5645: .long 0x78EE02E4
00:0000D85C 2EF1FE78        	  5646: .long 0x78FEF12E
00:0000D860 1BDD0F79        	  5647: .long 0x790FDD1B
00:0000D864 AAC62079        	  5648: .long 0x7920C6AA
00:0000D868 DDAD3179        	  5649: .long 0x7931ADDD
00:0000D86C B5924279        	  5650: .long 0x794292B5
00:0000D870 32755379        	  5651: .long 0x79537532
00:0000D874 57556479        	  5652: .long 0x79645557
00:0000D878 23337579        	  5653: .long 0x79753323
00:0000D87C 980E8679        	  5654: .long 0x79860E98
00:0000D880 B6E79679        	  5655: .long 0x7996E7B6
00:0000D884 80BEA779        	  5656: .long 0x79A7BE80
00:0000D888 F592B879        	  5657: .long 0x79B892F5
00:0000D88C 1665C979        	  5658: .long 0x79C96516
00:0000D890 E534DA79        	  5659: .long 0x79DA34E5
00:0000D894 6302EB79        	  5660: .long 0x79EB0263
00:0000D898 90CDFB79        	  5661: .long 0x79FBCD90
00:0000D89C 6D960C7A        	  5662: .long 0x7A0C966D
00:0000D8A0 FC5C1D7A        	  5663: .long 0x7A1D5CFC
00:0000D8A4 3E212E7A        	  5664: .long 0x7A2E213E
00:0000D8A8 32E33E7A        	  5665: .long 0x7A3EE332
00:0000D8AC DBA24F7A        	  5666: .long 0x7A4FA2DB
00:0000D8B0 3960607A        	  5667: .long 0x7A606039
00:0000D8B4 4D1B717A        	  5668: .long 0x7A711B4D
00:0000D8B8 19D4817A        	  5669: .long 0x7A81D419
00:0000D8BC 9C8A927A        	  5670: .long 0x7A928A9C
00:0000D8C0 D83EA37A        	  5671: .long 0x7AA33ED8
00:0000D8C4 CEF0B37A        	  5672: .long 0x7AB3F0CE
00:0000D8C8 7FA0C47A        	  5673: .long 0x7AC4A07F
00:0000D8CC EB4DD57A        	  5674: .long 0x7AD54DEB
00:0000D8D0 14F9E57A        	  5675: .long 0x7AE5F914
00:0000D8D4 FBA1F67A        	  5676: .long 0x7AF6A1FB
00:0000D8D8 A048077B        	  5677: .long 0x7B0748A0
00:0000D8DC 05ED177B        	  5678: .long 0x7B17ED05
00:0000D8E0 298F287B        	  5679: .long 0x7B288F29
00:0000D8E4 0F2F397B        	  5680: .long 0x7B392F0F
00:0000D8E8 B8CC497B        	  5681: .long 0x7B49CCB8
00:0000D8EC 23685A7B        	  5682: .long 0x7B5A6823
00:0000D8F0 52016B7B        	  5683: .long 0x7B6B0152
00:0000D8F4 46987B7B        	  5684: .long 0x7B7B9846
00:0000D8F8 002D8C7B        	  5685: .long 0x7B8C2D00
00:0000D8FC 80BF9C7B        	  5686: .long 0x7B9CBF80
00:0000D900 C84FAD7B        	  5687: .long 0x7BAD4FC8
00:0000D904 D8DDBD7B        	  5688: .long 0x7BBDDDD8
00:0000D908 B169CE7B        	  5689: .long 0x7BCE69B1
00:0000D90C 55F3DE7B        	  5690: .long 0x7BDEF355
00:0000D910 C47AEF7B        	  5691: .long 0x7BEF7AC4
00:0000D914 FFFFFF7B        	  5692: .long 0x7BFFFFFF
00:0000D918 0683107C        	  5693: .long 0x7C108306
00:0000D91C DC03217C        	  5694: .long 0x7C2103DC
00:0000D920 8082317C        	  5695: .long 0x7C318280
00:0000D924 F3FE417C        	  5696: .long 0x7C41FEF3
00:0000D928 3779527C        	  5697: .long 0x7C527937
00:0000D92C 4CF1627C        	  5698: .long 0x7C62F14C
00:0000D930 3267737C        	  5699: .long 0x7C736732
00:0000D934 ECDA837C        	  5700: .long 0x7C83DAEC
00:0000D938 7A4C947C        	  5701: .long 0x7C944C7A
00:0000D93C DCBBA47C        	  5702: .long 0x7CA4BBDC
00:0000D940 1429B57C        	  5703: .long 0x7CB52914
00:0000D944 2394C57C        	  5704: .long 0x7CC59423
00:0000D948 08FDD57C        	  5705: .long 0x7CD5FD08
00:0000D94C C663E67C        	  5706: .long 0x7CE663C6
00:0000D950 5CC8F67C        	  5707: .long 0x7CF6C85C
00:0000D954 CC2A077D        	  5708: .long 0x7D072ACC
00:0000D958 178B177D        	  5709: .long 0x7D178B17
00:0000D95C 3DE9277D        	  5710: .long 0x7D27E93D
00:0000D960 4045387D        	  5711: .long 0x7D384540
00:0000D964 209F487D        	  5712: .long 0x7D489F20
00:0000D968 DDF6587D        	  5713: .long 0x7D58F6DD
00:0000D96C 7A4C697D        	  5714: .long 0x7D694C7A
00:0000D970 F69F797D        	  5715: .long 0x7D799FF6
00:0000D974 53F1897D        	  5716: .long 0x7D89F153
00:0000D978 90409A7D        	  5717: .long 0x7D9A4090
00:0000D97C B08DAA7D        	  5718: .long 0x7DAA8DB0
00:0000D980 B3D8BA7D        	  5719: .long 0x7DBAD8B3
00:0000D984 9A21CB7D        	  5720: .long 0x7DCB219A
00:0000D988 6568DB7D        	  5721: .long 0x7DDB6865
00:0000D98C 16ADEB7D        	  5722: .long 0x7DEBAD16
00:0000D990 ADEFFB7D        	  5723: .long 0x7DFBEFAD
00:0000D994 2B300C7E        	  5724: .long 0x7E0C302B
00:0000D998 916E1C7E        	  5725: .long 0x7E1C6E91
00:0000D99C DFAA2C7E        	  5726: .long 0x7E2CAADF
00:0000D9A0 17E53C7E        	  5727: .long 0x7E3CE517
00:0000D9A4 391D4D7E        	  5728: .long 0x7E4D1D39
00:0000D9A8 46535D7E        	  5729: .long 0x7E5D5346
00:0000D9AC 3F876D7E        	  5730: .long 0x7E6D873F
00:0000D9B0 25B97D7E        	  5731: .long 0x7E7DB925
00:0000D9B4 F8E88D7E        	  5732: .long 0x7E8DE8F8
00:0000D9B8 BA169E7E        	  5733: .long 0x7E9E16BA
00:0000D9BC 6A42AE7E        	  5734: .long 0x7EAE426A
00:0000D9C0 0A6CBE7E        	  5735: .long 0x7EBE6C0A
00:0000D9C4 9B93CE7E        	  5736: .long 0x7ECE939B
00:0000D9C8 1EB9DE7E        	  5737: .long 0x7EDEB91E
00:0000D9CC 92DCEE7E        	  5738: .long 0x7EEEDC92
00:0000D9D0 FAFDFE7E        	  5739: .long 0x7EFEFDFA
00:0000D9D4 551D0F7F        	  5740: .long 0x7F0F1D55
00:0000D9D8 A53A1F7F        	  5741: .long 0x7F1F3AA5
00:0000D9DC EA552F7F        	  5742: .long 0x7F2F55EA
00:0000D9E0 256F3F7F        	  5743: .long 0x7F3F6F25
00:0000D9E4 57864F7F        	  5744: .long 0x7F4F8657
00:0000D9E8 819B5F7F        	  5745: .long 0x7F5F9B81
00:0000D9EC A3AE6F7F        	  5746: .long 0x7F6FAEA3
00:0000D9F0 BEBF7F7F        	  5747: .long 0x7F7FBFBE
00:0000D9F4 D4CE8F7F        	  5748: .long 0x7F8FCED4
00:0000D9F8 E4DB9F7F        	  5749: .long 0x7F9FDBE4
00:0000D9FC EFE6AF7F        	  5750: .long 0x7FAFE6EF
00:0000DA00 F7EFBF7F        	  5751: .long 0x7FBFEFF7
00:0000DA04 FBF6CF7F        	  5752: .long 0x7FCFF6FB
00:0000DA08 FEFBDF7F        	  5753: .long 0x7FDFFBFE
00:0000DA0C FFFEEF7F        	  5754: .long 0x7FEFFEFF
00:0000DA10 FFFFFFFF        	  5755: .long 0xFFFFFFFF
00:0000DA14 00000000        	  5756: .long 0x00000000
00:0000DA18 00000000        	  5757: .long 0x00000000
00:0000DA1C 00000000        	  5758: .long 0x00000000
00:0000DA20 00000000        	  5759: .long 0x00000000
00:0000DA24 00000000        	  5760: .long 0x00000000
00:0000DA28 00000000        	  5761: .long 0x00000000
00:0000DA2C 00000000        	  5762: .long 0x00000000
00:0000DA30 00000000        	  5763: .long 0x00000000
00:0000DA34 00000000        	  5764: .long 0x00000000
00:0000DA38 00000000        	  5765: .long 0x00000000
00:0000DA3C 00000000        	  5766: .long 0x00000000
00:0000DA40 00000000        	  5767: .long 0x00000000
00:0000DA44 00000000        	  5768: .long 0x00000000
00:0000DA48 00000000        	  5769: .long 0x00000000
00:0000DA4C 00000000        	  5770: .long 0x00000000
00:0000DA50 00000000        	  5771: .long 0x00000000
00:0000DA54 00000000        	  5772: .long 0x00000000
00:0000DA58 00000000        	  5773: .long 0x00000000
00:0000DA5C 00000000        	  5774: .long 0x00000000
00:0000DA60 00000000        	  5775: .long 0x00000000
00:0000DA64 00000000        	  5776: .long 0x00000000
00:0000DA68 00000000        	  5777: .long 0x00000000
00:0000DA6C 00000000        	  5778: .long 0x00000000
00:0000DA70 00000000        	  5779: .long 0x00000000
00:0000DA74 00000000        	  5780: .long 0x00000000
00:0000DA78 00000000        	  5781: .long 0x00000000
00:0000DA7C 00000000        	  5782: .long 0x00000000
00:0000DA80 00000000        	  5783: .long 0x00000000
00:0000DA84 00000000        	  5784: .long 0x00000000
00:0000DA88 00000000        	  5785: .long 0x00000000
00:0000DA8C 00000000        	  5786: .long 0x00000000
00:0000DA90 00000000        	  5787: .long 0x00000000
00:0000DA94 00000000        	  5788: .long 0x00000000
00:0000DA98 00000000        	  5789: .long 0x00000000
00:0000DA9C 00000000        	  5790: .long 0x00000000
00:0000DAA0 00000000        	  5791: .long 0x00000000
00:0000DAA4 00000000        	  5792: .long 0x00000000
00:0000DAA8 00000000        	  5793: .long 0x00000000
00:0000DAAC 00000000        	  5794: .long 0x00000000
00:0000DAB0 00000000        	  5795: .long 0x00000000
00:0000DAB4 00000000        	  5796: .long 0x00000000
00:0000DAB8 00000000        	  5797: .long 0x00000000
00:0000DABC 00000000        	  5798: .long 0x00000000
00:0000DAC0 00000000        	  5799: .long 0x00000000
00:0000DAC4 00000000        	  5800: .long 0x00000000
00:0000DAC8 00000000        	  5801: .long 0x00000000
00:0000DACC 00000000        	  5802: .long 0x00000000
00:0000DAD0 00000000        	  5803: .long 0x00000000
00:0000DAD4 00000000        	  5804: .long 0x00000000
00:0000DAD8 00000000        	  5805: .long 0x00000000
00:0000DADC 00000000        	  5806: .long 0x00000000
00:0000DAE0 00000000        	  5807: .long 0x00000000
00:0000DAE4 00000000        	  5808: .long 0x00000000
00:0000DAE8 00000000        	  5809: .long 0x00000000
00:0000DAEC 00000000        	  5810: .long 0x00000000
00:0000DAF0 00000000        	  5811: .long 0x00000000
00:0000DAF4 00000000        	  5812: .long 0x00000000
00:0000DAF8 00000000        	  5813: .long 0x00000000
00:0000DAFC 00000000        	  5814: .long 0x00000000
00:0000DB00 00000000        	  5815: .long 0x00000000
00:0000DB04 00000000        	  5816: .long 0x00000000
00:0000DB08 00000000        	  5817: .long 0x00000000
00:0000DB0C 00000000        	  5818: .long 0x00000000
00:0000DB10 FFFFFFFF        	  5819: .long 0xFFFFFFFF
00:0000DB14 00000100        	  5820: .long 0x00010000
00:0000DB18 00800000        	  5821: .long 0x00008000
00:0000DB1C 55550000        	  5822: .long 0x00005555
00:0000DB20 00400000        	  5823: .long 0x00004000
00:0000DB24 33330000        	  5824: .long 0x00003333
00:0000DB28 AA2A0000        	  5825: .long 0x00002AAA
00:0000DB2C 92240000        	  5826: .long 0x00002492
00:0000DB30 00200000        	  5827: .long 0x00002000
00:0000DB34 711C0000        	  5828: .long 0x00001C71
00:0000DB38 99190000        	  5829: .long 0x00001999
00:0000DB3C 45170000        	  5830: .long 0x00001745
00:0000DB40 55150000        	  5831: .long 0x00001555
00:0000DB44 B1130000        	  5832: .long 0x000013B1
00:0000DB48 49120000        	  5833: .long 0x00001249
00:0000DB4C 11110000        	  5834: .long 0x00001111
00:0000DB50 00100000        	  5835: .long 0x00001000
00:0000DB54 0F0F0000        	  5836: .long 0x00000F0F
00:0000DB58 380E0000        	  5837: .long 0x00000E38
00:0000DB5C 790D0000        	  5838: .long 0x00000D79
00:0000DB60 CC0C0000        	  5839: .long 0x00000CCC
00:0000DB64 300C0000        	  5840: .long 0x00000C30
00:0000DB68 A20B0000        	  5841: .long 0x00000BA2
00:0000DB6C 210B0000        	  5842: .long 0x00000B21
00:0000DB70 AA0A0000        	  5843: .long 0x00000AAA
00:0000DB74 3D0A0000        	  5844: .long 0x00000A3D
00:0000DB78 D8090000        	  5845: .long 0x000009D8
00:0000DB7C 7B090000        	  5846: .long 0x0000097B
00:0000DB80 24090000        	  5847: .long 0x00000924
00:0000DB84 D3080000        	  5848: .long 0x000008D3
00:0000DB88 88080000        	  5849: .long 0x00000888
00:0000DB8C 42080000        	  5850: .long 0x00000842
00:0000DB90 00080000        	  5851: .long 0x00000800
00:0000DB94 C1070000        	  5852: .long 0x000007C1
00:0000DB98 87070000        	  5853: .long 0x00000787
00:0000DB9C 50070000        	  5854: .long 0x00000750
00:0000DBA0 1C070000        	  5855: .long 0x0000071C
00:0000DBA4 EB060000        	  5856: .long 0x000006EB
00:0000DBA8 BC060000        	  5857: .long 0x000006BC
00:0000DBAC 90060000        	  5858: .long 0x00000690
00:0000DBB0 66060000        	  5859: .long 0x00000666
00:0000DBB4 3E060000        	  5860: .long 0x0000063E
00:0000DBB8 18060000        	  5861: .long 0x00000618
00:0000DBBC F4050000        	  5862: .long 0x000005F4
00:0000DBC0 D1050000        	  5863: .long 0x000005D1
00:0000DBC4 B0050000        	  5864: .long 0x000005B0
00:0000DBC8 90050000        	  5865: .long 0x00000590
00:0000DBCC 72050000        	  5866: .long 0x00000572
00:0000DBD0 55050000        	  5867: .long 0x00000555
00:0000DBD4 39050000        	  5868: .long 0x00000539
00:0000DBD8 1E050000        	  5869: .long 0x0000051E
00:0000DBDC 05050000        	  5870: .long 0x00000505
00:0000DBE0 EC040000        	  5871: .long 0x000004EC
00:0000DBE4 D4040000        	  5872: .long 0x000004D4
00:0000DBE8 BD040000        	  5873: .long 0x000004BD
00:0000DBEC A7040000        	  5874: .long 0x000004A7
00:0000DBF0 92040000        	  5875: .long 0x00000492
00:0000DBF4 7D040000        	  5876: .long 0x0000047D
00:0000DBF8 69040000        	  5877: .long 0x00000469
00:0000DBFC 56040000        	  5878: .long 0x00000456
00:0000DC00 44040000        	  5879: .long 0x00000444
00:0000DC04 32040000        	  5880: .long 0x00000432
00:0000DC08 21040000        	  5881: .long 0x00000421
00:0000DC0C 10040000        	  5882: .long 0x00000410
00:0000DC10 FFFFFFFF        	  5883: .long 0xFFFFFFFF
00:0000DC14 00000200        	  5884: .long 0x00020000
00:0000DC18 00000100        	  5885: .long 0x00010000
00:0000DC1C AAAA0000        	  5886: .long 0x0000AAAA
00:0000DC20 00800000        	  5887: .long 0x00008000
00:0000DC24 66660000        	  5888: .long 0x00006666
00:0000DC28 55550000        	  5889: .long 0x00005555
00:0000DC2C 24490000        	  5890: .long 0x00004924
00:0000DC30 00400000        	  5891: .long 0x00004000
00:0000DC34 E3380000        	  5892: .long 0x000038E3
00:0000DC38 33330000        	  5893: .long 0x00003333
00:0000DC3C 8B2E0000        	  5894: .long 0x00002E8B
00:0000DC40 AA2A0000        	  5895: .long 0x00002AAA
00:0000DC44 62270000        	  5896: .long 0x00002762
00:0000DC48 92240000        	  5897: .long 0x00002492
00:0000DC4C 22220000        	  5898: .long 0x00002222
00:0000DC50 00200000        	  5899: .long 0x00002000
00:0000DC54 1E1E0000        	  5900: .long 0x00001E1E
00:0000DC58 711C0000        	  5901: .long 0x00001C71
00:0000DC5C F21A0000        	  5902: .long 0x00001AF2
00:0000DC60 99190000        	  5903: .long 0x00001999
00:0000DC64 61180000        	  5904: .long 0x00001861
00:0000DC68 45170000        	  5905: .long 0x00001745
00:0000DC6C 42160000        	  5906: .long 0x00001642
00:0000DC70 55150000        	  5907: .long 0x00001555
00:0000DC74 7A140000        	  5908: .long 0x0000147A
00:0000DC78 B1130000        	  5909: .long 0x000013B1
00:0000DC7C F6120000        	  5910: .long 0x000012F6
00:0000DC80 49120000        	  5911: .long 0x00001249
00:0000DC84 A7110000        	  5912: .long 0x000011A7
00:0000DC88 11110000        	  5913: .long 0x00001111
00:0000DC8C 84100000        	  5914: .long 0x00001084
00:0000DC90 00100000        	  5915: .long 0x00001000
00:0000DC94 830F0000        	  5916: .long 0x00000F83
00:0000DC98 0F0F0000        	  5917: .long 0x00000F0F
00:0000DC9C A00E0000        	  5918: .long 0x00000EA0
00:0000DCA0 380E0000        	  5919: .long 0x00000E38
00:0000DCA4 D60D0000        	  5920: .long 0x00000DD6
00:0000DCA8 790D0000        	  5921: .long 0x00000D79
00:0000DCAC 200D0000        	  5922: .long 0x00000D20
00:0000DCB0 CC0C0000        	  5923: .long 0x00000CCC
00:0000DCB4 7C0C0000        	  5924: .long 0x00000C7C
00:0000DCB8 300C0000        	  5925: .long 0x00000C30
00:0000DCBC E80B0000        	  5926: .long 0x00000BE8
00:0000DCC0 A20B0000        	  5927: .long 0x00000BA2
00:0000DCC4 600B0000        	  5928: .long 0x00000B60
00:0000DCC8 210B0000        	  5929: .long 0x00000B21
00:0000DCCC E40A0000        	  5930: .long 0x00000AE4
00:0000DCD0 AA0A0000        	  5931: .long 0x00000AAA
00:0000DCD4 720A0000        	  5932: .long 0x00000A72
00:0000DCD8 3D0A0000        	  5933: .long 0x00000A3D
00:0000DCDC 0A0A0000        	  5934: .long 0x00000A0A
00:0000DCE0 D8090000        	  5935: .long 0x000009D8
00:0000DCE4 A9090000        	  5936: .long 0x000009A9
00:0000DCE8 7B090000        	  5937: .long 0x0000097B
00:0000DCEC 4F090000        	  5938: .long 0x0000094F
00:0000DCF0 24090000        	  5939: .long 0x00000924
00:0000DCF4 FB080000        	  5940: .long 0x000008FB
00:0000DCF8 D3080000        	  5941: .long 0x000008D3
00:0000DCFC AD080000        	  5942: .long 0x000008AD
00:0000DD00 88080000        	  5943: .long 0x00000888
00:0000DD04 64080000        	  5944: .long 0x00000864
00:0000DD08 42080000        	  5945: .long 0x00000842
00:0000DD0C 20080000        	  5946: .long 0x00000820
00:0000DD10 FFFFFFFF        	  5947: .long 0xFFFFFFFF
00:0000DD14 00000300        	  5948: .long 0x00030000
00:0000DD18 00800100        	  5949: .long 0x00018000
00:0000DD1C 00000100        	  5950: .long 0x00010000
00:0000DD20 00C00000        	  5951: .long 0x0000C000
00:0000DD24 99990000        	  5952: .long 0x00009999
00:0000DD28 00800000        	  5953: .long 0x00008000
00:0000DD2C B66D0000        	  5954: .long 0x00006DB6
00:0000DD30 00600000        	  5955: .long 0x00006000
00:0000DD34 55550000        	  5956: .long 0x00005555
00:0000DD38 CC4C0000        	  5957: .long 0x00004CCC
00:0000DD3C D1450000        	  5958: .long 0x000045D1
00:0000DD40 00400000        	  5959: .long 0x00004000
00:0000DD44 133B0000        	  5960: .long 0x00003B13
00:0000DD48 DB360000        	  5961: .long 0x000036DB
00:0000DD4C 33330000        	  5962: .long 0x00003333
00:0000DD50 00300000        	  5963: .long 0x00003000
00:0000DD54 2D2D0000        	  5964: .long 0x00002D2D
00:0000DD58 AA2A0000        	  5965: .long 0x00002AAA
00:0000DD5C 6B280000        	  5966: .long 0x0000286B
00:0000DD60 66260000        	  5967: .long 0x00002666
00:0000DD64 92240000        	  5968: .long 0x00002492
00:0000DD68 E8220000        	  5969: .long 0x000022E8
00:0000DD6C 64210000        	  5970: .long 0x00002164
00:0000DD70 00200000        	  5971: .long 0x00002000
00:0000DD74 B81E0000        	  5972: .long 0x00001EB8
00:0000DD78 891D0000        	  5973: .long 0x00001D89
00:0000DD7C 711C0000        	  5974: .long 0x00001C71
00:0000DD80 6D1B0000        	  5975: .long 0x00001B6D
00:0000DD84 7B1A0000        	  5976: .long 0x00001A7B
00:0000DD88 99190000        	  5977: .long 0x00001999
00:0000DD8C C6180000        	  5978: .long 0x000018C6
00:0000DD90 00180000        	  5979: .long 0x00001800
00:0000DD94 45170000        	  5980: .long 0x00001745
00:0000DD98 96160000        	  5981: .long 0x00001696
00:0000DD9C F1150000        	  5982: .long 0x000015F1
00:0000DDA0 55150000        	  5983: .long 0x00001555
00:0000DDA4 C1140000        	  5984: .long 0x000014C1
00:0000DDA8 35140000        	  5985: .long 0x00001435
00:0000DDAC B1130000        	  5986: .long 0x000013B1
00:0000DDB0 33130000        	  5987: .long 0x00001333
00:0000DDB4 BB120000        	  5988: .long 0x000012BB
00:0000DDB8 49120000        	  5989: .long 0x00001249
00:0000DDBC DC110000        	  5990: .long 0x000011DC
00:0000DDC0 74110000        	  5991: .long 0x00001174
00:0000DDC4 11110000        	  5992: .long 0x00001111
00:0000DDC8 B2100000        	  5993: .long 0x000010B2
00:0000DDCC 57100000        	  5994: .long 0x00001057
00:0000DDD0 00100000        	  5995: .long 0x00001000
00:0000DDD4 AC0F0000        	  5996: .long 0x00000FAC
00:0000DDD8 5C0F0000        	  5997: .long 0x00000F5C
00:0000DDDC 0F0F0000        	  5998: .long 0x00000F0F
00:0000DDE0 C40E0000        	  5999: .long 0x00000EC4
00:0000DDE4 7D0E0000        	  6000: .long 0x00000E7D
00:0000DDE8 380E0000        	  6001: .long 0x00000E38
00:0000DDEC F60D0000        	  6002: .long 0x00000DF6
00:0000DDF0 B60D0000        	  6003: .long 0x00000DB6
00:0000DDF4 790D0000        	  6004: .long 0x00000D79
00:0000DDF8 3D0D0000        	  6005: .long 0x00000D3D
00:0000DDFC 040D0000        	  6006: .long 0x00000D04
00:0000DE00 CC0C0000        	  6007: .long 0x00000CCC
00:0000DE04 970C0000        	  6008: .long 0x00000C97
00:0000DE08 630C0000        	  6009: .long 0x00000C63
00:0000DE0C 300C0000        	  6010: .long 0x00000C30
00:0000DE10 FFFFFFFF        	  6011: .long 0xFFFFFFFF
00:0000DE14 00000400        	  6012: .long 0x00040000
00:0000DE18 00000200        	  6013: .long 0x00020000
00:0000DE1C 55550100        	  6014: .long 0x00015555
00:0000DE20 00000100        	  6015: .long 0x00010000
00:0000DE24 CCCC0000        	  6016: .long 0x0000CCCC
00:0000DE28 AAAA0000        	  6017: .long 0x0000AAAA
00:0000DE2C 49920000        	  6018: .long 0x00009249
00:0000DE30 00800000        	  6019: .long 0x00008000
00:0000DE34 C7710000        	  6020: .long 0x000071C7
00:0000DE38 66660000        	  6021: .long 0x00006666
00:0000DE3C 175D0000        	  6022: .long 0x00005D17
00:0000DE40 55550000        	  6023: .long 0x00005555
00:0000DE44 C44E0000        	  6024: .long 0x00004EC4
00:0000DE48 24490000        	  6025: .long 0x00004924
00:0000DE4C 44440000        	  6026: .long 0x00004444
00:0000DE50 00400000        	  6027: .long 0x00004000
00:0000DE54 3C3C0000        	  6028: .long 0x00003C3C
00:0000DE58 E3380000        	  6029: .long 0x000038E3
00:0000DE5C E5350000        	  6030: .long 0x000035E5
00:0000DE60 33330000        	  6031: .long 0x00003333
00:0000DE64 C3300000        	  6032: .long 0x000030C3
00:0000DE68 8B2E0000        	  6033: .long 0x00002E8B
00:0000DE6C 852C0000        	  6034: .long 0x00002C85
00:0000DE70 AA2A0000        	  6035: .long 0x00002AAA
00:0000DE74 F5280000        	  6036: .long 0x000028F5
00:0000DE78 62270000        	  6037: .long 0x00002762
00:0000DE7C ED250000        	  6038: .long 0x000025ED
00:0000DE80 92240000        	  6039: .long 0x00002492
00:0000DE84 4F230000        	  6040: .long 0x0000234F
00:0000DE88 22220000        	  6041: .long 0x00002222
00:0000DE8C 08210000        	  6042: .long 0x00002108
00:0000DE90 00200000        	  6043: .long 0x00002000
00:0000DE94 071F0000        	  6044: .long 0x00001F07
00:0000DE98 1E1E0000        	  6045: .long 0x00001E1E
00:0000DE9C 411D0000        	  6046: .long 0x00001D41
00:0000DEA0 711C0000        	  6047: .long 0x00001C71
00:0000DEA4 AC1B0000        	  6048: .long 0x00001BAC
00:0000DEA8 F21A0000        	  6049: .long 0x00001AF2
00:0000DEAC 411A0000        	  6050: .long 0x00001A41
00:0000DEB0 99190000        	  6051: .long 0x00001999
00:0000DEB4 F9180000        	  6052: .long 0x000018F9
00:0000DEB8 61180000        	  6053: .long 0x00001861
00:0000DEBC D0170000        	  6054: .long 0x000017D0
00:0000DEC0 45170000        	  6055: .long 0x00001745
00:0000DEC4 C1160000        	  6056: .long 0x000016C1
00:0000DEC8 42160000        	  6057: .long 0x00001642
00:0000DECC C9150000        	  6058: .long 0x000015C9
00:0000DED0 55150000        	  6059: .long 0x00001555
00:0000DED4 E5140000        	  6060: .long 0x000014E5
00:0000DED8 7A140000        	  6061: .long 0x0000147A
00:0000DEDC 14140000        	  6062: .long 0x00001414
00:0000DEE0 B1130000        	  6063: .long 0x000013B1
00:0000DEE4 52130000        	  6064: .long 0x00001352
00:0000DEE8 F6120000        	  6065: .long 0x000012F6
00:0000DEEC 9E120000        	  6066: .long 0x0000129E
00:0000DEF0 49120000        	  6067: .long 0x00001249
00:0000DEF4 F7110000        	  6068: .long 0x000011F7
00:0000DEF8 A7110000        	  6069: .long 0x000011A7
00:0000DEFC 5B110000        	  6070: .long 0x0000115B
00:0000DF00 11110000        	  6071: .long 0x00001111
00:0000DF04 C9100000        	  6072: .long 0x000010C9
00:0000DF08 84100000        	  6073: .long 0x00001084
00:0000DF0C 41100000        	  6074: .long 0x00001041
00:0000DF10 FFFFFFFF        	  6075: .long 0xFFFFFFFF
00:0000DF14 00000500        	  6076: .long 0x00050000
00:0000DF18 00800200        	  6077: .long 0x00028000
00:0000DF1C AAAA0100        	  6078: .long 0x0001AAAA
00:0000DF20 00400100        	  6079: .long 0x00014000
00:0000DF24 00000100        	  6080: .long 0x00010000
00:0000DF28 55D50000        	  6081: .long 0x0000D555
00:0000DF2C DBB60000        	  6082: .long 0x0000B6DB
00:0000DF30 00A00000        	  6083: .long 0x0000A000
00:0000DF34 388E0000        	  6084: .long 0x00008E38
00:0000DF38 00800000        	  6085: .long 0x00008000
00:0000DF3C 5D740000        	  6086: .long 0x0000745D
00:0000DF40 AA6A0000        	  6087: .long 0x00006AAA
00:0000DF44 76620000        	  6088: .long 0x00006276
00:0000DF48 6D5B0000        	  6089: .long 0x00005B6D
00:0000DF4C 55550000        	  6090: .long 0x00005555
00:0000DF50 00500000        	  6091: .long 0x00005000
00:0000DF54 4B4B0000        	  6092: .long 0x00004B4B
00:0000DF58 1C470000        	  6093: .long 0x0000471C
00:0000DF5C 5E430000        	  6094: .long 0x0000435E
00:0000DF60 00400000        	  6095: .long 0x00004000
00:0000DF64 F33C0000        	  6096: .long 0x00003CF3
00:0000DF68 2E3A0000        	  6097: .long 0x00003A2E
00:0000DF6C A6370000        	  6098: .long 0x000037A6
00:0000DF70 55350000        	  6099: .long 0x00003555
00:0000DF74 33330000        	  6100: .long 0x00003333
00:0000DF78 3B310000        	  6101: .long 0x0000313B
00:0000DF7C 682F0000        	  6102: .long 0x00002F68
00:0000DF80 B62D0000        	  6103: .long 0x00002DB6
00:0000DF84 232C0000        	  6104: .long 0x00002C23
00:0000DF88 AA2A0000        	  6105: .long 0x00002AAA
00:0000DF8C 4A290000        	  6106: .long 0x0000294A
00:0000DF90 00280000        	  6107: .long 0x00002800
00:0000DF94 C9260000        	  6108: .long 0x000026C9
00:0000DF98 A5250000        	  6109: .long 0x000025A5
00:0000DF9C 92240000        	  6110: .long 0x00002492
00:0000DFA0 8E230000        	  6111: .long 0x0000238E
00:0000DFA4 98220000        	  6112: .long 0x00002298
00:0000DFA8 AF210000        	  6113: .long 0x000021AF
00:0000DFAC D2200000        	  6114: .long 0x000020D2
00:0000DFB0 00200000        	  6115: .long 0x00002000
00:0000DFB4 381F0000        	  6116: .long 0x00001F38
00:0000DFB8 791E0000        	  6117: .long 0x00001E79
00:0000DFBC C41D0000        	  6118: .long 0x00001DC4
00:0000DFC0 171D0000        	  6119: .long 0x00001D17
00:0000DFC4 711C0000        	  6120: .long 0x00001C71
00:0000DFC8 D31B0000        	  6121: .long 0x00001BD3
00:0000DFCC 3B1B0000        	  6122: .long 0x00001B3B
00:0000DFD0 AA1A0000        	  6123: .long 0x00001AAA
00:0000DFD4 1F1A0000        	  6124: .long 0x00001A1F
00:0000DFD8 99190000        	  6125: .long 0x00001999
00:0000DFDC 19190000        	  6126: .long 0x00001919
00:0000DFE0 9D180000        	  6127: .long 0x0000189D
00:0000DFE4 26180000        	  6128: .long 0x00001826
00:0000DFE8 B4170000        	  6129: .long 0x000017B4
00:0000DFEC 45170000        	  6130: .long 0x00001745
00:0000DFF0 DB160000        	  6131: .long 0x000016DB
00:0000DFF4 74160000        	  6132: .long 0x00001674
00:0000DFF8 11160000        	  6133: .long 0x00001611
00:0000DFFC B1150000        	  6134: .long 0x000015B1
00:0000E000 55150000        	  6135: .long 0x00001555
00:0000E004 FB140000        	  6136: .long 0x000014FB
00:0000E008 A5140000        	  6137: .long 0x000014A5
00:0000E00C 51140000        	  6138: .long 0x00001451
00:0000E010 FFFFFFFF        	  6139: .long 0xFFFFFFFF
00:0000E014 00000600        	  6140: .long 0x00060000
00:0000E018 00000300        	  6141: .long 0x00030000
00:0000E01C 00000200        	  6142: .long 0x00020000
00:0000E020 00800100        	  6143: .long 0x00018000
00:0000E024 33330100        	  6144: .long 0x00013333
00:0000E028 00000100        	  6145: .long 0x00010000
00:0000E02C 6DDB0000        	  6146: .long 0x0000DB6D
00:0000E030 00C00000        	  6147: .long 0x0000C000
00:0000E034 AAAA0000        	  6148: .long 0x0000AAAA
00:0000E038 99990000        	  6149: .long 0x00009999
00:0000E03C A28B0000        	  6150: .long 0x00008BA2
00:0000E040 00800000        	  6151: .long 0x00008000
00:0000E044 27760000        	  6152: .long 0x00007627
00:0000E048 B66D0000        	  6153: .long 0x00006DB6
00:0000E04C 66660000        	  6154: .long 0x00006666
00:0000E050 00600000        	  6155: .long 0x00006000
00:0000E054 5A5A0000        	  6156: .long 0x00005A5A
00:0000E058 55550000        	  6157: .long 0x00005555
00:0000E05C D7500000        	  6158: .long 0x000050D7
00:0000E060 CC4C0000        	  6159: .long 0x00004CCC
00:0000E064 24490000        	  6160: .long 0x00004924
00:0000E068 D1450000        	  6161: .long 0x000045D1
00:0000E06C C8420000        	  6162: .long 0x000042C8
00:0000E070 00400000        	  6163: .long 0x00004000
00:0000E074 703D0000        	  6164: .long 0x00003D70
00:0000E078 133B0000        	  6165: .long 0x00003B13
00:0000E07C E3380000        	  6166: .long 0x000038E3
00:0000E080 DB360000        	  6167: .long 0x000036DB
00:0000E084 F7340000        	  6168: .long 0x000034F7
00:0000E088 33330000        	  6169: .long 0x00003333
00:0000E08C 8C310000        	  6170: .long 0x0000318C
00:0000E090 00300000        	  6171: .long 0x00003000
00:0000E094 8B2E0000        	  6172: .long 0x00002E8B
00:0000E098 2D2D0000        	  6173: .long 0x00002D2D
00:0000E09C E22B0000        	  6174: .long 0x00002BE2
00:0000E0A0 AA2A0000        	  6175: .long 0x00002AAA
00:0000E0A4 83290000        	  6176: .long 0x00002983
00:0000E0A8 6B280000        	  6177: .long 0x0000286B
00:0000E0AC 62270000        	  6178: .long 0x00002762
00:0000E0B0 66260000        	  6179: .long 0x00002666
00:0000E0B4 76250000        	  6180: .long 0x00002576
00:0000E0B8 92240000        	  6181: .long 0x00002492
00:0000E0BC B8230000        	  6182: .long 0x000023B8
00:0000E0C0 E8220000        	  6183: .long 0x000022E8
00:0000E0C4 22220000        	  6184: .long 0x00002222
00:0000E0C8 64210000        	  6185: .long 0x00002164
00:0000E0CC AE200000        	  6186: .long 0x000020AE
00:0000E0D0 00200000        	  6187: .long 0x00002000
00:0000E0D4 581F0000        	  6188: .long 0x00001F58
00:0000E0D8 B81E0000        	  6189: .long 0x00001EB8
00:0000E0DC 1E1E0000        	  6190: .long 0x00001E1E
00:0000E0E0 891D0000        	  6191: .long 0x00001D89
00:0000E0E4 FB1C0000        	  6192: .long 0x00001CFB
00:0000E0E8 711C0000        	  6193: .long 0x00001C71
00:0000E0EC ED1B0000        	  6194: .long 0x00001BED
00:0000E0F0 6D1B0000        	  6195: .long 0x00001B6D
00:0000E0F4 F21A0000        	  6196: .long 0x00001AF2
00:0000E0F8 7B1A0000        	  6197: .long 0x00001A7B
00:0000E0FC 081A0000        	  6198: .long 0x00001A08
00:0000E100 99190000        	  6199: .long 0x00001999
00:0000E104 2E190000        	  6200: .long 0x0000192E
00:0000E108 C6180000        	  6201: .long 0x000018C6
00:0000E10C 61180000        	  6202: .long 0x00001861
00:0000E110 FFFFFFFF        	  6203: .long 0xFFFFFFFF
00:0000E114 00000700        	  6204: .long 0x00070000
00:0000E118 00800300        	  6205: .long 0x00038000
00:0000E11C 55550200        	  6206: .long 0x00025555
00:0000E120 00C00100        	  6207: .long 0x0001C000
00:0000E124 66660100        	  6208: .long 0x00016666
00:0000E128 AA2A0100        	  6209: .long 0x00012AAA
00:0000E12C 00000100        	  6210: .long 0x00010000
00:0000E130 00E00000        	  6211: .long 0x0000E000
00:0000E134 1CC70000        	  6212: .long 0x0000C71C
00:0000E138 33B30000        	  6213: .long 0x0000B333
00:0000E13C E8A20000        	  6214: .long 0x0000A2E8
00:0000E140 55950000        	  6215: .long 0x00009555
00:0000E144 D8890000        	  6216: .long 0x000089D8
00:0000E148 00800000        	  6217: .long 0x00008000
00:0000E14C 77770000        	  6218: .long 0x00007777
00:0000E150 00700000        	  6219: .long 0x00007000
00:0000E154 69690000        	  6220: .long 0x00006969
00:0000E158 8E630000        	  6221: .long 0x0000638E
00:0000E15C 505E0000        	  6222: .long 0x00005E50
00:0000E160 99590000        	  6223: .long 0x00005999
00:0000E164 55550000        	  6224: .long 0x00005555
00:0000E168 74510000        	  6225: .long 0x00005174
00:0000E16C E94D0000        	  6226: .long 0x00004DE9
00:0000E170 AA4A0000        	  6227: .long 0x00004AAA
00:0000E174 AE470000        	  6228: .long 0x000047AE
00:0000E178 EC440000        	  6229: .long 0x000044EC
00:0000E17C 5E420000        	  6230: .long 0x0000425E
00:0000E180 00400000        	  6231: .long 0x00004000
00:0000E184 CB3D0000        	  6232: .long 0x00003DCB
00:0000E188 BB3B0000        	  6233: .long 0x00003BBB
00:0000E18C CE390000        	  6234: .long 0x000039CE
00:0000E190 00380000        	  6235: .long 0x00003800
00:0000E194 4D360000        	  6236: .long 0x0000364D
00:0000E198 B4340000        	  6237: .long 0x000034B4
00:0000E19C 33330000        	  6238: .long 0x00003333
00:0000E1A0 C7310000        	  6239: .long 0x000031C7
00:0000E1A4 6E300000        	  6240: .long 0x0000306E
00:0000E1A8 282F0000        	  6241: .long 0x00002F28
00:0000E1AC F22D0000        	  6242: .long 0x00002DF2
00:0000E1B0 CC2C0000        	  6243: .long 0x00002CCC
00:0000E1B4 B52B0000        	  6244: .long 0x00002BB5
00:0000E1B8 AA2A0000        	  6245: .long 0x00002AAA
00:0000E1BC AC290000        	  6246: .long 0x000029AC
00:0000E1C0 BA280000        	  6247: .long 0x000028BA
00:0000E1C4 D2270000        	  6248: .long 0x000027D2
00:0000E1C8 F4260000        	  6249: .long 0x000026F4
00:0000E1CC 20260000        	  6250: .long 0x00002620
00:0000E1D0 55250000        	  6251: .long 0x00002555
00:0000E1D4 92240000        	  6252: .long 0x00002492
00:0000E1D8 D7230000        	  6253: .long 0x000023D7
00:0000E1DC 23230000        	  6254: .long 0x00002323
00:0000E1E0 76220000        	  6255: .long 0x00002276
00:0000E1E4 CF210000        	  6256: .long 0x000021CF
00:0000E1E8 2F210000        	  6257: .long 0x0000212F
00:0000E1EC 94200000        	  6258: .long 0x00002094
00:0000E1F0 00200000        	  6259: .long 0x00002000
00:0000E1F4 701F0000        	  6260: .long 0x00001F70
00:0000E1F8 E51E0000        	  6261: .long 0x00001EE5
00:0000E1FC 5F1E0000        	  6262: .long 0x00001E5F
00:0000E200 DD1D0000        	  6263: .long 0x00001DDD
00:0000E204 601D0000        	  6264: .long 0x00001D60
00:0000E208 E71C0000        	  6265: .long 0x00001CE7
00:0000E20C 711C0000        	  6266: .long 0x00001C71
00:0000E210 FFFFFFFF        	  6267: .long 0xFFFFFFFF
00:0000E214 00000800        	  6268: .long 0x00080000
00:0000E218 00000400        	  6269: .long 0x00040000
00:0000E21C AAAA0200        	  6270: .long 0x0002AAAA
00:0000E220 00000200        	  6271: .long 0x00020000
00:0000E224 99990100        	  6272: .long 0x00019999
00:0000E228 55550100        	  6273: .long 0x00015555
00:0000E22C 92240100        	  6274: .long 0x00012492
00:0000E230 00000100        	  6275: .long 0x00010000
00:0000E234 8EE30000        	  6276: .long 0x0000E38E
00:0000E238 CCCC0000        	  6277: .long 0x0000CCCC
00:0000E23C 2EBA0000        	  6278: .long 0x0000BA2E
00:0000E240 AAAA0000        	  6279: .long 0x0000AAAA
00:0000E244 899D0000        	  6280: .long 0x00009D89
00:0000E248 49920000        	  6281: .long 0x00009249
00:0000E24C 88880000        	  6282: .long 0x00008888
00:0000E250 00800000        	  6283: .long 0x00008000
00:0000E254 78780000        	  6284: .long 0x00007878
00:0000E258 C7710000        	  6285: .long 0x000071C7
00:0000E25C CA6B0000        	  6286: .long 0x00006BCA
00:0000E260 66660000        	  6287: .long 0x00006666
00:0000E264 86610000        	  6288: .long 0x00006186
00:0000E268 175D0000        	  6289: .long 0x00005D17
00:0000E26C 0B590000        	  6290: .long 0x0000590B
00:0000E270 55550000        	  6291: .long 0x00005555
00:0000E274 EB510000        	  6292: .long 0x000051EB
00:0000E278 C44E0000        	  6293: .long 0x00004EC4
00:0000E27C DA4B0000        	  6294: .long 0x00004BDA
00:0000E280 24490000        	  6295: .long 0x00004924
00:0000E284 9E460000        	  6296: .long 0x0000469E
00:0000E288 44440000        	  6297: .long 0x00004444
00:0000E28C 10420000        	  6298: .long 0x00004210
00:0000E290 00400000        	  6299: .long 0x00004000
00:0000E294 0F3E0000        	  6300: .long 0x00003E0F
00:0000E298 3C3C0000        	  6301: .long 0x00003C3C
00:0000E29C 833A0000        	  6302: .long 0x00003A83
00:0000E2A0 E3380000        	  6303: .long 0x000038E3
00:0000E2A4 59370000        	  6304: .long 0x00003759
00:0000E2A8 E5350000        	  6305: .long 0x000035E5
00:0000E2AC 83340000        	  6306: .long 0x00003483
00:0000E2B0 33330000        	  6307: .long 0x00003333
00:0000E2B4 F3310000        	  6308: .long 0x000031F3
00:0000E2B8 C3300000        	  6309: .long 0x000030C3
00:0000E2BC A02F0000        	  6310: .long 0x00002FA0
00:0000E2C0 8B2E0000        	  6311: .long 0x00002E8B
00:0000E2C4 822D0000        	  6312: .long 0x00002D82
00:0000E2C8 852C0000        	  6313: .long 0x00002C85
00:0000E2CC 932B0000        	  6314: .long 0x00002B93
00:0000E2D0 AA2A0000        	  6315: .long 0x00002AAA
00:0000E2D4 CB290000        	  6316: .long 0x000029CB
00:0000E2D8 F5280000        	  6317: .long 0x000028F5
00:0000E2DC 28280000        	  6318: .long 0x00002828
00:0000E2E0 62270000        	  6319: .long 0x00002762
00:0000E2E4 A4260000        	  6320: .long 0x000026A4
00:0000E2E8 ED250000        	  6321: .long 0x000025ED
00:0000E2EC 3C250000        	  6322: .long 0x0000253C
00:0000E2F0 92240000        	  6323: .long 0x00002492
00:0000E2F4 EE230000        	  6324: .long 0x000023EE
00:0000E2F8 4F230000        	  6325: .long 0x0000234F
00:0000E2FC B6220000        	  6326: .long 0x000022B6
00:0000E300 22220000        	  6327: .long 0x00002222
00:0000E304 92210000        	  6328: .long 0x00002192
00:0000E308 08210000        	  6329: .long 0x00002108
00:0000E30C 82200000        	  6330: .long 0x00002082
00:0000E310 FFFFFFFF        	  6331: .long 0xFFFFFFFF
00:0000E314 00000900        	  6332: .long 0x00090000
00:0000E318 00800400        	  6333: .long 0x00048000
00:0000E31C 00000300        	  6334: .long 0x00030000
00:0000E320 00400200        	  6335: .long 0x00024000
00:0000E324 CCCC0100        	  6336: .long 0x0001CCCC
00:0000E328 00800100        	  6337: .long 0x00018000
00:0000E32C 24490100        	  6338: .long 0x00014924
00:0000E330 00200100        	  6339: .long 0x00012000
00:0000E334 00000100        	  6340: .long 0x00010000
00:0000E338 66E60000        	  6341: .long 0x0000E666
00:0000E33C 74D10000        	  6342: .long 0x0000D174
00:0000E340 00C00000        	  6343: .long 0x0000C000
00:0000E344 3BB10000        	  6344: .long 0x0000B13B
00:0000E348 92A40000        	  6345: .long 0x0000A492
00:0000E34C 99990000        	  6346: .long 0x00009999
00:0000E350 00900000        	  6347: .long 0x00009000
00:0000E354 87870000        	  6348: .long 0x00008787
00:0000E358 00800000        	  6349: .long 0x00008000
00:0000E35C 43790000        	  6350: .long 0x00007943
00:0000E360 33730000        	  6351: .long 0x00007333
00:0000E364 B66D0000        	  6352: .long 0x00006DB6
00:0000E368 BA680000        	  6353: .long 0x000068BA
00:0000E36C 2C640000        	  6354: .long 0x0000642C
00:0000E370 00600000        	  6355: .long 0x00006000
00:0000E374 285C0000        	  6356: .long 0x00005C28
00:0000E378 9D580000        	  6357: .long 0x0000589D
00:0000E37C 55550000        	  6358: .long 0x00005555
00:0000E380 49520000        	  6359: .long 0x00005249
00:0000E384 724F0000        	  6360: .long 0x00004F72
00:0000E388 CC4C0000        	  6361: .long 0x00004CCC
00:0000E38C 524A0000        	  6362: .long 0x00004A52
00:0000E390 00480000        	  6363: .long 0x00004800
00:0000E394 D1450000        	  6364: .long 0x000045D1
00:0000E398 C3430000        	  6365: .long 0x000043C3
00:0000E39C D4410000        	  6366: .long 0x000041D4
00:0000E3A0 00400000        	  6367: .long 0x00004000
00:0000E3A4 453E0000        	  6368: .long 0x00003E45
00:0000E3A8 A13C0000        	  6369: .long 0x00003CA1
00:0000E3AC 133B0000        	  6370: .long 0x00003B13
00:0000E3B0 99390000        	  6371: .long 0x00003999
00:0000E3B4 31380000        	  6372: .long 0x00003831
00:0000E3B8 DB360000        	  6373: .long 0x000036DB
00:0000E3BC 94350000        	  6374: .long 0x00003594
00:0000E3C0 5D340000        	  6375: .long 0x0000345D
00:0000E3C4 33330000        	  6376: .long 0x00003333
00:0000E3C8 16320000        	  6377: .long 0x00003216
00:0000E3CC 05310000        	  6378: .long 0x00003105
00:0000E3D0 00300000        	  6379: .long 0x00003000
00:0000E3D4 052F0000        	  6380: .long 0x00002F05
00:0000E3D8 142E0000        	  6381: .long 0x00002E14
00:0000E3DC 2D2D0000        	  6382: .long 0x00002D2D
00:0000E3E0 4E2C0000        	  6383: .long 0x00002C4E
00:0000E3E4 782B0000        	  6384: .long 0x00002B78
00:0000E3E8 AA2A0000        	  6385: .long 0x00002AAA
00:0000E3EC E4290000        	  6386: .long 0x000029E4
00:0000E3F0 24290000        	  6387: .long 0x00002924
00:0000E3F4 6B280000        	  6388: .long 0x0000286B
00:0000E3F8 B9270000        	  6389: .long 0x000027B9
00:0000E3FC 0D270000        	  6390: .long 0x0000270D
00:0000E400 66260000        	  6391: .long 0x00002666
00:0000E404 C5250000        	  6392: .long 0x000025C5
00:0000E408 29250000        	  6393: .long 0x00002529
00:0000E40C 92240000        	  6394: .long 0x00002492
00:0000E410 FFFFFFFF        	  6395: .long 0xFFFFFFFF
00:0000E414 00000A00        	  6396: .long 0x000A0000
00:0000E418 00000500        	  6397: .long 0x00050000
00:0000E41C 55550300        	  6398: .long 0x00035555
00:0000E420 00800200        	  6399: .long 0x00028000
00:0000E424 00000200        	  6400: .long 0x00020000
00:0000E428 AAAA0100        	  6401: .long 0x0001AAAA
00:0000E42C B66D0100        	  6402: .long 0x00016DB6
00:0000E430 00400100        	  6403: .long 0x00014000
00:0000E434 711C0100        	  6404: .long 0x00011C71
00:0000E438 00000100        	  6405: .long 0x00010000
00:0000E43C BAE80000        	  6406: .long 0x0000E8BA
00:0000E440 55D50000        	  6407: .long 0x0000D555
00:0000E444 ECC40000        	  6408: .long 0x0000C4EC
00:0000E448 DBB60000        	  6409: .long 0x0000B6DB
00:0000E44C AAAA0000        	  6410: .long 0x0000AAAA
00:0000E450 00A00000        	  6411: .long 0x0000A000
00:0000E454 96960000        	  6412: .long 0x00009696
00:0000E458 388E0000        	  6413: .long 0x00008E38
00:0000E45C BC860000        	  6414: .long 0x000086BC
00:0000E460 00800000        	  6415: .long 0x00008000
00:0000E464 E7790000        	  6416: .long 0x000079E7
00:0000E468 5D740000        	  6417: .long 0x0000745D
00:0000E46C 4D6F0000        	  6418: .long 0x00006F4D
00:0000E470 AA6A0000        	  6419: .long 0x00006AAA
00:0000E474 66660000        	  6420: .long 0x00006666
00:0000E478 76620000        	  6421: .long 0x00006276
00:0000E47C D05E0000        	  6422: .long 0x00005ED0
00:0000E480 6D5B0000        	  6423: .long 0x00005B6D
00:0000E484 46580000        	  6424: .long 0x00005846
00:0000E488 55550000        	  6425: .long 0x00005555
00:0000E48C 94520000        	  6426: .long 0x00005294
00:0000E490 00500000        	  6427: .long 0x00005000
00:0000E494 934D0000        	  6428: .long 0x00004D93
00:0000E498 4B4B0000        	  6429: .long 0x00004B4B
00:0000E49C 24490000        	  6430: .long 0x00004924
00:0000E4A0 1C470000        	  6431: .long 0x0000471C
00:0000E4A4 30450000        	  6432: .long 0x00004530
00:0000E4A8 5E430000        	  6433: .long 0x0000435E
00:0000E4AC A4410000        	  6434: .long 0x000041A4
00:0000E4B0 00400000        	  6435: .long 0x00004000
00:0000E4B4 703E0000        	  6436: .long 0x00003E70
00:0000E4B8 F33C0000        	  6437: .long 0x00003CF3
00:0000E4BC 883B0000        	  6438: .long 0x00003B88
00:0000E4C0 2E3A0000        	  6439: .long 0x00003A2E
00:0000E4C4 E3380000        	  6440: .long 0x000038E3
00:0000E4C8 A6370000        	  6441: .long 0x000037A6
00:0000E4CC 77360000        	  6442: .long 0x00003677
00:0000E4D0 55350000        	  6443: .long 0x00003555
00:0000E4D4 3E340000        	  6444: .long 0x0000343E
00:0000E4D8 33330000        	  6445: .long 0x00003333
00:0000E4DC 32320000        	  6446: .long 0x00003232
00:0000E4E0 3B310000        	  6447: .long 0x0000313B
00:0000E4E4 4D300000        	  6448: .long 0x0000304D
00:0000E4E8 682F0000        	  6449: .long 0x00002F68
00:0000E4EC 8B2E0000        	  6450: .long 0x00002E8B
00:0000E4F0 B62D0000        	  6451: .long 0x00002DB6
00:0000E4F4 E92C0000        	  6452: .long 0x00002CE9
00:0000E4F8 232C0000        	  6453: .long 0x00002C23
00:0000E4FC 632B0000        	  6454: .long 0x00002B63
00:0000E500 AA2A0000        	  6455: .long 0x00002AAA
00:0000E504 F7290000        	  6456: .long 0x000029F7
00:0000E508 4A290000        	  6457: .long 0x0000294A
00:0000E50C A2280000        	  6458: .long 0x000028A2
00:0000E510 FFFFFFFF        	  6459: .long 0xFFFFFFFF
00:0000E514 00000B00        	  6460: .long 0x000B0000
00:0000E518 00800500        	  6461: .long 0x00058000
00:0000E51C AAAA0300        	  6462: .long 0x0003AAAA
00:0000E520 00C00200        	  6463: .long 0x0002C000
00:0000E524 33330200        	  6464: .long 0x00023333
00:0000E528 55D50100        	  6465: .long 0x0001D555
00:0000E52C 49920100        	  6466: .long 0x00019249
00:0000E530 00600100        	  6467: .long 0x00016000
00:0000E534 E3380100        	  6468: .long 0x000138E3
00:0000E538 99190100        	  6469: .long 0x00011999
00:0000E53C 00000100        	  6470: .long 0x00010000
00:0000E540 AAEA0000        	  6471: .long 0x0000EAAA
00:0000E544 9DD80000        	  6472: .long 0x0000D89D
00:0000E548 24C90000        	  6473: .long 0x0000C924
00:0000E54C BBBB0000        	  6474: .long 0x0000BBBB
00:0000E550 00B00000        	  6475: .long 0x0000B000
00:0000E554 A5A50000        	  6476: .long 0x0000A5A5
00:0000E558 719C0000        	  6477: .long 0x00009C71
00:0000E55C 35940000        	  6478: .long 0x00009435
00:0000E560 CC8C0000        	  6479: .long 0x00008CCC
00:0000E564 18860000        	  6480: .long 0x00008618
00:0000E568 00800000        	  6481: .long 0x00008000
00:0000E56C 6F7A0000        	  6482: .long 0x00007A6F
00:0000E570 55750000        	  6483: .long 0x00007555
00:0000E574 A3700000        	  6484: .long 0x000070A3
00:0000E578 4E6C0000        	  6485: .long 0x00006C4E
00:0000E57C 4B680000        	  6486: .long 0x0000684B
00:0000E580 92640000        	  6487: .long 0x00006492
00:0000E584 1A610000        	  6488: .long 0x0000611A
00:0000E588 DD5D0000        	  6489: .long 0x00005DDD
00:0000E58C D65A0000        	  6490: .long 0x00005AD6
00:0000E590 00580000        	  6491: .long 0x00005800
00:0000E594 55550000        	  6492: .long 0x00005555
00:0000E598 D2520000        	  6493: .long 0x000052D2
00:0000E59C 75500000        	  6494: .long 0x00005075
00:0000E5A0 384E0000        	  6495: .long 0x00004E38
00:0000E5A4 1B4C0000        	  6496: .long 0x00004C1B
00:0000E5A8 1A4A0000        	  6497: .long 0x00004A1A
00:0000E5AC 34480000        	  6498: .long 0x00004834
00:0000E5B0 66460000        	  6499: .long 0x00004666
00:0000E5B4 AE440000        	  6500: .long 0x000044AE
00:0000E5B8 0C430000        	  6501: .long 0x0000430C
00:0000E5BC 7D410000        	  6502: .long 0x0000417D
00:0000E5C0 00400000        	  6503: .long 0x00004000
00:0000E5C4 933E0000        	  6504: .long 0x00003E93
00:0000E5C8 373D0000        	  6505: .long 0x00003D37
00:0000E5CC EA3B0000        	  6506: .long 0x00003BEA
00:0000E5D0 AA3A0000        	  6507: .long 0x00003AAA
00:0000E5D4 78390000        	  6508: .long 0x00003978
00:0000E5D8 51380000        	  6509: .long 0x00003851
00:0000E5DC 37370000        	  6510: .long 0x00003737
00:0000E5E0 27360000        	  6511: .long 0x00003627
00:0000E5E4 21350000        	  6512: .long 0x00003521
00:0000E5E8 25340000        	  6513: .long 0x00003425
00:0000E5EC 33330000        	  6514: .long 0x00003333
00:0000E5F0 49320000        	  6515: .long 0x00003249
00:0000E5F4 67310000        	  6516: .long 0x00003167
00:0000E5F8 8D300000        	  6517: .long 0x0000308D
00:0000E5FC BA2F0000        	  6518: .long 0x00002FBA
00:0000E600 EE2E0000        	  6519: .long 0x00002EEE
00:0000E604 292E0000        	  6520: .long 0x00002E29
00:0000E608 6B2D0000        	  6521: .long 0x00002D6B
00:0000E60C B22C0000        	  6522: .long 0x00002CB2
00:0000E610 FFFFFFFF        	  6523: .long 0xFFFFFFFF
00:0000E614 00000C00        	  6524: .long 0x000C0000
00:0000E618 00000600        	  6525: .long 0x00060000
00:0000E61C 00000400        	  6526: .long 0x00040000
00:0000E620 00000300        	  6527: .long 0x00030000
00:0000E624 66660200        	  6528: .long 0x00026666
00:0000E628 00000200        	  6529: .long 0x00020000
00:0000E62C DBB60100        	  6530: .long 0x0001B6DB
00:0000E630 00800100        	  6531: .long 0x00018000
00:0000E634 55550100        	  6532: .long 0x00015555
00:0000E638 33330100        	  6533: .long 0x00013333
00:0000E63C 45170100        	  6534: .long 0x00011745
00:0000E640 00000100        	  6535: .long 0x00010000
00:0000E644 4EEC0000        	  6536: .long 0x0000EC4E
00:0000E648 6DDB0000        	  6537: .long 0x0000DB6D
00:0000E64C CCCC0000        	  6538: .long 0x0000CCCC
00:0000E650 00C00000        	  6539: .long 0x0000C000
00:0000E654 B4B40000        	  6540: .long 0x0000B4B4
00:0000E658 AAAA0000        	  6541: .long 0x0000AAAA
00:0000E65C AFA10000        	  6542: .long 0x0000A1AF
00:0000E660 99990000        	  6543: .long 0x00009999
00:0000E664 49920000        	  6544: .long 0x00009249
00:0000E668 A28B0000        	  6545: .long 0x00008BA2
00:0000E66C 90850000        	  6546: .long 0x00008590
00:0000E670 00800000        	  6547: .long 0x00008000
00:0000E674 E17A0000        	  6548: .long 0x00007AE1
00:0000E678 27760000        	  6549: .long 0x00007627
00:0000E67C C7710000        	  6550: .long 0x000071C7
00:0000E680 B66D0000        	  6551: .long 0x00006DB6
00:0000E684 EE690000        	  6552: .long 0x000069EE
00:0000E688 66660000        	  6553: .long 0x00006666
00:0000E68C 18630000        	  6554: .long 0x00006318
00:0000E690 00600000        	  6555: .long 0x00006000
00:0000E694 175D0000        	  6556: .long 0x00005D17
00:0000E698 5A5A0000        	  6557: .long 0x00005A5A
00:0000E69C C5570000        	  6558: .long 0x000057C5
00:0000E6A0 55550000        	  6559: .long 0x00005555
00:0000E6A4 06530000        	  6560: .long 0x00005306
00:0000E6A8 D7500000        	  6561: .long 0x000050D7
00:0000E6AC C44E0000        	  6562: .long 0x00004EC4
00:0000E6B0 CC4C0000        	  6563: .long 0x00004CCC
00:0000E6B4 ED4A0000        	  6564: .long 0x00004AED
00:0000E6B8 24490000        	  6565: .long 0x00004924
00:0000E6BC 71470000        	  6566: .long 0x00004771
00:0000E6C0 D1450000        	  6567: .long 0x000045D1
00:0000E6C4 44440000        	  6568: .long 0x00004444
00:0000E6C8 C8420000        	  6569: .long 0x000042C8
00:0000E6CC 5C410000        	  6570: .long 0x0000415C
00:0000E6D0 00400000        	  6571: .long 0x00004000
00:0000E6D4 B13E0000        	  6572: .long 0x00003EB1
00:0000E6D8 703D0000        	  6573: .long 0x00003D70
00:0000E6DC 3C3C0000        	  6574: .long 0x00003C3C
00:0000E6E0 133B0000        	  6575: .long 0x00003B13
00:0000E6E4 F6390000        	  6576: .long 0x000039F6
00:0000E6E8 E3380000        	  6577: .long 0x000038E3
00:0000E6EC DA370000        	  6578: .long 0x000037DA
00:0000E6F0 DB360000        	  6579: .long 0x000036DB
00:0000E6F4 E5350000        	  6580: .long 0x000035E5
00:0000E6F8 F7340000        	  6581: .long 0x000034F7
00:0000E6FC 11340000        	  6582: .long 0x00003411
00:0000E700 33330000        	  6583: .long 0x00003333
00:0000E704 5C320000        	  6584: .long 0x0000325C
00:0000E708 8C310000        	  6585: .long 0x0000318C
00:0000E70C C3300000        	  6586: .long 0x000030C3
00:0000E710 FFFFFFFF        	  6587: .long 0xFFFFFFFF
00:0000E714 00000D00        	  6588: .long 0x000D0000
00:0000E718 00800600        	  6589: .long 0x00068000
00:0000E71C 55550400        	  6590: .long 0x00045555
00:0000E720 00400300        	  6591: .long 0x00034000
00:0000E724 99990200        	  6592: .long 0x00029999
00:0000E728 AA2A0200        	  6593: .long 0x00022AAA
00:0000E72C 6DDB0100        	  6594: .long 0x0001DB6D
00:0000E730 00A00100        	  6595: .long 0x0001A000
00:0000E734 C7710100        	  6596: .long 0x000171C7
00:0000E738 CC4C0100        	  6597: .long 0x00014CCC
00:0000E73C 8B2E0100        	  6598: .long 0x00012E8B
00:0000E740 55150100        	  6599: .long 0x00011555
00:0000E744 00000100        	  6600: .long 0x00010000
00:0000E748 B6ED0000        	  6601: .long 0x0000EDB6
00:0000E74C DDDD0000        	  6602: .long 0x0000DDDD
00:0000E750 00D00000        	  6603: .long 0x0000D000
00:0000E754 C3C30000        	  6604: .long 0x0000C3C3
00:0000E758 E3B80000        	  6605: .long 0x0000B8E3
00:0000E75C 28AF0000        	  6606: .long 0x0000AF28
00:0000E760 66A60000        	  6607: .long 0x0000A666
00:0000E764 799E0000        	  6608: .long 0x00009E79
00:0000E768 45970000        	  6609: .long 0x00009745
00:0000E76C B2900000        	  6610: .long 0x000090B2
00:0000E770 AA8A0000        	  6611: .long 0x00008AAA
00:0000E774 1E850000        	  6612: .long 0x0000851E
00:0000E778 00800000        	  6613: .long 0x00008000
00:0000E77C 427B0000        	  6614: .long 0x00007B42
00:0000E780 DB760000        	  6615: .long 0x000076DB
00:0000E784 C2720000        	  6616: .long 0x000072C2
00:0000E788 EE6E0000        	  6617: .long 0x00006EEE
00:0000E78C 5A6B0000        	  6618: .long 0x00006B5A
00:0000E790 00680000        	  6619: .long 0x00006800
00:0000E794 D9640000        	  6620: .long 0x000064D9
00:0000E798 E1610000        	  6621: .long 0x000061E1
00:0000E79C 155F0000        	  6622: .long 0x00005F15
00:0000E7A0 715C0000        	  6623: .long 0x00005C71
00:0000E7A4 F2590000        	  6624: .long 0x000059F2
00:0000E7A8 94570000        	  6625: .long 0x00005794
00:0000E7AC 55550000        	  6626: .long 0x00005555
00:0000E7B0 33530000        	  6627: .long 0x00005333
00:0000E7B4 2B510000        	  6628: .long 0x0000512B
00:0000E7B8 3C4F0000        	  6629: .long 0x00004F3C
00:0000E7BC 654D0000        	  6630: .long 0x00004D65
00:0000E7C0 A24B0000        	  6631: .long 0x00004BA2
00:0000E7C4 F4490000        	  6632: .long 0x000049F4
00:0000E7C8 59480000        	  6633: .long 0x00004859
00:0000E7CC CE460000        	  6634: .long 0x000046CE
00:0000E7D0 55450000        	  6635: .long 0x00004555
00:0000E7D4 EB430000        	  6636: .long 0x000043EB
00:0000E7D8 8F420000        	  6637: .long 0x0000428F
00:0000E7DC 41410000        	  6638: .long 0x00004141
00:0000E7E0 00400000        	  6639: .long 0x00004000
00:0000E7E4 CA3E0000        	  6640: .long 0x00003ECA
00:0000E7E8 A13D0000        	  6641: .long 0x00003DA1
00:0000E7EC 823C0000        	  6642: .long 0x00003C82
00:0000E7F0 6D3B0000        	  6643: .long 0x00003B6D
00:0000E7F4 623A0000        	  6644: .long 0x00003A62
00:0000E7F8 61390000        	  6645: .long 0x00003961
00:0000E7FC 68380000        	  6646: .long 0x00003868
00:0000E800 77370000        	  6647: .long 0x00003777
00:0000E804 8E360000        	  6648: .long 0x0000368E
00:0000E808 AD350000        	  6649: .long 0x000035AD
00:0000E80C D3340000        	  6650: .long 0x000034D3
00:0000E810 FFFFFFFF        	  6651: .long 0xFFFFFFFF
00:0000E814 00000E00        	  6652: .long 0x000E0000
00:0000E818 00000700        	  6653: .long 0x00070000
00:0000E81C AAAA0400        	  6654: .long 0x0004AAAA
00:0000E820 00800300        	  6655: .long 0x00038000
00:0000E824 CCCC0200        	  6656: .long 0x0002CCCC
00:0000E828 55550200        	  6657: .long 0x00025555
00:0000E82C 00000200        	  6658: .long 0x00020000
00:0000E830 00C00100        	  6659: .long 0x0001C000
00:0000E834 388E0100        	  6660: .long 0x00018E38
00:0000E838 66660100        	  6661: .long 0x00016666
00:0000E83C D1450100        	  6662: .long 0x000145D1
00:0000E840 AA2A0100        	  6663: .long 0x00012AAA
00:0000E844 B1130100        	  6664: .long 0x000113B1
00:0000E848 00000100        	  6665: .long 0x00010000
00:0000E84C EEEE0000        	  6666: .long 0x0000EEEE
00:0000E850 00E00000        	  6667: .long 0x0000E000
00:0000E854 D2D20000        	  6668: .long 0x0000D2D2
00:0000E858 1CC70000        	  6669: .long 0x0000C71C
00:0000E85C A1BC0000        	  6670: .long 0x0000BCA1
00:0000E860 33B30000        	  6671: .long 0x0000B333
00:0000E864 AAAA0000        	  6672: .long 0x0000AAAA
00:0000E868 E8A20000        	  6673: .long 0x0000A2E8
00:0000E86C D39B0000        	  6674: .long 0x00009BD3
00:0000E870 55950000        	  6675: .long 0x00009555
00:0000E874 5C8F0000        	  6676: .long 0x00008F5C
00:0000E878 D8890000        	  6677: .long 0x000089D8
00:0000E87C BD840000        	  6678: .long 0x000084BD
00:0000E880 00800000        	  6679: .long 0x00008000
00:0000E884 967B0000        	  6680: .long 0x00007B96
00:0000E888 77770000        	  6681: .long 0x00007777
00:0000E88C 9C730000        	  6682: .long 0x0000739C
00:0000E890 00700000        	  6683: .long 0x00007000
00:0000E894 9B6C0000        	  6684: .long 0x00006C9B
00:0000E898 69690000        	  6685: .long 0x00006969
00:0000E89C 66660000        	  6686: .long 0x00006666
00:0000E8A0 8E630000        	  6687: .long 0x0000638E
00:0000E8A4 DD600000        	  6688: .long 0x000060DD
00:0000E8A8 505E0000        	  6689: .long 0x00005E50
00:0000E8AC E55B0000        	  6690: .long 0x00005BE5
00:0000E8B0 99590000        	  6691: .long 0x00005999
00:0000E8B4 6A570000        	  6692: .long 0x0000576A
00:0000E8B8 55550000        	  6693: .long 0x00005555
00:0000E8BC 59530000        	  6694: .long 0x00005359
00:0000E8C0 74510000        	  6695: .long 0x00005174
00:0000E8C4 A44F0000        	  6696: .long 0x00004FA4
00:0000E8C8 E94D0000        	  6697: .long 0x00004DE9
00:0000E8CC 414C0000        	  6698: .long 0x00004C41
00:0000E8D0 AA4A0000        	  6699: .long 0x00004AAA
00:0000E8D4 24490000        	  6700: .long 0x00004924
00:0000E8D8 AE470000        	  6701: .long 0x000047AE
00:0000E8DC 46460000        	  6702: .long 0x00004646
00:0000E8E0 EC440000        	  6703: .long 0x000044EC
00:0000E8E4 9F430000        	  6704: .long 0x0000439F
00:0000E8E8 5E420000        	  6705: .long 0x0000425E
00:0000E8EC 29410000        	  6706: .long 0x00004129
00:0000E8F0 00400000        	  6707: .long 0x00004000
00:0000E8F4 E03E0000        	  6708: .long 0x00003EE0
00:0000E8F8 CB3D0000        	  6709: .long 0x00003DCB
00:0000E8FC BE3C0000        	  6710: .long 0x00003CBE
00:0000E900 BB3B0000        	  6711: .long 0x00003BBB
00:0000E904 C13A0000        	  6712: .long 0x00003AC1
00:0000E908 CE390000        	  6713: .long 0x000039CE
00:0000E90C E3380000        	  6714: .long 0x000038E3
00:0000E910 FFFFFFFF        	  6715: .long 0xFFFFFFFF
00:0000E914 00000F00        	  6716: .long 0x000F0000
00:0000E918 00800700        	  6717: .long 0x00078000
00:0000E91C 00000500        	  6718: .long 0x00050000
00:0000E920 00C00300        	  6719: .long 0x0003C000
00:0000E924 00000300        	  6720: .long 0x00030000
00:0000E928 00800200        	  6721: .long 0x00028000
00:0000E92C 92240200        	  6722: .long 0x00022492
00:0000E930 00E00100        	  6723: .long 0x0001E000
00:0000E934 AAAA0100        	  6724: .long 0x0001AAAA
00:0000E938 00800100        	  6725: .long 0x00018000
00:0000E93C 175D0100        	  6726: .long 0x00015D17
00:0000E940 00400100        	  6727: .long 0x00014000
00:0000E944 62270100        	  6728: .long 0x00012762
00:0000E948 49120100        	  6729: .long 0x00011249
00:0000E94C 00000100        	  6730: .long 0x00010000
00:0000E950 00F00000        	  6731: .long 0x0000F000
00:0000E954 E1E10000        	  6732: .long 0x0000E1E1
00:0000E958 55D50000        	  6733: .long 0x0000D555
00:0000E95C 1ACA0000        	  6734: .long 0x0000CA1A
00:0000E960 00C00000        	  6735: .long 0x0000C000
00:0000E964 DBB60000        	  6736: .long 0x0000B6DB
00:0000E968 8BAE0000        	  6737: .long 0x0000AE8B
00:0000E96C F4A60000        	  6738: .long 0x0000A6F4
00:0000E970 00A00000        	  6739: .long 0x0000A000
00:0000E974 99990000        	  6740: .long 0x00009999
00:0000E978 B1930000        	  6741: .long 0x000093B1
00:0000E97C 388E0000        	  6742: .long 0x00008E38
00:0000E980 24890000        	  6743: .long 0x00008924
00:0000E984 69840000        	  6744: .long 0x00008469
00:0000E988 00800000        	  6745: .long 0x00008000
00:0000E98C DE7B0000        	  6746: .long 0x00007BDE
00:0000E990 00780000        	  6747: .long 0x00007800
00:0000E994 5D740000        	  6748: .long 0x0000745D
00:0000E998 F0700000        	  6749: .long 0x000070F0
00:0000E99C B66D0000        	  6750: .long 0x00006DB6
00:0000E9A0 AA6A0000        	  6751: .long 0x00006AAA
00:0000E9A4 C8670000        	  6752: .long 0x000067C8
00:0000E9A8 0D650000        	  6753: .long 0x0000650D
00:0000E9AC 76620000        	  6754: .long 0x00006276
00:0000E9B0 00600000        	  6755: .long 0x00006000
00:0000E9B4 A85D0000        	  6756: .long 0x00005DA8
00:0000E9B8 6D5B0000        	  6757: .long 0x00005B6D
00:0000E9BC 4D590000        	  6758: .long 0x0000594D
00:0000E9C0 45570000        	  6759: .long 0x00005745
00:0000E9C4 55550000        	  6760: .long 0x00005555
00:0000E9C8 7A530000        	  6761: .long 0x0000537A
00:0000E9CC B3510000        	  6762: .long 0x000051B3
00:0000E9D0 00500000        	  6763: .long 0x00005000
00:0000E9D4 5E4E0000        	  6764: .long 0x00004E5E
00:0000E9D8 CC4C0000        	  6765: .long 0x00004CCC
00:0000E9DC 4B4B0000        	  6766: .long 0x00004B4B
00:0000E9E0 D8490000        	  6767: .long 0x000049D8
00:0000E9E4 73480000        	  6768: .long 0x00004873
00:0000E9E8 1C470000        	  6769: .long 0x0000471C
00:0000E9EC D1450000        	  6770: .long 0x000045D1
00:0000E9F0 92440000        	  6771: .long 0x00004492
00:0000E9F4 5E430000        	  6772: .long 0x0000435E
00:0000E9F8 34420000        	  6773: .long 0x00004234
00:0000E9FC 15410000        	  6774: .long 0x00004115
00:0000EA00 00400000        	  6775: .long 0x00004000
00:0000EA04 F33E0000        	  6776: .long 0x00003EF3
00:0000EA08 EF3D0000        	  6777: .long 0x00003DEF
00:0000EA0C F33C0000        	  6778: .long 0x00003CF3
00:0000EA10 FFFFFFFF        	  6779: .long 0xFFFFFFFF
00:0000EA14 00001000        	  6780: .long 0x00100000
00:0000EA18 00000800        	  6781: .long 0x00080000
00:0000EA1C 55550500        	  6782: .long 0x00055555
00:0000EA20 00000400        	  6783: .long 0x00040000
00:0000EA24 33330300        	  6784: .long 0x00033333
00:0000EA28 AAAA0200        	  6785: .long 0x0002AAAA
00:0000EA2C 24490200        	  6786: .long 0x00024924
00:0000EA30 00000200        	  6787: .long 0x00020000
00:0000EA34 1CC70100        	  6788: .long 0x0001C71C
00:0000EA38 99990100        	  6789: .long 0x00019999
00:0000EA3C 5D740100        	  6790: .long 0x0001745D
00:0000EA40 55550100        	  6791: .long 0x00015555
00:0000EA44 133B0100        	  6792: .long 0x00013B13
00:0000EA48 92240100        	  6793: .long 0x00012492
00:0000EA4C 11110100        	  6794: .long 0x00011111
00:0000EA50 00000100        	  6795: .long 0x00010000
00:0000EA54 F0F00000        	  6796: .long 0x0000F0F0
00:0000EA58 8EE30000        	  6797: .long 0x0000E38E
00:0000EA5C 94D70000        	  6798: .long 0x0000D794
00:0000EA60 CCCC0000        	  6799: .long 0x0000CCCC
00:0000EA64 0CC30000        	  6800: .long 0x0000C30C
00:0000EA68 2EBA0000        	  6801: .long 0x0000BA2E
00:0000EA6C 16B20000        	  6802: .long 0x0000B216
00:0000EA70 AAAA0000        	  6803: .long 0x0000AAAA
00:0000EA74 D7A30000        	  6804: .long 0x0000A3D7
00:0000EA78 899D0000        	  6805: .long 0x00009D89
00:0000EA7C B4970000        	  6806: .long 0x000097B4
00:0000EA80 49920000        	  6807: .long 0x00009249
00:0000EA84 3D8D0000        	  6808: .long 0x00008D3D
00:0000EA88 88880000        	  6809: .long 0x00008888
00:0000EA8C 21840000        	  6810: .long 0x00008421
00:0000EA90 00800000        	  6811: .long 0x00008000
00:0000EA94 1F7C0000        	  6812: .long 0x00007C1F
00:0000EA98 78780000        	  6813: .long 0x00007878
00:0000EA9C 07750000        	  6814: .long 0x00007507
00:0000EAA0 C7710000        	  6815: .long 0x000071C7
00:0000EAA4 B36E0000        	  6816: .long 0x00006EB3
00:0000EAA8 CA6B0000        	  6817: .long 0x00006BCA
00:0000EAAC 06690000        	  6818: .long 0x00006906
00:0000EAB0 66660000        	  6819: .long 0x00006666
00:0000EAB4 E7630000        	  6820: .long 0x000063E7
00:0000EAB8 86610000        	  6821: .long 0x00006186
00:0000EABC 415F0000        	  6822: .long 0x00005F41
00:0000EAC0 175D0000        	  6823: .long 0x00005D17
00:0000EAC4 055B0000        	  6824: .long 0x00005B05
00:0000EAC8 0B590000        	  6825: .long 0x0000590B
00:0000EACC 26570000        	  6826: .long 0x00005726
00:0000EAD0 55550000        	  6827: .long 0x00005555
00:0000EAD4 97530000        	  6828: .long 0x00005397
00:0000EAD8 EB510000        	  6829: .long 0x000051EB
00:0000EADC 50500000        	  6830: .long 0x00005050
00:0000EAE0 C44E0000        	  6831: .long 0x00004EC4
00:0000EAE4 484D0000        	  6832: .long 0x00004D48
00:0000EAE8 DA4B0000        	  6833: .long 0x00004BDA
00:0000EAEC 794A0000        	  6834: .long 0x00004A79
00:0000EAF0 24490000        	  6835: .long 0x00004924
00:0000EAF4 DC470000        	  6836: .long 0x000047DC
00:0000EAF8 9E460000        	  6837: .long 0x0000469E
00:0000EAFC 6C450000        	  6838: .long 0x0000456C
00:0000EB00 44440000        	  6839: .long 0x00004444
00:0000EB04 25430000        	  6840: .long 0x00004325
00:0000EB08 10420000        	  6841: .long 0x00004210
00:0000EB0C 04410000        	  6842: .long 0x00004104
00:0000EB10 FFFFFFFF        	  6843: .long 0xFFFFFFFF
00:0000EB14 00001100        	  6844: .long 0x00110000
00:0000EB18 00800800        	  6845: .long 0x00088000
00:0000EB1C AAAA0500        	  6846: .long 0x0005AAAA
00:0000EB20 00400400        	  6847: .long 0x00044000
00:0000EB24 66660300        	  6848: .long 0x00036666
00:0000EB28 55D50200        	  6849: .long 0x0002D555
00:0000EB2C B66D0200        	  6850: .long 0x00026DB6
00:0000EB30 00200200        	  6851: .long 0x00022000
00:0000EB34 8EE30100        	  6852: .long 0x0001E38E
00:0000EB38 33B30100        	  6853: .long 0x0001B333
00:0000EB3C A28B0100        	  6854: .long 0x00018BA2
00:0000EB40 AA6A0100        	  6855: .long 0x00016AAA
00:0000EB44 C44E0100        	  6856: .long 0x00014EC4
00:0000EB48 DB360100        	  6857: .long 0x000136DB
00:0000EB4C 22220100        	  6858: .long 0x00012222
00:0000EB50 00100100        	  6859: .long 0x00011000
00:0000EB54 00000100        	  6860: .long 0x00010000
00:0000EB58 C7F10000        	  6861: .long 0x0000F1C7
00:0000EB5C 0DE50000        	  6862: .long 0x0000E50D
00:0000EB60 99D90000        	  6863: .long 0x0000D999
00:0000EB64 3CCF0000        	  6864: .long 0x0000CF3C
00:0000EB68 D1C50000        	  6865: .long 0x0000C5D1
00:0000EB6C 37BD0000        	  6866: .long 0x0000BD37
00:0000EB70 55B50000        	  6867: .long 0x0000B555
00:0000EB74 14AE0000        	  6868: .long 0x0000AE14
00:0000EB78 62A70000        	  6869: .long 0x0000A762
00:0000EB7C 2FA10000        	  6870: .long 0x0000A12F
00:0000EB80 6D9B0000        	  6871: .long 0x00009B6D
00:0000EB84 11960000        	  6872: .long 0x00009611
00:0000EB88 11910000        	  6873: .long 0x00009111
00:0000EB8C 638C0000        	  6874: .long 0x00008C63
00:0000EB90 00880000        	  6875: .long 0x00008800
00:0000EB94 E0830000        	  6876: .long 0x000083E0
00:0000EB98 00800000        	  6877: .long 0x00008000
00:0000EB9C 577C0000        	  6878: .long 0x00007C57
00:0000EBA0 E3780000        	  6879: .long 0x000078E3
00:0000EBA4 9F750000        	  6880: .long 0x0000759F
00:0000EBA8 86720000        	  6881: .long 0x00007286
00:0000EBAC 966F0000        	  6882: .long 0x00006F96
00:0000EBB0 CC6C0000        	  6883: .long 0x00006CCC
00:0000EBB4 256A0000        	  6884: .long 0x00006A25
00:0000EBB8 9E670000        	  6885: .long 0x0000679E
00:0000EBBC 35650000        	  6886: .long 0x00006535
00:0000EBC0 E8620000        	  6887: .long 0x000062E8
00:0000EBC4 B6600000        	  6888: .long 0x000060B6
00:0000EBC8 9B5E0000        	  6889: .long 0x00005E9B
00:0000EBCC 985C0000        	  6890: .long 0x00005C98
00:0000EBD0 AA5A0000        	  6891: .long 0x00005AAA
00:0000EBD4 D0580000        	  6892: .long 0x000058D0
00:0000EBD8 0A570000        	  6893: .long 0x0000570A
00:0000EBDC 55550000        	  6894: .long 0x00005555
00:0000EBE0 B1530000        	  6895: .long 0x000053B1
00:0000EBE4 1C520000        	  6896: .long 0x0000521C
00:0000EBE8 97500000        	  6897: .long 0x00005097
00:0000EBEC 204F0000        	  6898: .long 0x00004F20
00:0000EBF0 B64D0000        	  6899: .long 0x00004DB6
00:0000EBF4 594C0000        	  6900: .long 0x00004C59
00:0000EBF8 084B0000        	  6901: .long 0x00004B08
00:0000EBFC C3490000        	  6902: .long 0x000049C3
00:0000EC00 88480000        	  6903: .long 0x00004888
00:0000EC04 58470000        	  6904: .long 0x00004758
00:0000EC08 31460000        	  6905: .long 0x00004631
00:0000EC0C 14450000        	  6906: .long 0x00004514
00:0000EC10 FFFFFFFF        	  6907: .long 0xFFFFFFFF
00:0000EC14 00001200        	  6908: .long 0x00120000
00:0000EC18 00000900        	  6909: .long 0x00090000
00:0000EC1C 00000600        	  6910: .long 0x00060000
00:0000EC20 00800400        	  6911: .long 0x00048000
00:0000EC24 99990300        	  6912: .long 0x00039999
00:0000EC28 00000300        	  6913: .long 0x00030000
00:0000EC2C 49920200        	  6914: .long 0x00029249
00:0000EC30 00400200        	  6915: .long 0x00024000
00:0000EC34 00000200        	  6916: .long 0x00020000
00:0000EC38 CCCC0100        	  6917: .long 0x0001CCCC
00:0000EC3C E8A20100        	  6918: .long 0x0001A2E8
00:0000EC40 00800100        	  6919: .long 0x00018000
00:0000EC44 76620100        	  6920: .long 0x00016276
00:0000EC48 24490100        	  6921: .long 0x00014924
00:0000EC4C 33330100        	  6922: .long 0x00013333
00:0000EC50 00200100        	  6923: .long 0x00012000
00:0000EC54 0F0F0100        	  6924: .long 0x00010F0F
00:0000EC58 00000100        	  6925: .long 0x00010000
00:0000EC5C 86F20000        	  6926: .long 0x0000F286
00:0000EC60 66E60000        	  6927: .long 0x0000E666
00:0000EC64 6DDB0000        	  6928: .long 0x0000DB6D
00:0000EC68 74D10000        	  6929: .long 0x0000D174
00:0000EC6C 59C80000        	  6930: .long 0x0000C859
00:0000EC70 00C00000        	  6931: .long 0x0000C000
00:0000EC74 51B80000        	  6932: .long 0x0000B851
00:0000EC78 3BB10000        	  6933: .long 0x0000B13B
00:0000EC7C AAAA0000        	  6934: .long 0x0000AAAA
00:0000EC80 92A40000        	  6935: .long 0x0000A492
00:0000EC84 E59E0000        	  6936: .long 0x00009EE5
00:0000EC88 99990000        	  6937: .long 0x00009999
00:0000EC8C A5940000        	  6938: .long 0x000094A5
00:0000EC90 00900000        	  6939: .long 0x00009000
00:0000EC94 A28B0000        	  6940: .long 0x00008BA2
00:0000EC98 87870000        	  6941: .long 0x00008787
00:0000EC9C A8830000        	  6942: .long 0x000083A8
00:0000ECA0 00800000        	  6943: .long 0x00008000
00:0000ECA4 8A7C0000        	  6944: .long 0x00007C8A
00:0000ECA8 43790000        	  6945: .long 0x00007943
00:0000ECAC 27760000        	  6946: .long 0x00007627
00:0000ECB0 33730000        	  6947: .long 0x00007333
00:0000ECB4 63700000        	  6948: .long 0x00007063
00:0000ECB8 B66D0000        	  6949: .long 0x00006DB6
00:0000ECBC 296B0000        	  6950: .long 0x00006B29
00:0000ECC0 BA680000        	  6951: .long 0x000068BA
00:0000ECC4 66660000        	  6952: .long 0x00006666
00:0000ECC8 2C640000        	  6953: .long 0x0000642C
00:0000ECCC 0A620000        	  6954: .long 0x0000620A
00:0000ECD0 00600000        	  6955: .long 0x00006000
00:0000ECD4 0A5E0000        	  6956: .long 0x00005E0A
00:0000ECD8 285C0000        	  6957: .long 0x00005C28
00:0000ECDC 5A5A0000        	  6958: .long 0x00005A5A
00:0000ECE0 9D580000        	  6959: .long 0x0000589D
00:0000ECE4 F1560000        	  6960: .long 0x000056F1
00:0000ECE8 55550000        	  6961: .long 0x00005555
00:0000ECEC C8530000        	  6962: .long 0x000053C8
00:0000ECF0 49520000        	  6963: .long 0x00005249
00:0000ECF4 D7500000        	  6964: .long 0x000050D7
00:0000ECF8 724F0000        	  6965: .long 0x00004F72
00:0000ECFC 1A4E0000        	  6966: .long 0x00004E1A
00:0000ED00 CC4C0000        	  6967: .long 0x00004CCC
00:0000ED04 8A4B0000        	  6968: .long 0x00004B8A
00:0000ED08 524A0000        	  6969: .long 0x00004A52
00:0000ED0C 24490000        	  6970: .long 0x00004924
00:0000ED10 FFFFFFFF        	  6971: .long 0xFFFFFFFF
00:0000ED14 00001300        	  6972: .long 0x00130000
00:0000ED18 00800900        	  6973: .long 0x00098000
00:0000ED1C 55550600        	  6974: .long 0x00065555
00:0000ED20 00C00400        	  6975: .long 0x0004C000
00:0000ED24 CCCC0300        	  6976: .long 0x0003CCCC
00:0000ED28 AA2A0300        	  6977: .long 0x00032AAA
00:0000ED2C DBB60200        	  6978: .long 0x0002B6DB
00:0000ED30 00600200        	  6979: .long 0x00026000
00:0000ED34 711C0200        	  6980: .long 0x00021C71
00:0000ED38 66E60100        	  6981: .long 0x0001E666
00:0000ED3C 2EBA0100        	  6982: .long 0x0001BA2E
00:0000ED40 55950100        	  6983: .long 0x00019555
00:0000ED44 27760100        	  6984: .long 0x00017627
00:0000ED48 6D5B0100        	  6985: .long 0x00015B6D
00:0000ED4C 44440100        	  6986: .long 0x00014444
00:0000ED50 00300100        	  6987: .long 0x00013000
00:0000ED54 1E1E0100        	  6988: .long 0x00011E1E
00:0000ED58 380E0100        	  6989: .long 0x00010E38
00:0000ED5C 00000100        	  6990: .long 0x00010000
00:0000ED60 33F30000        	  6991: .long 0x0000F333
00:0000ED64 9EE70000        	  6992: .long 0x0000E79E
00:0000ED68 17DD0000        	  6993: .long 0x0000DD17
00:0000ED6C 7AD30000        	  6994: .long 0x0000D37A
00:0000ED70 AACA0000        	  6995: .long 0x0000CAAA
00:0000ED74 8FC20000        	  6996: .long 0x0000C28F
00:0000ED78 13BB0000        	  6997: .long 0x0000BB13
00:0000ED7C 25B40000        	  6998: .long 0x0000B425
00:0000ED80 B6AD0000        	  6999: .long 0x0000ADB6
00:0000ED84 B9A70000        	  7000: .long 0x0000A7B9
00:0000ED88 22A20000        	  7001: .long 0x0000A222
00:0000ED8C E79C0000        	  7002: .long 0x00009CE7
00:0000ED90 00980000        	  7003: .long 0x00009800
00:0000ED94 64930000        	  7004: .long 0x00009364
00:0000ED98 0F8F0000        	  7005: .long 0x00008F0F
00:0000ED9C F88A0000        	  7006: .long 0x00008AF8
00:0000EDA0 1C870000        	  7007: .long 0x0000871C
00:0000EDA4 75830000        	  7008: .long 0x00008375
00:0000EDA8 00800000        	  7009: .long 0x00008000
00:0000EDAC B77C0000        	  7010: .long 0x00007CB7
00:0000EDB0 99790000        	  7011: .long 0x00007999
00:0000EDB4 A2760000        	  7012: .long 0x000076A2
00:0000EDB8 CF730000        	  7013: .long 0x000073CF
00:0000EDBC 1D710000        	  7014: .long 0x0000711D
00:0000EDC0 8B6E0000        	  7015: .long 0x00006E8B
00:0000EDC4 166C0000        	  7016: .long 0x00006C16
00:0000EDC8 BD690000        	  7017: .long 0x000069BD
00:0000EDCC 7D670000        	  7018: .long 0x0000677D
00:0000EDD0 55650000        	  7019: .long 0x00006555
00:0000EDD4 43630000        	  7020: .long 0x00006343
00:0000EDD8 47610000        	  7021: .long 0x00006147
00:0000EDDC 5F5F0000        	  7022: .long 0x00005F5F
00:0000EDE0 895D0000        	  7023: .long 0x00005D89
00:0000EDE4 C65B0000        	  7024: .long 0x00005BC6
00:0000EDE8 125A0000        	  7025: .long 0x00005A12
00:0000EDEC 6F580000        	  7026: .long 0x0000586F
00:0000EDF0 DB560000        	  7027: .long 0x000056DB
00:0000EDF4 55550000        	  7028: .long 0x00005555
00:0000EDF8 DC530000        	  7029: .long 0x000053DC
00:0000EDFC 70520000        	  7030: .long 0x00005270
00:0000EE00 11510000        	  7031: .long 0x00005111
00:0000EE04 BC4F0000        	  7032: .long 0x00004FBC
00:0000EE08 734E0000        	  7033: .long 0x00004E73
00:0000EE0C 344D0000        	  7034: .long 0x00004D34
00:0000EE10 FFFFFFFF        	  7035: .long 0xFFFFFFFF
00:0000EE14 00001400        	  7036: .long 0x00140000
00:0000EE18 00000A00        	  7037: .long 0x000A0000
00:0000EE1C AAAA0600        	  7038: .long 0x0006AAAA
00:0000EE20 00000500        	  7039: .long 0x00050000
00:0000EE24 00000400        	  7040: .long 0x00040000
00:0000EE28 55550300        	  7041: .long 0x00035555
00:0000EE2C 6DDB0200        	  7042: .long 0x0002DB6D
00:0000EE30 00800200        	  7043: .long 0x00028000
00:0000EE34 E3380200        	  7044: .long 0x000238E3
00:0000EE38 00000200        	  7045: .long 0x00020000
00:0000EE3C 74D10100        	  7046: .long 0x0001D174
00:0000EE40 AAAA0100        	  7047: .long 0x0001AAAA
00:0000EE44 D8890100        	  7048: .long 0x000189D8
00:0000EE48 B66D0100        	  7049: .long 0x00016DB6
00:0000EE4C 55550100        	  7050: .long 0x00015555
00:0000EE50 00400100        	  7051: .long 0x00014000
00:0000EE54 2D2D0100        	  7052: .long 0x00012D2D
00:0000EE58 711C0100        	  7053: .long 0x00011C71
00:0000EE5C 790D0100        	  7054: .long 0x00010D79
00:0000EE60 00000100        	  7055: .long 0x00010000
00:0000EE64 CFF30000        	  7056: .long 0x0000F3CF
00:0000EE68 BAE80000        	  7057: .long 0x0000E8BA
00:0000EE6C 9BDE0000        	  7058: .long 0x0000DE9B
00:0000EE70 55D50000        	  7059: .long 0x0000D555
00:0000EE74 CCCC0000        	  7060: .long 0x0000CCCC
00:0000EE78 ECC40000        	  7061: .long 0x0000C4EC
00:0000EE7C A1BD0000        	  7062: .long 0x0000BDA1
00:0000EE80 DBB60000        	  7063: .long 0x0000B6DB
00:0000EE84 8DB00000        	  7064: .long 0x0000B08D
00:0000EE88 AAAA0000        	  7065: .long 0x0000AAAA
00:0000EE8C 29A50000        	  7066: .long 0x0000A529
00:0000EE90 00A00000        	  7067: .long 0x0000A000
00:0000EE94 269B0000        	  7068: .long 0x00009B26
00:0000EE98 96960000        	  7069: .long 0x00009696
00:0000EE9C 49920000        	  7070: .long 0x00009249
00:0000EEA0 388E0000        	  7071: .long 0x00008E38
00:0000EEA4 608A0000        	  7072: .long 0x00008A60
00:0000EEA8 BC860000        	  7073: .long 0x000086BC
00:0000EEAC 48830000        	  7074: .long 0x00008348
00:0000EEB0 00800000        	  7075: .long 0x00008000
00:0000EEB4 E07C0000        	  7076: .long 0x00007CE0
00:0000EEB8 E7790000        	  7077: .long 0x000079E7
00:0000EEBC 11770000        	  7078: .long 0x00007711
00:0000EEC0 5D740000        	  7079: .long 0x0000745D
00:0000EEC4 C7710000        	  7080: .long 0x000071C7
00:0000EEC8 4D6F0000        	  7081: .long 0x00006F4D
00:0000EECC EF6C0000        	  7082: .long 0x00006CEF
00:0000EED0 AA6A0000        	  7083: .long 0x00006AAA
00:0000EED4 7D680000        	  7084: .long 0x0000687D
00:0000EED8 66660000        	  7085: .long 0x00006666
00:0000EEDC 64640000        	  7086: .long 0x00006464
00:0000EEE0 76620000        	  7087: .long 0x00006276
00:0000EEE4 9A600000        	  7088: .long 0x0000609A
00:0000EEE8 D05E0000        	  7089: .long 0x00005ED0
00:0000EEEC 175D0000        	  7090: .long 0x00005D17
00:0000EEF0 6D5B0000        	  7091: .long 0x00005B6D
00:0000EEF4 D3590000        	  7092: .long 0x000059D3
00:0000EEF8 46580000        	  7093: .long 0x00005846
00:0000EEFC C7560000        	  7094: .long 0x000056C7
00:0000EF00 55550000        	  7095: .long 0x00005555
00:0000EF04 EF530000        	  7096: .long 0x000053EF
00:0000EF08 94520000        	  7097: .long 0x00005294
00:0000EF0C 45510000        	  7098: .long 0x00005145
00:0000EF10 FFFFFFFF        	  7099: .long 0xFFFFFFFF
00:0000EF14 00001500        	  7100: .long 0x00150000
00:0000EF18 00800A00        	  7101: .long 0x000A8000
00:0000EF1C 00000700        	  7102: .long 0x00070000
00:0000EF20 00400500        	  7103: .long 0x00054000
00:0000EF24 33330400        	  7104: .long 0x00043333
00:0000EF28 00800300        	  7105: .long 0x00038000
00:0000EF2C 00000300        	  7106: .long 0x00030000
00:0000EF30 00A00200        	  7107: .long 0x0002A000
00:0000EF34 55550200        	  7108: .long 0x00025555
00:0000EF38 99190200        	  7109: .long 0x00021999
00:0000EF3C BAE80100        	  7110: .long 0x0001E8BA
00:0000EF40 00C00100        	  7111: .long 0x0001C000
00:0000EF44 899D0100        	  7112: .long 0x00019D89
00:0000EF48 00800100        	  7113: .long 0x00018000
00:0000EF4C 66660100        	  7114: .long 0x00016666
00:0000EF50 00500100        	  7115: .long 0x00015000
00:0000EF54 3C3C0100        	  7116: .long 0x00013C3C
00:0000EF58 AA2A0100        	  7117: .long 0x00012AAA
00:0000EF5C F21A0100        	  7118: .long 0x00011AF2
00:0000EF60 CC0C0100        	  7119: .long 0x00010CCC
00:0000EF64 00000100        	  7120: .long 0x00010000
00:0000EF68 5DF40000        	  7121: .long 0x0000F45D
00:0000EF6C BDE90000        	  7122: .long 0x0000E9BD
00:0000EF70 00E00000        	  7123: .long 0x0000E000
00:0000EF74 0AD70000        	  7124: .long 0x0000D70A
00:0000EF78 C4CE0000        	  7125: .long 0x0000CEC4
00:0000EF7C 1CC70000        	  7126: .long 0x0000C71C
00:0000EF80 00C00000        	  7127: .long 0x0000C000
00:0000EF84 61B90000        	  7128: .long 0x0000B961
00:0000EF88 33B30000        	  7129: .long 0x0000B333
00:0000EF8C 6BAD0000        	  7130: .long 0x0000AD6B
00:0000EF90 00A80000        	  7131: .long 0x0000A800
00:0000EF94 E8A20000        	  7132: .long 0x0000A2E8
00:0000EF98 1E9E0000        	  7133: .long 0x00009E1E
00:0000EF9C 99990000        	  7134: .long 0x00009999
00:0000EFA0 55950000        	  7135: .long 0x00009555
00:0000EFA4 4C910000        	  7136: .long 0x0000914C
00:0000EFA8 798D0000        	  7137: .long 0x00008D79
00:0000EFAC D8890000        	  7138: .long 0x000089D8
00:0000EFB0 66860000        	  7139: .long 0x00008666
00:0000EFB4 1F830000        	  7140: .long 0x0000831F
00:0000EFB8 00800000        	  7141: .long 0x00008000
00:0000EFBC 057D0000        	  7142: .long 0x00007D05
00:0000EFC0 2E7A0000        	  7143: .long 0x00007A2E
00:0000EFC4 77770000        	  7144: .long 0x00007777
00:0000EFC8 DE740000        	  7145: .long 0x000074DE
00:0000EFCC 62720000        	  7146: .long 0x00007262
00:0000EFD0 00700000        	  7147: .long 0x00007000
00:0000EFD4 B66D0000        	  7148: .long 0x00006DB6
00:0000EFD8 856B0000        	  7149: .long 0x00006B85
00:0000EFDC 69690000        	  7150: .long 0x00006969
00:0000EFE0 62670000        	  7151: .long 0x00006762
00:0000EFE4 6F650000        	  7152: .long 0x0000656F
00:0000EFE8 8E630000        	  7153: .long 0x0000638E
00:0000EFEC BE610000        	  7154: .long 0x000061BE
00:0000EFF0 00600000        	  7155: .long 0x00006000
00:0000EFF4 505E0000        	  7156: .long 0x00005E50
00:0000EFF8 B05C0000        	  7157: .long 0x00005CB0
00:0000EFFC 1E5B0000        	  7158: .long 0x00005B1E
00:0000F000 99590000        	  7159: .long 0x00005999
00:0000F004 21580000        	  7160: .long 0x00005821
00:0000F008 B5560000        	  7161: .long 0x000056B5
00:0000F00C 55550000        	  7162: .long 0x00005555
00:0000F010 FFFFFFFF        	  7163: .long 0xFFFFFFFF
00:0000F014 00001600        	  7164: .long 0x00160000
00:0000F018 00000B00        	  7165: .long 0x000B0000
00:0000F01C 55550700        	  7166: .long 0x00075555
00:0000F020 00800500        	  7167: .long 0x00058000
00:0000F024 66660400        	  7168: .long 0x00046666
00:0000F028 AAAA0300        	  7169: .long 0x0003AAAA
00:0000F02C 92240300        	  7170: .long 0x00032492
00:0000F030 00C00200        	  7171: .long 0x0002C000
00:0000F034 C7710200        	  7172: .long 0x000271C7
00:0000F038 33330200        	  7173: .long 0x00023333
00:0000F03C 00000200        	  7174: .long 0x00020000
00:0000F040 55D50100        	  7175: .long 0x0001D555
00:0000F044 3BB10100        	  7176: .long 0x0001B13B
00:0000F048 49920100        	  7177: .long 0x00019249
00:0000F04C 77770100        	  7178: .long 0x00017777
00:0000F050 00600100        	  7179: .long 0x00016000
00:0000F054 4B4B0100        	  7180: .long 0x00014B4B
00:0000F058 E3380100        	  7181: .long 0x000138E3
00:0000F05C 6B280100        	  7182: .long 0x0001286B
00:0000F060 99190100        	  7183: .long 0x00011999
00:0000F064 300C0100        	  7184: .long 0x00010C30
00:0000F068 00000100        	  7185: .long 0x00010000
00:0000F06C DEF40000        	  7186: .long 0x0000F4DE
00:0000F070 AAEA0000        	  7187: .long 0x0000EAAA
00:0000F074 47E10000        	  7188: .long 0x0000E147
00:0000F078 9DD80000        	  7189: .long 0x0000D89D
00:0000F07C 97D00000        	  7190: .long 0x0000D097
00:0000F080 24C90000        	  7191: .long 0x0000C924
00:0000F084 34C20000        	  7192: .long 0x0000C234
00:0000F088 BBBB0000        	  7193: .long 0x0000BBBB
00:0000F08C ADB50000        	  7194: .long 0x0000B5AD
00:0000F090 00B00000        	  7195: .long 0x0000B000
00:0000F094 AAAA0000        	  7196: .long 0x0000AAAA
00:0000F098 A5A50000        	  7197: .long 0x0000A5A5
00:0000F09C EAA00000        	  7198: .long 0x0000A0EA
00:0000F0A0 719C0000        	  7199: .long 0x00009C71
00:0000F0A4 37980000        	  7200: .long 0x00009837
00:0000F0A8 35940000        	  7201: .long 0x00009435
00:0000F0AC 69900000        	  7202: .long 0x00009069
00:0000F0B0 CC8C0000        	  7203: .long 0x00008CCC
00:0000F0B4 5D890000        	  7204: .long 0x0000895D
00:0000F0B8 18860000        	  7205: .long 0x00008618
00:0000F0BC FA820000        	  7206: .long 0x000082FA
00:0000F0C0 00800000        	  7207: .long 0x00008000
00:0000F0C4 277D0000        	  7208: .long 0x00007D27
00:0000F0C8 6F7A0000        	  7209: .long 0x00007A6F
00:0000F0CC D4770000        	  7210: .long 0x000077D4
00:0000F0D0 55750000        	  7211: .long 0x00007555
00:0000F0D4 F0720000        	  7212: .long 0x000072F0
00:0000F0D8 A3700000        	  7213: .long 0x000070A3
00:0000F0DC 6E6E0000        	  7214: .long 0x00006E6E
00:0000F0E0 4E6C0000        	  7215: .long 0x00006C4E
00:0000F0E4 436A0000        	  7216: .long 0x00006A43
00:0000F0E8 4B680000        	  7217: .long 0x0000684B
00:0000F0EC 66660000        	  7218: .long 0x00006666
00:0000F0F0 92640000        	  7219: .long 0x00006492
00:0000F0F4 CE620000        	  7220: .long 0x000062CE
00:0000F0F8 1A610000        	  7221: .long 0x0000611A
00:0000F0FC 755F0000        	  7222: .long 0x00005F75
00:0000F100 DD5D0000        	  7223: .long 0x00005DDD
00:0000F104 535C0000        	  7224: .long 0x00005C53
00:0000F108 D65A0000        	  7225: .long 0x00005AD6
00:0000F10C 65590000        	  7226: .long 0x00005965
00:0000F110 FFFFFFFF        	  7227: .long 0xFFFFFFFF
00:0000F114 00001700        	  7228: .long 0x00170000
00:0000F118 00800B00        	  7229: .long 0x000B8000
00:0000F11C AAAA0700        	  7230: .long 0x0007AAAA
00:0000F120 00C00500        	  7231: .long 0x0005C000
00:0000F124 99990400        	  7232: .long 0x00049999
00:0000F128 55D50300        	  7233: .long 0x0003D555
00:0000F12C 24490300        	  7234: .long 0x00034924
00:0000F130 00E00200        	  7235: .long 0x0002E000
00:0000F134 388E0200        	  7236: .long 0x00028E38
00:0000F138 CC4C0200        	  7237: .long 0x00024CCC
00:0000F13C 45170200        	  7238: .long 0x00021745
00:0000F140 AAEA0100        	  7239: .long 0x0001EAAA
00:0000F144 ECC40100        	  7240: .long 0x0001C4EC
00:0000F148 92A40100        	  7241: .long 0x0001A492
00:0000F14C 88880100        	  7242: .long 0x00018888
00:0000F150 00700100        	  7243: .long 0x00017000
00:0000F154 5A5A0100        	  7244: .long 0x00015A5A
00:0000F158 1C470100        	  7245: .long 0x0001471C
00:0000F15C E5350100        	  7246: .long 0x000135E5
00:0000F160 66260100        	  7247: .long 0x00012666
00:0000F164 61180100        	  7248: .long 0x00011861
00:0000F168 A20B0100        	  7249: .long 0x00010BA2
00:0000F16C 00000100        	  7250: .long 0x00010000
00:0000F170 55F50000        	  7251: .long 0x0000F555
00:0000F174 85EB0000        	  7252: .long 0x0000EB85
00:0000F178 76E20000        	  7253: .long 0x0000E276
00:0000F17C 12DA0000        	  7254: .long 0x0000DA12
00:0000F180 49D20000        	  7255: .long 0x0000D249
00:0000F184 08CB0000        	  7256: .long 0x0000CB08
00:0000F188 44C40000        	  7257: .long 0x0000C444
00:0000F18C EFBD0000        	  7258: .long 0x0000BDEF
00:0000F190 00B80000        	  7259: .long 0x0000B800
00:0000F194 6CB20000        	  7260: .long 0x0000B26C
00:0000F198 2DAD0000        	  7261: .long 0x0000AD2D
00:0000F19C 3AA80000        	  7262: .long 0x0000A83A
00:0000F1A0 8EA30000        	  7263: .long 0x0000A38E
00:0000F1A4 229F0000        	  7264: .long 0x00009F22
00:0000F1A8 F29A0000        	  7265: .long 0x00009AF2
00:0000F1AC F9960000        	  7266: .long 0x000096F9
00:0000F1B0 33930000        	  7267: .long 0x00009333
00:0000F1B4 9C8F0000        	  7268: .long 0x00008F9C
00:0000F1B8 308C0000        	  7269: .long 0x00008C30
00:0000F1BC EE880000        	  7270: .long 0x000088EE
00:0000F1C0 D1850000        	  7271: .long 0x000085D1
00:0000F1C4 D8820000        	  7272: .long 0x000082D8
00:0000F1C8 00800000        	  7273: .long 0x00008000
00:0000F1CC 467D0000        	  7274: .long 0x00007D46
00:0000F1D0 AA7A0000        	  7275: .long 0x00007AAA
00:0000F1D4 29780000        	  7276: .long 0x00007829
00:0000F1D8 C2750000        	  7277: .long 0x000075C2
00:0000F1DC 73730000        	  7278: .long 0x00007373
00:0000F1E0 3B710000        	  7279: .long 0x0000713B
00:0000F1E4 186F0000        	  7280: .long 0x00006F18
00:0000F1E8 096D0000        	  7281: .long 0x00006D09
00:0000F1EC 0D6B0000        	  7282: .long 0x00006B0D
00:0000F1F0 24690000        	  7283: .long 0x00006924
00:0000F1F4 4C670000        	  7284: .long 0x0000674C
00:0000F1F8 84650000        	  7285: .long 0x00006584
00:0000F1FC CB630000        	  7286: .long 0x000063CB
00:0000F200 22620000        	  7287: .long 0x00006222
00:0000F204 86600000        	  7288: .long 0x00006086
00:0000F208 F75E0000        	  7289: .long 0x00005EF7
00:0000F20C 755D0000        	  7290: .long 0x00005D75
00:0000F210 FFFFFFFF        	  7291: .long 0xFFFFFFFF
00:0000F214 00001800        	  7292: .long 0x00180000
00:0000F218 00000C00        	  7293: .long 0x000C0000
00:0000F21C 00000800        	  7294: .long 0x00080000
00:0000F220 00000600        	  7295: .long 0x00060000
00:0000F224 CCCC0400        	  7296: .long 0x0004CCCC
00:0000F228 00000400        	  7297: .long 0x00040000
00:0000F22C B66D0300        	  7298: .long 0x00036DB6
00:0000F230 00000300        	  7299: .long 0x00030000
00:0000F234 AAAA0200        	  7300: .long 0x0002AAAA
00:0000F238 66660200        	  7301: .long 0x00026666
00:0000F23C 8B2E0200        	  7302: .long 0x00022E8B
00:0000F240 00000200        	  7303: .long 0x00020000
00:0000F244 9DD80100        	  7304: .long 0x0001D89D
00:0000F248 DBB60100        	  7305: .long 0x0001B6DB
00:0000F24C 99990100        	  7306: .long 0x00019999
00:0000F250 00800100        	  7307: .long 0x00018000
00:0000F254 69690100        	  7308: .long 0x00016969
00:0000F258 55550100        	  7309: .long 0x00015555
00:0000F25C 5E430100        	  7310: .long 0x0001435E
00:0000F260 33330100        	  7311: .long 0x00013333
00:0000F264 92240100        	  7312: .long 0x00012492
00:0000F268 45170100        	  7313: .long 0x00011745
00:0000F26C 210B0100        	  7314: .long 0x00010B21
00:0000F270 00000100        	  7315: .long 0x00010000
00:0000F274 C2F50000        	  7316: .long 0x0000F5C2
00:0000F278 4EEC0000        	  7317: .long 0x0000EC4E
00:0000F27C 8EE30000        	  7318: .long 0x0000E38E
00:0000F280 6DDB0000        	  7319: .long 0x0000DB6D
00:0000F284 DCD30000        	  7320: .long 0x0000D3DC
00:0000F288 CCCC0000        	  7321: .long 0x0000CCCC
00:0000F28C 31C60000        	  7322: .long 0x0000C631
00:0000F290 00C00000        	  7323: .long 0x0000C000
00:0000F294 2EBA0000        	  7324: .long 0x0000BA2E
00:0000F298 B4B40000        	  7325: .long 0x0000B4B4
00:0000F29C 8AAF0000        	  7326: .long 0x0000AF8A
00:0000F2A0 AAAA0000        	  7327: .long 0x0000AAAA
00:0000F2A4 0DA60000        	  7328: .long 0x0000A60D
00:0000F2A8 AFA10000        	  7329: .long 0x0000A1AF
00:0000F2AC 899D0000        	  7330: .long 0x00009D89
00:0000F2B0 99990000        	  7331: .long 0x00009999
00:0000F2B4 DA950000        	  7332: .long 0x000095DA
00:0000F2B8 49920000        	  7333: .long 0x00009249
00:0000F2BC E28E0000        	  7334: .long 0x00008EE2
00:0000F2C0 A28B0000        	  7335: .long 0x00008BA2
00:0000F2C4 88880000        	  7336: .long 0x00008888
00:0000F2C8 90850000        	  7337: .long 0x00008590
00:0000F2CC B9820000        	  7338: .long 0x000082B9
00:0000F2D0 00800000        	  7339: .long 0x00008000
00:0000F2D4 637D0000        	  7340: .long 0x00007D63
00:0000F2D8 E17A0000        	  7341: .long 0x00007AE1
00:0000F2DC 78780000        	  7342: .long 0x00007878
00:0000F2E0 27760000        	  7343: .long 0x00007627
00:0000F2E4 EC730000        	  7344: .long 0x000073EC
00:0000F2E8 C7710000        	  7345: .long 0x000071C7
00:0000F2EC B56F0000        	  7346: .long 0x00006FB5
00:0000F2F0 B66D0000        	  7347: .long 0x00006DB6
00:0000F2F4 CA6B0000        	  7348: .long 0x00006BCA
00:0000F2F8 EE690000        	  7349: .long 0x000069EE
00:0000F2FC 22680000        	  7350: .long 0x00006822
00:0000F300 66660000        	  7351: .long 0x00006666
00:0000F304 B8640000        	  7352: .long 0x000064B8
00:0000F308 18630000        	  7353: .long 0x00006318
00:0000F30C 86610000        	  7354: .long 0x00006186
00:0000F310 FFFFFFFF        	  7355: .long 0xFFFFFFFF
00:0000F314 00001900        	  7356: .long 0x00190000
00:0000F318 00800C00        	  7357: .long 0x000C8000
00:0000F31C 55550800        	  7358: .long 0x00085555
00:0000F320 00400600        	  7359: .long 0x00064000
00:0000F324 00000500        	  7360: .long 0x00050000
00:0000F328 AA2A0400        	  7361: .long 0x00042AAA
00:0000F32C 49920300        	  7362: .long 0x00039249
00:0000F330 00200300        	  7363: .long 0x00032000
00:0000F334 1CC70200        	  7364: .long 0x0002C71C
00:0000F338 00800200        	  7365: .long 0x00028000
00:0000F33C D1450200        	  7366: .long 0x000245D1
00:0000F340 55150200        	  7367: .long 0x00021555
00:0000F344 4EEC0100        	  7368: .long 0x0001EC4E
00:0000F348 24C90100        	  7369: .long 0x0001C924
00:0000F34C AAAA0100        	  7370: .long 0x0001AAAA
00:0000F350 00900100        	  7371: .long 0x00019000
00:0000F354 78780100        	  7372: .long 0x00017878
00:0000F358 8E630100        	  7373: .long 0x0001638E
00:0000F35C D7500100        	  7374: .long 0x000150D7
00:0000F360 00400100        	  7375: .long 0x00014000
00:0000F364 C3300100        	  7376: .long 0x000130C3
00:0000F368 E8220100        	  7377: .long 0x000122E8
00:0000F36C 42160100        	  7378: .long 0x00011642
00:0000F370 AA0A0100        	  7379: .long 0x00010AAA
00:0000F374 00000100        	  7380: .long 0x00010000
00:0000F378 27F60000        	  7381: .long 0x0000F627
00:0000F37C 09ED0000        	  7382: .long 0x0000ED09
00:0000F380 92E40000        	  7383: .long 0x0000E492
00:0000F384 B0DC0000        	  7384: .long 0x0000DCB0
00:0000F388 55D50000        	  7385: .long 0x0000D555
00:0000F38C 73CE0000        	  7386: .long 0x0000CE73
00:0000F390 00C80000        	  7387: .long 0x0000C800
00:0000F394 F0C10000        	  7388: .long 0x0000C1F0
00:0000F398 3CBC0000        	  7389: .long 0x0000BC3C
00:0000F39C DBB60000        	  7390: .long 0x0000B6DB
00:0000F3A0 C7B10000        	  7391: .long 0x0000B1C7
00:0000F3A4 F9AC0000        	  7392: .long 0x0000ACF9
00:0000F3A8 6BA80000        	  7393: .long 0x0000A86B
00:0000F3AC 1AA40000        	  7394: .long 0x0000A41A
00:0000F3B0 00A00000        	  7395: .long 0x0000A000
00:0000F3B4 189C0000        	  7396: .long 0x00009C18
00:0000F3B8 61980000        	  7397: .long 0x00009861
00:0000F3BC D6940000        	  7398: .long 0x000094D6
00:0000F3C0 74910000        	  7399: .long 0x00009174
00:0000F3C4 388E0000        	  7400: .long 0x00008E38
00:0000F3C8 218B0000        	  7401: .long 0x00008B21
00:0000F3CC 2B880000        	  7402: .long 0x0000882B
00:0000F3D0 55850000        	  7403: .long 0x00008555
00:0000F3D4 9C820000        	  7404: .long 0x0000829C
00:0000F3D8 00800000        	  7405: .long 0x00008000
00:0000F3DC 7D7D0000        	  7406: .long 0x00007D7D
00:0000F3E0 137B0000        	  7407: .long 0x00007B13
00:0000F3E4 C1780000        	  7408: .long 0x000078C1
00:0000F3E8 84760000        	  7409: .long 0x00007684
00:0000F3EC 5D740000        	  7410: .long 0x0000745D
00:0000F3F0 49720000        	  7411: .long 0x00007249
00:0000F3F4 47700000        	  7412: .long 0x00007047
00:0000F3F8 586E0000        	  7413: .long 0x00006E58
00:0000F3FC 796C0000        	  7414: .long 0x00006C79
00:0000F400 AA6A0000        	  7415: .long 0x00006AAA
00:0000F404 EB680000        	  7416: .long 0x000068EB
00:0000F408 39670000        	  7417: .long 0x00006739
00:0000F40C 96650000        	  7418: .long 0x00006596
00:0000F410 FFFFFFFF        	  7419: .long 0xFFFFFFFF
00:0000F414 00001A00        	  7420: .long 0x001A0000
00:0000F418 00000D00        	  7421: .long 0x000D0000
00:0000F41C AAAA0800        	  7422: .long 0x0008AAAA
00:0000F420 00800600        	  7423: .long 0x00068000
00:0000F424 33330500        	  7424: .long 0x00053333
00:0000F428 55550400        	  7425: .long 0x00045555
00:0000F42C DBB60300        	  7426: .long 0x0003B6DB
00:0000F430 00400300        	  7427: .long 0x00034000
00:0000F434 8EE30200        	  7428: .long 0x0002E38E
00:0000F438 99990200        	  7429: .long 0x00029999
00:0000F43C 175D0200        	  7430: .long 0x00025D17
00:0000F440 AA2A0200        	  7431: .long 0x00022AAA
00:0000F444 00000200        	  7432: .long 0x00020000
00:0000F448 6DDB0100        	  7433: .long 0x0001DB6D
00:0000F44C BBBB0100        	  7434: .long 0x0001BBBB
00:0000F450 00A00100        	  7435: .long 0x0001A000
00:0000F454 87870100        	  7436: .long 0x00018787
00:0000F458 C7710100        	  7437: .long 0x000171C7
00:0000F45C 505E0100        	  7438: .long 0x00015E50
00:0000F460 CC4C0100        	  7439: .long 0x00014CCC
00:0000F464 F33C0100        	  7440: .long 0x00013CF3
00:0000F468 8B2E0100        	  7441: .long 0x00012E8B
00:0000F46C 64210100        	  7442: .long 0x00012164
00:0000F470 55150100        	  7443: .long 0x00011555
00:0000F474 3D0A0100        	  7444: .long 0x00010A3D
00:0000F478 00000100        	  7445: .long 0x00010000
00:0000F47C 84F60000        	  7446: .long 0x0000F684
00:0000F480 B6ED0000        	  7447: .long 0x0000EDB6
00:0000F484 84E50000        	  7448: .long 0x0000E584
00:0000F488 DDDD0000        	  7449: .long 0x0000DDDD
00:0000F48C B5D60000        	  7450: .long 0x0000D6B5
00:0000F490 00D00000        	  7451: .long 0x0000D000
00:0000F494 B2C90000        	  7452: .long 0x0000C9B2
00:0000F498 C3C30000        	  7453: .long 0x0000C3C3
00:0000F49C 2BBE0000        	  7454: .long 0x0000BE2B
00:0000F4A0 E3B80000        	  7455: .long 0x0000B8E3
00:0000F4A4 E4B30000        	  7456: .long 0x0000B3E4
00:0000F4A8 28AF0000        	  7457: .long 0x0000AF28
00:0000F4AC AAAA0000        	  7458: .long 0x0000AAAA
00:0000F4B0 66A60000        	  7459: .long 0x0000A666
00:0000F4B4 57A20000        	  7460: .long 0x0000A257
00:0000F4B8 799E0000        	  7461: .long 0x00009E79
00:0000F4BC CA9A0000        	  7462: .long 0x00009ACA
00:0000F4C0 45970000        	  7463: .long 0x00009745
00:0000F4C4 E9930000        	  7464: .long 0x000093E9
00:0000F4C8 B2900000        	  7465: .long 0x000090B2
00:0000F4CC 9D8D0000        	  7466: .long 0x00008D9D
00:0000F4D0 AA8A0000        	  7467: .long 0x00008AAA
00:0000F4D4 D6870000        	  7468: .long 0x000087D6
00:0000F4D8 1E850000        	  7469: .long 0x0000851E
00:0000F4DC 82820000        	  7470: .long 0x00008282
00:0000F4E0 00800000        	  7471: .long 0x00008000
00:0000F4E4 957D0000        	  7472: .long 0x00007D95
00:0000F4E8 427B0000        	  7473: .long 0x00007B42
00:0000F4EC 04790000        	  7474: .long 0x00007904
00:0000F4F0 DB760000        	  7475: .long 0x000076DB
00:0000F4F4 C5740000        	  7476: .long 0x000074C5
00:0000F4F8 C2720000        	  7477: .long 0x000072C2
00:0000F4FC D0700000        	  7478: .long 0x000070D0
00:0000F500 EE6E0000        	  7479: .long 0x00006EEE
00:0000F504 1D6D0000        	  7480: .long 0x00006D1D
00:0000F508 5A6B0000        	  7481: .long 0x00006B5A
00:0000F50C A6690000        	  7482: .long 0x000069A6
00:0000F510 FFFFFFFF        	  7483: .long 0xFFFFFFFF
00:0000F514 00001B00        	  7484: .long 0x001B0000
00:0000F518 00800D00        	  7485: .long 0x000D8000
00:0000F51C 00000900        	  7486: .long 0x00090000
00:0000F520 00C00600        	  7487: .long 0x0006C000
00:0000F524 66660500        	  7488: .long 0x00056666
00:0000F528 00800400        	  7489: .long 0x00048000
00:0000F52C 6DDB0300        	  7490: .long 0x0003DB6D
00:0000F530 00600300        	  7491: .long 0x00036000
00:0000F534 00000300        	  7492: .long 0x00030000
00:0000F538 33B30200        	  7493: .long 0x0002B333
00:0000F53C 5D740200        	  7494: .long 0x0002745D
00:0000F540 00400200        	  7495: .long 0x00024000
00:0000F544 B1130200        	  7496: .long 0x000213B1
00:0000F548 B6ED0100        	  7497: .long 0x0001EDB6
00:0000F54C CCCC0100        	  7498: .long 0x0001CCCC
00:0000F550 00B00100        	  7499: .long 0x0001B000
00:0000F554 96960100        	  7500: .long 0x00019696
00:0000F558 00800100        	  7501: .long 0x00018000
00:0000F55C CA6B0100        	  7502: .long 0x00016BCA
00:0000F560 99590100        	  7503: .long 0x00015999
00:0000F564 24490100        	  7504: .long 0x00014924
00:0000F568 2E3A0100        	  7505: .long 0x00013A2E
00:0000F56C 852C0100        	  7506: .long 0x00012C85
00:0000F570 00200100        	  7507: .long 0x00012000
00:0000F574 7A140100        	  7508: .long 0x0001147A
00:0000F578 D8090100        	  7509: .long 0x000109D8
00:0000F57C 00000100        	  7510: .long 0x00010000
00:0000F580 DBF60000        	  7511: .long 0x0000F6DB
00:0000F584 58EE0000        	  7512: .long 0x0000EE58
00:0000F588 66E60000        	  7513: .long 0x0000E666
00:0000F58C F7DE0000        	  7514: .long 0x0000DEF7
00:0000F590 00D80000        	  7515: .long 0x0000D800
00:0000F594 74D10000        	  7516: .long 0x0000D174
00:0000F598 4BCB0000        	  7517: .long 0x0000CB4B
00:0000F59C 7CC50000        	  7518: .long 0x0000C57C
00:0000F5A0 00C00000        	  7519: .long 0x0000C000
00:0000F5A4 CFBA0000        	  7520: .long 0x0000BACF
00:0000F5A8 E5B50000        	  7521: .long 0x0000B5E5
00:0000F5AC 3BB10000        	  7522: .long 0x0000B13B
00:0000F5B0 CCAC0000        	  7523: .long 0x0000ACCC
00:0000F5B4 95A80000        	  7524: .long 0x0000A895
00:0000F5B8 92A40000        	  7525: .long 0x0000A492
00:0000F5BC BEA00000        	  7526: .long 0x0000A0BE
00:0000F5C0 179D0000        	  7527: .long 0x00009D17
00:0000F5C4 99990000        	  7528: .long 0x00009999
00:0000F5C8 42960000        	  7529: .long 0x00009642
00:0000F5CC 10930000        	  7530: .long 0x00009310
00:0000F5D0 00900000        	  7531: .long 0x00009000
00:0000F5D4 0F8D0000        	  7532: .long 0x00008D0F
00:0000F5D8 3D8A0000        	  7533: .long 0x00008A3D
00:0000F5DC 87870000        	  7534: .long 0x00008787
00:0000F5E0 EC840000        	  7535: .long 0x000084EC
00:0000F5E4 6A820000        	  7536: .long 0x0000826A
00:0000F5E8 00800000        	  7537: .long 0x00008000
00:0000F5EC AC7D0000        	  7538: .long 0x00007DAC
00:0000F5F0 6D7B0000        	  7539: .long 0x00007B6D
00:0000F5F4 43790000        	  7540: .long 0x00007943
00:0000F5F8 2C770000        	  7541: .long 0x0000772C
00:0000F5FC 27750000        	  7542: .long 0x00007527
00:0000F600 33730000        	  7543: .long 0x00007333
00:0000F604 4F710000        	  7544: .long 0x0000714F
00:0000F608 7B6F0000        	  7545: .long 0x00006F7B
00:0000F60C B66D0000        	  7546: .long 0x00006DB6
00:0000F610 FFFFFFFF        	  7547: .long 0xFFFFFFFF
00:0000F614 00001C00        	  7548: .long 0x001C0000
00:0000F618 00000E00        	  7549: .long 0x000E0000
00:0000F61C 55550900        	  7550: .long 0x00095555
00:0000F620 00000700        	  7551: .long 0x00070000
00:0000F624 99990500        	  7552: .long 0x00059999
00:0000F628 AAAA0400        	  7553: .long 0x0004AAAA
00:0000F62C 00000400        	  7554: .long 0x00040000
00:0000F630 00800300        	  7555: .long 0x00038000
00:0000F634 711C0300        	  7556: .long 0x00031C71
00:0000F638 CCCC0200        	  7557: .long 0x0002CCCC
00:0000F63C A28B0200        	  7558: .long 0x00028BA2
00:0000F640 55550200        	  7559: .long 0x00025555
00:0000F644 62270200        	  7560: .long 0x00022762
00:0000F648 00000200        	  7561: .long 0x00020000
00:0000F64C DDDD0100        	  7562: .long 0x0001DDDD
00:0000F650 00C00100        	  7563: .long 0x0001C000
00:0000F654 A5A50100        	  7564: .long 0x0001A5A5
00:0000F658 388E0100        	  7565: .long 0x00018E38
00:0000F65C 43790100        	  7566: .long 0x00017943
00:0000F660 66660100        	  7567: .long 0x00016666
00:0000F664 55550100        	  7568: .long 0x00015555
00:0000F668 D1450100        	  7569: .long 0x000145D1
00:0000F66C A6370100        	  7570: .long 0x000137A6
00:0000F670 AA2A0100        	  7571: .long 0x00012AAA
00:0000F674 B81E0100        	  7572: .long 0x00011EB8
00:0000F678 B1130100        	  7573: .long 0x000113B1
00:0000F67C 7B090100        	  7574: .long 0x0001097B
00:0000F680 00000100        	  7575: .long 0x00010000
00:0000F684 2CF70000        	  7576: .long 0x0000F72C
00:0000F688 EEEE0000        	  7577: .long 0x0000EEEE
00:0000F68C 39E70000        	  7578: .long 0x0000E739
00:0000F690 00E00000        	  7579: .long 0x0000E000
00:0000F694 36D90000        	  7580: .long 0x0000D936
00:0000F698 D2D20000        	  7581: .long 0x0000D2D2
00:0000F69C CCCC0000        	  7582: .long 0x0000CCCC
00:0000F6A0 1CC70000        	  7583: .long 0x0000C71C
00:0000F6A4 BAC10000        	  7584: .long 0x0000C1BA
00:0000F6A8 A1BC0000        	  7585: .long 0x0000BCA1
00:0000F6AC CBB70000        	  7586: .long 0x0000B7CB
00:0000F6B0 33B30000        	  7587: .long 0x0000B333
00:0000F6B4 D4AE0000        	  7588: .long 0x0000AED4
00:0000F6B8 AAAA0000        	  7589: .long 0x0000AAAA
00:0000F6BC B2A60000        	  7590: .long 0x0000A6B2
00:0000F6C0 E8A20000        	  7591: .long 0x0000A2E8
00:0000F6C4 499F0000        	  7592: .long 0x00009F49
00:0000F6C8 D39B0000        	  7593: .long 0x00009BD3
00:0000F6CC 82980000        	  7594: .long 0x00009882
00:0000F6D0 55950000        	  7595: .long 0x00009555
00:0000F6D4 49920000        	  7596: .long 0x00009249
00:0000F6D8 5C8F0000        	  7597: .long 0x00008F5C
00:0000F6DC 8C8C0000        	  7598: .long 0x00008C8C
00:0000F6E0 D8890000        	  7599: .long 0x000089D8
00:0000F6E4 3E870000        	  7600: .long 0x0000873E
00:0000F6E8 BD840000        	  7601: .long 0x000084BD
00:0000F6EC 53820000        	  7602: .long 0x00008253
00:0000F6F0 00800000        	  7603: .long 0x00008000
00:0000F6F4 C17D0000        	  7604: .long 0x00007DC1
00:0000F6F8 967B0000        	  7605: .long 0x00007B96
00:0000F6FC 7D790000        	  7606: .long 0x0000797D
00:0000F700 77770000        	  7607: .long 0x00007777
00:0000F704 82750000        	  7608: .long 0x00007582
00:0000F708 9C730000        	  7609: .long 0x0000739C
00:0000F70C C7710000        	  7610: .long 0x000071C7
00:0000F710 FFFFFFFF        	  7611: .long 0xFFFFFFFF
00:0000F714 00001D00        	  7612: .long 0x001D0000
00:0000F718 00800E00        	  7613: .long 0x000E8000
00:0000F71C AAAA0900        	  7614: .long 0x0009AAAA
00:0000F720 00400700        	  7615: .long 0x00074000
00:0000F724 CCCC0500        	  7616: .long 0x0005CCCC
00:0000F728 55D50400        	  7617: .long 0x0004D555
00:0000F72C 92240400        	  7618: .long 0x00042492
00:0000F730 00A00300        	  7619: .long 0x0003A000
00:0000F734 E3380300        	  7620: .long 0x000338E3
00:0000F738 66E60200        	  7621: .long 0x0002E666
00:0000F73C E8A20200        	  7622: .long 0x0002A2E8
00:0000F740 AA6A0200        	  7623: .long 0x00026AAA
00:0000F744 133B0200        	  7624: .long 0x00023B13
00:0000F748 49120200        	  7625: .long 0x00021249
00:0000F74C EEEE0100        	  7626: .long 0x0001EEEE
00:0000F750 00D00100        	  7627: .long 0x0001D000
00:0000F754 B4B40100        	  7628: .long 0x0001B4B4
00:0000F758 719C0100        	  7629: .long 0x00019C71
00:0000F75C BC860100        	  7630: .long 0x000186BC
00:0000F760 33730100        	  7631: .long 0x00017333
00:0000F764 86610100        	  7632: .long 0x00016186
00:0000F768 74510100        	  7633: .long 0x00015174
00:0000F76C C8420100        	  7634: .long 0x000142C8
00:0000F770 55350100        	  7635: .long 0x00013555
00:0000F774 F5280100        	  7636: .long 0x000128F5
00:0000F778 891D0100        	  7637: .long 0x00011D89
00:0000F77C F6120100        	  7638: .long 0x000112F6
00:0000F780 24090100        	  7639: .long 0x00010924
00:0000F784 00000100        	  7640: .long 0x00010000
00:0000F788 77F70000        	  7641: .long 0x0000F777
00:0000F78C 7BEF0000        	  7642: .long 0x0000EF7B
00:0000F790 00E80000        	  7643: .long 0x0000E800
00:0000F794 F8E00000        	  7644: .long 0x0000E0F8
00:0000F798 5ADA0000        	  7645: .long 0x0000DA5A
00:0000F79C 1DD40000        	  7646: .long 0x0000D41D
00:0000F7A0 38CE0000        	  7647: .long 0x0000CE38
00:0000F7A4 A6C80000        	  7648: .long 0x0000C8A6
00:0000F7A8 5EC30000        	  7649: .long 0x0000C35E
00:0000F7AC 5BBE0000        	  7650: .long 0x0000BE5B
00:0000F7B0 99B90000        	  7651: .long 0x0000B999
00:0000F7B4 12B50000        	  7652: .long 0x0000B512
00:0000F7B8 C3B00000        	  7653: .long 0x0000B0C3
00:0000F7BC A6AC0000        	  7654: .long 0x0000ACA6
00:0000F7C0 BAA80000        	  7655: .long 0x0000A8BA
00:0000F7C4 FAA40000        	  7656: .long 0x0000A4FA
00:0000F7C8 64A10000        	  7657: .long 0x0000A164
00:0000F7CC F59D0000        	  7658: .long 0x00009DF5
00:0000F7D0 AA9A0000        	  7659: .long 0x00009AAA
00:0000F7D4 82970000        	  7660: .long 0x00009782
00:0000F7D8 7A940000        	  7661: .long 0x0000947A
00:0000F7DC 91910000        	  7662: .long 0x00009191
00:0000F7E0 C48E0000        	  7663: .long 0x00008EC4
00:0000F7E4 138C0000        	  7664: .long 0x00008C13
00:0000F7E8 7B890000        	  7665: .long 0x0000897B
00:0000F7EC FB860000        	  7666: .long 0x000086FB
00:0000F7F0 92840000        	  7667: .long 0x00008492
00:0000F7F4 3E820000        	  7668: .long 0x0000823E
00:0000F7F8 00800000        	  7669: .long 0x00008000
00:0000F7FC D47D0000        	  7670: .long 0x00007DD4
00:0000F800 BB7B0000        	  7671: .long 0x00007BBB
00:0000F804 B4790000        	  7672: .long 0x000079B4
00:0000F808 BD770000        	  7673: .long 0x000077BD
00:0000F80C D7750000        	  7674: .long 0x000075D7
00:0000F810 FFFFFFFF        	  7675: .long 0xFFFFFFFF
00:0000F814 00001E00        	  7676: .long 0x001E0000
00:0000F818 00000F00        	  7677: .long 0x000F0000
00:0000F81C 00000A00        	  7678: .long 0x000A0000
00:0000F820 00800700        	  7679: .long 0x00078000
00:0000F824 00000600        	  7680: .long 0x00060000
00:0000F828 00000500        	  7681: .long 0x00050000
00:0000F82C 24490400        	  7682: .long 0x00044924
00:0000F830 00C00300        	  7683: .long 0x0003C000
00:0000F834 55550300        	  7684: .long 0x00035555
00:0000F838 00000300        	  7685: .long 0x00030000
00:0000F83C 2EBA0200        	  7686: .long 0x0002BA2E
00:0000F840 00800200        	  7687: .long 0x00028000
00:0000F844 C44E0200        	  7688: .long 0x00024EC4
00:0000F848 92240200        	  7689: .long 0x00022492
00:0000F84C 00000200        	  7690: .long 0x00020000
00:0000F850 00E00100        	  7691: .long 0x0001E000
00:0000F854 C3C30100        	  7692: .long 0x0001C3C3
00:0000F858 AAAA0100        	  7693: .long 0x0001AAAA
00:0000F85C 35940100        	  7694: .long 0x00019435
00:0000F860 00800100        	  7695: .long 0x00018000
00:0000F864 B66D0100        	  7696: .long 0x00016DB6
00:0000F868 175D0100        	  7697: .long 0x00015D17
00:0000F86C E94D0100        	  7698: .long 0x00014DE9
00:0000F870 00400100        	  7699: .long 0x00014000
00:0000F874 33330100        	  7700: .long 0x00013333
00:0000F878 62270100        	  7701: .long 0x00012762
00:0000F87C 711C0100        	  7702: .long 0x00011C71
00:0000F880 49120100        	  7703: .long 0x00011249
00:0000F884 D3080100        	  7704: .long 0x000108D3
00:0000F888 00000100        	  7705: .long 0x00010000
00:0000F88C BDF70000        	  7706: .long 0x0000F7BD
00:0000F890 00F00000        	  7707: .long 0x0000F000
00:0000F894 BAE80000        	  7708: .long 0x0000E8BA
00:0000F898 E1E10000        	  7709: .long 0x0000E1E1
00:0000F89C 6DDB0000        	  7710: .long 0x0000DB6D
00:0000F8A0 55D50000        	  7711: .long 0x0000D555
00:0000F8A4 91CF0000        	  7712: .long 0x0000CF91
00:0000F8A8 1ACA0000        	  7713: .long 0x0000CA1A
00:0000F8AC ECC40000        	  7714: .long 0x0000C4EC
00:0000F8B0 00C00000        	  7715: .long 0x0000C000
00:0000F8B4 51BB0000        	  7716: .long 0x0000BB51
00:0000F8B8 DBB60000        	  7717: .long 0x0000B6DB
00:0000F8BC 9AB20000        	  7718: .long 0x0000B29A
00:0000F8C0 8BAE0000        	  7719: .long 0x0000AE8B
00:0000F8C4 AAAA0000        	  7720: .long 0x0000AAAA
00:0000F8C8 F4A60000        	  7721: .long 0x0000A6F4
00:0000F8CC 67A30000        	  7722: .long 0x0000A367
00:0000F8D0 00A00000        	  7723: .long 0x0000A000
00:0000F8D4 BC9C0000        	  7724: .long 0x00009CBC
00:0000F8D8 99990000        	  7725: .long 0x00009999
00:0000F8DC 96960000        	  7726: .long 0x00009696
00:0000F8E0 B1930000        	  7727: .long 0x000093B1
00:0000F8E4 E7900000        	  7728: .long 0x000090E7
00:0000F8E8 388E0000        	  7729: .long 0x00008E38
00:0000F8EC A28B0000        	  7730: .long 0x00008BA2
00:0000F8F0 24890000        	  7731: .long 0x00008924
00:0000F8F4 BC860000        	  7732: .long 0x000086BC
00:0000F8F8 69840000        	  7733: .long 0x00008469
00:0000F8FC 2B820000        	  7734: .long 0x0000822B
00:0000F900 00800000        	  7735: .long 0x00008000
00:0000F904 E67D0000        	  7736: .long 0x00007DE6
00:0000F908 DE7B0000        	  7737: .long 0x00007BDE
00:0000F90C E7790000        	  7738: .long 0x000079E7
00:0000F910 FFFFFFFF        	  7739: .long 0xFFFFFFFF
00:0000F914 00001F00        	  7740: .long 0x001F0000
00:0000F918 00800F00        	  7741: .long 0x000F8000
00:0000F91C 55550A00        	  7742: .long 0x000A5555
00:0000F920 00C00700        	  7743: .long 0x0007C000
00:0000F924 33330600        	  7744: .long 0x00063333
00:0000F928 AA2A0500        	  7745: .long 0x00052AAA
00:0000F92C B66D0400        	  7746: .long 0x00046DB6
00:0000F930 00E00300        	  7747: .long 0x0003E000
00:0000F934 C7710300        	  7748: .long 0x000371C7
00:0000F938 99190300        	  7749: .long 0x00031999
00:0000F93C 74D10200        	  7750: .long 0x0002D174
00:0000F940 55950200        	  7751: .long 0x00029555
00:0000F944 76620200        	  7752: .long 0x00026276
00:0000F948 DB360200        	  7753: .long 0x000236DB
00:0000F94C 11110200        	  7754: .long 0x00021111
00:0000F950 00F00100        	  7755: .long 0x0001F000
00:0000F954 D2D20100        	  7756: .long 0x0001D2D2
00:0000F958 E3B80100        	  7757: .long 0x0001B8E3
00:0000F95C AFA10100        	  7758: .long 0x0001A1AF
00:0000F960 CC8C0100        	  7759: .long 0x00018CCC
00:0000F964 E7790100        	  7760: .long 0x000179E7
00:0000F968 BA680100        	  7761: .long 0x000168BA
00:0000F96C 0B590100        	  7762: .long 0x0001590B
00:0000F970 AA4A0100        	  7763: .long 0x00014AAA
00:0000F974 703D0100        	  7764: .long 0x00013D70
00:0000F978 3B310100        	  7765: .long 0x0001313B
00:0000F97C ED250100        	  7766: .long 0x000125ED
00:0000F980 6D1B0100        	  7767: .long 0x00011B6D
00:0000F984 A7110100        	  7768: .long 0x000111A7
00:0000F988 88080100        	  7769: .long 0x00010888
00:0000F98C 00000100        	  7770: .long 0x00010000
00:0000F990 00F80000        	  7771: .long 0x0000F800
00:0000F994 7CF00000        	  7772: .long 0x0000F07C
00:0000F998 69E90000        	  7773: .long 0x0000E969
00:0000F99C BEE20000        	  7774: .long 0x0000E2BE
00:0000F9A0 71DC0000        	  7775: .long 0x0000DC71
00:0000F9A4 7CD60000        	  7776: .long 0x0000D67C
00:0000F9A8 D7D00000        	  7777: .long 0x0000D0D7
00:0000F9AC 7CCB0000        	  7778: .long 0x0000CB7C
00:0000F9B0 66C60000        	  7779: .long 0x0000C666
00:0000F9B4 8FC10000        	  7780: .long 0x0000C18F
00:0000F9B8 F3BC0000        	  7781: .long 0x0000BCF3
00:0000F9BC 8EB80000        	  7782: .long 0x0000B88E
00:0000F9C0 5DB40000        	  7783: .long 0x0000B45D
00:0000F9C4 5BB00000        	  7784: .long 0x0000B05B
00:0000F9C8 85AC0000        	  7785: .long 0x0000AC85
00:0000F9CC D9A80000        	  7786: .long 0x0000A8D9
00:0000F9D0 55A50000        	  7787: .long 0x0000A555
00:0000F9D4 F5A10000        	  7788: .long 0x0000A1F5
00:0000F9D8 B89E0000        	  7789: .long 0x00009EB8
00:0000F9DC 9B9B0000        	  7790: .long 0x00009B9B
00:0000F9E0 9D980000        	  7791: .long 0x0000989D
00:0000F9E4 BC950000        	  7792: .long 0x000095BC
00:0000F9E8 F6920000        	  7793: .long 0x000092F6
00:0000F9EC 4A900000        	  7794: .long 0x0000904A
00:0000F9F0 B68D0000        	  7795: .long 0x00008DB6
00:0000F9F4 3A8B0000        	  7796: .long 0x00008B3A
00:0000F9F8 D3880000        	  7797: .long 0x000088D3
00:0000F9FC 82860000        	  7798: .long 0x00008682
00:0000FA00 44840000        	  7799: .long 0x00008444
00:0000FA04 19820000        	  7800: .long 0x00008219
00:0000FA08 00800000        	  7801: .long 0x00008000
00:0000FA0C F77D0000        	  7802: .long 0x00007DF7
00:0000FA10 FFFFFFFF        	  7803: .long 0xFFFFFFFF
00:0000FA14 00002000        	  7804: .long 0x00200000
00:0000FA18 00001000        	  7805: .long 0x00100000
00:0000FA1C AAAA0A00        	  7806: .long 0x000AAAAA
00:0000FA20 00000800        	  7807: .long 0x00080000
00:0000FA24 66660600        	  7808: .long 0x00066666
00:0000FA28 55550500        	  7809: .long 0x00055555
00:0000FA2C 49920400        	  7810: .long 0x00049249
00:0000FA30 00000400        	  7811: .long 0x00040000
00:0000FA34 388E0300        	  7812: .long 0x00038E38
00:0000FA38 33330300        	  7813: .long 0x00033333
00:0000FA3C BAE80200        	  7814: .long 0x0002E8BA
00:0000FA40 AAAA0200        	  7815: .long 0x0002AAAA
00:0000FA44 27760200        	  7816: .long 0x00027627
00:0000FA48 24490200        	  7817: .long 0x00024924
00:0000FA4C 22220200        	  7818: .long 0x00022222
00:0000FA50 00000200        	  7819: .long 0x00020000
00:0000FA54 E1E10100        	  7820: .long 0x0001E1E1
00:0000FA58 1CC70100        	  7821: .long 0x0001C71C
00:0000FA5C 28AF0100        	  7822: .long 0x0001AF28
00:0000FA60 99990100        	  7823: .long 0x00019999
00:0000FA64 18860100        	  7824: .long 0x00018618
00:0000FA68 5D740100        	  7825: .long 0x0001745D
00:0000FA6C 2C640100        	  7826: .long 0x0001642C
00:0000FA70 55550100        	  7827: .long 0x00015555
00:0000FA74 AE470100        	  7828: .long 0x000147AE
00:0000FA78 133B0100        	  7829: .long 0x00013B13
00:0000FA7C 682F0100        	  7830: .long 0x00012F68
00:0000FA80 92240100        	  7831: .long 0x00012492
00:0000FA84 7B1A0100        	  7832: .long 0x00011A7B
00:0000FA88 11110100        	  7833: .long 0x00011111
00:0000FA8C 42080100        	  7834: .long 0x00010842
00:0000FA90 00000100        	  7835: .long 0x00010000
00:0000FA94 3EF80000        	  7836: .long 0x0000F83E
00:0000FA98 F0F00000        	  7837: .long 0x0000F0F0
00:0000FA9C 0EEA0000        	  7838: .long 0x0000EA0E
00:0000FAA0 8EE30000        	  7839: .long 0x0000E38E
00:0000FAA4 67DD0000        	  7840: .long 0x0000DD67
00:0000FAA8 94D70000        	  7841: .long 0x0000D794
00:0000FAAC 0DD20000        	  7842: .long 0x0000D20D
00:0000FAB0 CCCC0000        	  7843: .long 0x0000CCCC
00:0000FAB4 CEC70000        	  7844: .long 0x0000C7CE
00:0000FAB8 0CC30000        	  7845: .long 0x0000C30C
00:0000FABC 82BE0000        	  7846: .long 0x0000BE82
00:0000FAC0 2EBA0000        	  7847: .long 0x0000BA2E
00:0000FAC4 0BB60000        	  7848: .long 0x0000B60B
00:0000FAC8 16B20000        	  7849: .long 0x0000B216
00:0000FACC 4CAE0000        	  7850: .long 0x0000AE4C
00:0000FAD0 AAAA0000        	  7851: .long 0x0000AAAA
00:0000FAD4 2FA70000        	  7852: .long 0x0000A72F
00:0000FAD8 D7A30000        	  7853: .long 0x0000A3D7
00:0000FADC A0A00000        	  7854: .long 0x0000A0A0
00:0000FAE0 899D0000        	  7855: .long 0x00009D89
00:0000FAE4 909A0000        	  7856: .long 0x00009A90
00:0000FAE8 B4970000        	  7857: .long 0x000097B4
00:0000FAEC F2940000        	  7858: .long 0x000094F2
00:0000FAF0 49920000        	  7859: .long 0x00009249
00:0000FAF4 B88F0000        	  7860: .long 0x00008FB8
00:0000FAF8 3D8D0000        	  7861: .long 0x00008D3D
00:0000FAFC D88A0000        	  7862: .long 0x00008AD8
00:0000FB00 88880000        	  7863: .long 0x00008888
00:0000FB04 4B860000        	  7864: .long 0x0000864B
00:0000FB08 21840000        	  7865: .long 0x00008421
00:0000FB0C 08820000        	  7866: .long 0x00008208
00:0000FB10 FFFFFFFF        	  7867: .long 0xFFFFFFFF
00:0000FB14 00002100        	  7868: .long 0x00210000
00:0000FB18 00801000        	  7869: .long 0x00108000
00:0000FB1C 00000B00        	  7870: .long 0x000B0000
00:0000FB20 00400800        	  7871: .long 0x00084000
00:0000FB24 99990600        	  7872: .long 0x00069999
00:0000FB28 00800500        	  7873: .long 0x00058000
00:0000FB2C DBB60400        	  7874: .long 0x0004B6DB
00:0000FB30 00200400        	  7875: .long 0x00042000
00:0000FB34 AAAA0300        	  7876: .long 0x0003AAAA
00:0000FB38 CC4C0300        	  7877: .long 0x00034CCC
00:0000FB3C 00000300        	  7878: .long 0x00030000
00:0000FB40 00C00200        	  7879: .long 0x0002C000
00:0000FB44 D8890200        	  7880: .long 0x000289D8
00:0000FB48 6D5B0200        	  7881: .long 0x00025B6D
00:0000FB4C 33330200        	  7882: .long 0x00023333
00:0000FB50 00100200        	  7883: .long 0x00021000
00:0000FB54 F0F00100        	  7884: .long 0x0001F0F0
00:0000FB58 55D50100        	  7885: .long 0x0001D555
00:0000FB5C A1BC0100        	  7886: .long 0x0001BCA1
00:0000FB60 66A60100        	  7887: .long 0x0001A666
00:0000FB64 49920100        	  7888: .long 0x00019249
00:0000FB68 00800100        	  7889: .long 0x00018000
00:0000FB6C 4D6F0100        	  7890: .long 0x00016F4D
00:0000FB70 00600100        	  7891: .long 0x00016000
00:0000FB74 EB510100        	  7892: .long 0x000151EB
00:0000FB78 EC440100        	  7893: .long 0x000144EC
00:0000FB7C E3380100        	  7894: .long 0x000138E3
00:0000FB80 B62D0100        	  7895: .long 0x00012DB6
00:0000FB84 4F230100        	  7896: .long 0x0001234F
00:0000FB88 99190100        	  7897: .long 0x00011999
00:0000FB8C 84100100        	  7898: .long 0x00011084
00:0000FB90 00080100        	  7899: .long 0x00010800
00:0000FB94 00000100        	  7900: .long 0x00010000
00:0000FB98 78F80000        	  7901: .long 0x0000F878
00:0000FB9C 5FF10000        	  7902: .long 0x0000F15F
00:0000FBA0 AAEA0000        	  7903: .long 0x0000EAAA
00:0000FBA4 53E40000        	  7904: .long 0x0000E453
00:0000FBA8 50DE0000        	  7905: .long 0x0000DE50
00:0000FBAC 9DD80000        	  7906: .long 0x0000D89D
00:0000FBB0 33D30000        	  7907: .long 0x0000D333
00:0000FBB4 0CCE0000        	  7908: .long 0x0000CE0C
00:0000FBB8 24C90000        	  7909: .long 0x0000C924
00:0000FBBC 77C40000        	  7910: .long 0x0000C477
00:0000FBC0 00C00000        	  7911: .long 0x0000C000
00:0000FBC4 BBBB0000        	  7912: .long 0x0000BBBB
00:0000FBC8 A6B70000        	  7913: .long 0x0000B7A6
00:0000FBCC BEB30000        	  7914: .long 0x0000B3BE
00:0000FBD0 00B00000        	  7915: .long 0x0000B000
00:0000FBD4 68AC0000        	  7916: .long 0x0000AC68
00:0000FBD8 F5A80000        	  7917: .long 0x0000A8F5
00:0000FBDC A5A50000        	  7918: .long 0x0000A5A5
00:0000FBE0 76A20000        	  7919: .long 0x0000A276
00:0000FBE4 659F0000        	  7920: .long 0x00009F65
00:0000FBE8 719C0000        	  7921: .long 0x00009C71
00:0000FBEC 99990000        	  7922: .long 0x00009999
00:0000FBF0 DB960000        	  7923: .long 0x000096DB
00:0000FBF4 35940000        	  7924: .long 0x00009435
00:0000FBF8 A7910000        	  7925: .long 0x000091A7
00:0000FBFC 2F8F0000        	  7926: .long 0x00008F2F
00:0000FC00 CC8C0000        	  7927: .long 0x00008CCC
00:0000FC04 7D8A0000        	  7928: .long 0x00008A7D
00:0000FC08 42880000        	  7929: .long 0x00008842
00:0000FC0C 18860000        	  7930: .long 0x00008618
00:0000FC10 FFFFFFFF        	  7931: .long 0xFFFFFFFF
00:0000FC14 00002200        	  7932: .long 0x00220000
00:0000FC18 00001100        	  7933: .long 0x00110000
00:0000FC1C 55550B00        	  7934: .long 0x000B5555
00:0000FC20 00800800        	  7935: .long 0x00088000
00:0000FC24 CCCC0600        	  7936: .long 0x0006CCCC
00:0000FC28 AAAA0500        	  7937: .long 0x0005AAAA
00:0000FC2C 6DDB0400        	  7938: .long 0x0004DB6D
00:0000FC30 00400400        	  7939: .long 0x00044000
00:0000FC34 1CC70300        	  7940: .long 0x0003C71C
00:0000FC38 66660300        	  7941: .long 0x00036666
00:0000FC3C 45170300        	  7942: .long 0x00031745
00:0000FC40 55D50200        	  7943: .long 0x0002D555
00:0000FC44 899D0200        	  7944: .long 0x00029D89
00:0000FC48 B66D0200        	  7945: .long 0x00026DB6
00:0000FC4C 44440200        	  7946: .long 0x00024444
00:0000FC50 00200200        	  7947: .long 0x00022000
00:0000FC54 00000200        	  7948: .long 0x00020000
00:0000FC58 8EE30100        	  7949: .long 0x0001E38E
00:0000FC5C 1ACA0100        	  7950: .long 0x0001CA1A
00:0000FC60 33B30100        	  7951: .long 0x0001B333
00:0000FC64 799E0100        	  7952: .long 0x00019E79
00:0000FC68 A28B0100        	  7953: .long 0x00018BA2
00:0000FC6C 6F7A0100        	  7954: .long 0x00017A6F
00:0000FC70 AA6A0100        	  7955: .long 0x00016AAA
00:0000FC74 285C0100        	  7956: .long 0x00015C28
00:0000FC78 C44E0100        	  7957: .long 0x00014EC4
00:0000FC7C 5E420100        	  7958: .long 0x0001425E
00:0000FC80 DB360100        	  7959: .long 0x000136DB
00:0000FC84 232C0100        	  7960: .long 0x00012C23
00:0000FC88 22220100        	  7961: .long 0x00012222
00:0000FC8C C6180100        	  7962: .long 0x000118C6
00:0000FC90 00100100        	  7963: .long 0x00011000
00:0000FC94 C1070100        	  7964: .long 0x000107C1
00:0000FC98 00000100        	  7965: .long 0x00010000
00:0000FC9C AFF80000        	  7966: .long 0x0000F8AF
00:0000FCA0 C7F10000        	  7967: .long 0x0000F1C7
00:0000FCA4 3EEB0000        	  7968: .long 0x0000EB3E
00:0000FCA8 0DE50000        	  7969: .long 0x0000E50D
00:0000FCAC 2DDF0000        	  7970: .long 0x0000DF2D
00:0000FCB0 99D90000        	  7971: .long 0x0000D999
00:0000FCB4 4AD40000        	  7972: .long 0x0000D44A
00:0000FCB8 3CCF0000        	  7973: .long 0x0000CF3C
00:0000FCBC 6BCA0000        	  7974: .long 0x0000CA6B
00:0000FCC0 D1C50000        	  7975: .long 0x0000C5D1
00:0000FCC4 6CC10000        	  7976: .long 0x0000C16C
00:0000FCC8 37BD0000        	  7977: .long 0x0000BD37
00:0000FCCC 31B90000        	  7978: .long 0x0000B931
00:0000FCD0 55B50000        	  7979: .long 0x0000B555
00:0000FCD4 A1B10000        	  7980: .long 0x0000B1A1
00:0000FCD8 14AE0000        	  7981: .long 0x0000AE14
00:0000FCDC AAAA0000        	  7982: .long 0x0000AAAA
00:0000FCE0 62A70000        	  7983: .long 0x0000A762
00:0000FCE4 39A40000        	  7984: .long 0x0000A439
00:0000FCE8 2FA10000        	  7985: .long 0x0000A12F
00:0000FCEC 419E0000        	  7986: .long 0x00009E41
00:0000FCF0 6D9B0000        	  7987: .long 0x00009B6D
00:0000FCF4 B3980000        	  7988: .long 0x000098B3
00:0000FCF8 11960000        	  7989: .long 0x00009611
00:0000FCFC 86930000        	  7990: .long 0x00009386
00:0000FD00 11910000        	  7991: .long 0x00009111
00:0000FD04 B08E0000        	  7992: .long 0x00008EB0
00:0000FD08 638C0000        	  7993: .long 0x00008C63
00:0000FD0C 288A0000        	  7994: .long 0x00008A28
00:0000FD10 FFFFFFFF        	  7995: .long 0xFFFFFFFF
00:0000FD14 00002300        	  7996: .long 0x00230000
00:0000FD18 00801100        	  7997: .long 0x00118000
00:0000FD1C AAAA0B00        	  7998: .long 0x000BAAAA
00:0000FD20 00C00800        	  7999: .long 0x0008C000
00:0000FD24 00000700        	  8000: .long 0x00070000
00:0000FD28 55D50500        	  8001: .long 0x0005D555
00:0000FD2C 00000500        	  8002: .long 0x00050000
00:0000FD30 00600400        	  8003: .long 0x00046000
00:0000FD34 8EE30300        	  8004: .long 0x0003E38E
00:0000FD38 00800300        	  8005: .long 0x00038000
00:0000FD3C 8B2E0300        	  8006: .long 0x00032E8B
00:0000FD40 AAEA0200        	  8007: .long 0x0002EAAA
00:0000FD44 3BB10200        	  8008: .long 0x0002B13B
00:0000FD48 00800200        	  8009: .long 0x00028000
00:0000FD4C 55550200        	  8010: .long 0x00025555
00:0000FD50 00300200        	  8011: .long 0x00023000
00:0000FD54 0F0F0200        	  8012: .long 0x00020F0F
00:0000FD58 C7F10100        	  8013: .long 0x0001F1C7
00:0000FD5C 94D70100        	  8014: .long 0x0001D794
00:0000FD60 00C00100        	  8015: .long 0x0001C000
00:0000FD64 AAAA0100        	  8016: .long 0x0001AAAA
00:0000FD68 45970100        	  8017: .long 0x00019745
00:0000FD6C 90850100        	  8018: .long 0x00018590
00:0000FD70 55750100        	  8019: .long 0x00017555
00:0000FD74 66660100        	  8020: .long 0x00016666
00:0000FD78 9D580100        	  8021: .long 0x0001589D
00:0000FD7C DA4B0100        	  8022: .long 0x00014BDA
00:0000FD80 00400100        	  8023: .long 0x00014000
00:0000FD84 F7340100        	  8024: .long 0x000134F7
00:0000FD88 AA2A0100        	  8025: .long 0x00012AAA
00:0000FD8C 08210100        	  8026: .long 0x00012108
00:0000FD90 00180100        	  8027: .long 0x00011800
00:0000FD94 830F0100        	  8028: .long 0x00010F83
00:0000FD98 87070100        	  8029: .long 0x00010787
00:0000FD9C 00000100        	  8030: .long 0x00010000
00:0000FDA0 E3F80000        	  8031: .long 0x0000F8E3
00:0000FDA4 29F20000        	  8032: .long 0x0000F229
00:0000FDA8 CAEB0000        	  8033: .long 0x0000EBCA
00:0000FDAC BEE50000        	  8034: .long 0x0000E5BE
00:0000FDB0 00E00000        	  8035: .long 0x0000E000
00:0000FDB4 89DA0000        	  8036: .long 0x0000DA89
00:0000FDB8 55D50000        	  8037: .long 0x0000D555
00:0000FDBC 5FD00000        	  8038: .long 0x0000D05F
00:0000FDC0 A2CB0000        	  8039: .long 0x0000CBA2
00:0000FDC4 1CC70000        	  8040: .long 0x0000C71C
00:0000FDC8 C8C20000        	  8041: .long 0x0000C2C8
00:0000FDCC A3BE0000        	  8042: .long 0x0000BEA3
00:0000FDD0 AABA0000        	  8043: .long 0x0000BAAA
00:0000FDD4 DBB60000        	  8044: .long 0x0000B6DB
00:0000FDD8 33B30000        	  8045: .long 0x0000B333
00:0000FDDC AFAF0000        	  8046: .long 0x0000AFAF
00:0000FDE0 4EAC0000        	  8047: .long 0x0000AC4E
00:0000FDE4 0EA90000        	  8048: .long 0x0000A90E
00:0000FDE8 EDA50000        	  8049: .long 0x0000A5ED
00:0000FDEC E8A20000        	  8050: .long 0x0000A2E8
00:0000FDF0 00A00000        	  8051: .long 0x0000A000
00:0000FDF4 319D0000        	  8052: .long 0x00009D31
00:0000FDF8 7B9A0000        	  8053: .long 0x00009A7B
00:0000FDFC DD970000        	  8054: .long 0x000097DD
00:0000FE00 55950000        	  8055: .long 0x00009555
00:0000FE04 E2920000        	  8056: .long 0x000092E2
00:0000FE08 84900000        	  8057: .long 0x00009084
00:0000FE0C 388E0000        	  8058: .long 0x00008E38
00:0000FE10 FFFFFFFF        	  8059: .long 0xFFFFFFFF
00:0000FE14 00002400        	  8060: .long 0x00240000
00:0000FE18 00001200        	  8061: .long 0x00120000
00:0000FE1C 00000C00        	  8062: .long 0x000C0000
00:0000FE20 00000900        	  8063: .long 0x00090000
00:0000FE24 33330700        	  8064: .long 0x00073333
00:0000FE28 00000600        	  8065: .long 0x00060000
00:0000FE2C 92240500        	  8066: .long 0x00052492
00:0000FE30 00800400        	  8067: .long 0x00048000
00:0000FE34 00000400        	  8068: .long 0x00040000
00:0000FE38 99990300        	  8069: .long 0x00039999
00:0000FE3C D1450300        	  8070: .long 0x000345D1
00:0000FE40 00000300        	  8071: .long 0x00030000
00:0000FE44 ECC40200        	  8072: .long 0x0002C4EC
00:0000FE48 49920200        	  8073: .long 0x00029249
00:0000FE4C 66660200        	  8074: .long 0x00026666
00:0000FE50 00400200        	  8075: .long 0x00024000
00:0000FE54 1E1E0200        	  8076: .long 0x00021E1E
00:0000FE58 00000200        	  8077: .long 0x00020000
00:0000FE5C 0DE50100        	  8078: .long 0x0001E50D
00:0000FE60 CCCC0100        	  8079: .long 0x0001CCCC
00:0000FE64 DBB60100        	  8080: .long 0x0001B6DB
00:0000FE68 E8A20100        	  8081: .long 0x0001A2E8
00:0000FE6C B2900100        	  8082: .long 0x000190B2
00:0000FE70 00800100        	  8083: .long 0x00018000
00:0000FE74 A3700100        	  8084: .long 0x000170A3
00:0000FE78 76620100        	  8085: .long 0x00016276
00:0000FE7C 55550100        	  8086: .long 0x00015555
00:0000FE80 24490100        	  8087: .long 0x00014924
00:0000FE84 CB3D0100        	  8088: .long 0x00013DCB
00:0000FE88 33330100        	  8089: .long 0x00013333
00:0000FE8C 4A290100        	  8090: .long 0x0001294A
00:0000FE90 00200100        	  8091: .long 0x00012000
00:0000FE94 45170100        	  8092: .long 0x00011745
00:0000FE98 0F0F0100        	  8093: .long 0x00010F0F
00:0000FE9C 50070100        	  8094: .long 0x00010750
00:0000FEA0 00000100        	  8095: .long 0x00010000
00:0000FEA4 14F90000        	  8096: .long 0x0000F914
00:0000FEA8 86F20000        	  8097: .long 0x0000F286
00:0000FEAC 4EEC0000        	  8098: .long 0x0000EC4E
00:0000FEB0 66E60000        	  8099: .long 0x0000E666
00:0000FEB4 C7E00000        	  8100: .long 0x0000E0C7
00:0000FEB8 6DDB0000        	  8101: .long 0x0000DB6D
00:0000FEBC 53D60000        	  8102: .long 0x0000D653
00:0000FEC0 74D10000        	  8103: .long 0x0000D174
00:0000FEC4 CCCC0000        	  8104: .long 0x0000CCCC
00:0000FEC8 59C80000        	  8105: .long 0x0000C859
00:0000FECC 15C40000        	  8106: .long 0x0000C415
00:0000FED0 00C00000        	  8107: .long 0x0000C000
00:0000FED4 14BC0000        	  8108: .long 0x0000BC14
00:0000FED8 51B80000        	  8109: .long 0x0000B851
00:0000FEDC B4B40000        	  8110: .long 0x0000B4B4
00:0000FEE0 3BB10000        	  8111: .long 0x0000B13B
00:0000FEE4 E3AD0000        	  8112: .long 0x0000ADE3
00:0000FEE8 AAAA0000        	  8113: .long 0x0000AAAA
00:0000FEEC 90A70000        	  8114: .long 0x0000A790
00:0000FEF0 92A40000        	  8115: .long 0x0000A492
00:0000FEF4 AFA10000        	  8116: .long 0x0000A1AF
00:0000FEF8 E59E0000        	  8117: .long 0x00009EE5
00:0000FEFC 349C0000        	  8118: .long 0x00009C34
00:0000FF00 99990000        	  8119: .long 0x00009999
00:0000FF04 14970000        	  8120: .long 0x00009714
00:0000FF08 A5940000        	  8121: .long 0x000094A5
00:0000FF0C 49920000        	  8122: .long 0x00009249
00:0000FF10 FFFFFFFF        	  8123: .long 0xFFFFFFFF
00:0000FF14 00002500        	  8124: .long 0x00250000
00:0000FF18 00801200        	  8125: .long 0x00128000
00:0000FF1C 55550C00        	  8126: .long 0x000C5555
00:0000FF20 00400900        	  8127: .long 0x00094000
00:0000FF24 66660700        	  8128: .long 0x00076666
00:0000FF28 AA2A0600        	  8129: .long 0x00062AAA
00:0000FF2C 24490500        	  8130: .long 0x00054924
00:0000FF30 00A00400        	  8131: .long 0x0004A000
00:0000FF34 711C0400        	  8132: .long 0x00041C71
00:0000FF38 33B30300        	  8133: .long 0x0003B333
00:0000FF3C 175D0300        	  8134: .long 0x00035D17
00:0000FF40 55150300        	  8135: .long 0x00031555
00:0000FF44 9DD80200        	  8136: .long 0x0002D89D
00:0000FF48 92A40200        	  8137: .long 0x0002A492
00:0000FF4C 77770200        	  8138: .long 0x00027777
00:0000FF50 00500200        	  8139: .long 0x00025000
00:0000FF54 2D2D0200        	  8140: .long 0x00022D2D
00:0000FF58 380E0200        	  8141: .long 0x00020E38
00:0000FF5C 86F20100        	  8142: .long 0x0001F286
00:0000FF60 99D90100        	  8143: .long 0x0001D999
00:0000FF64 0CC30100        	  8144: .long 0x0001C30C
00:0000FF68 8BAE0100        	  8145: .long 0x0001AE8B
00:0000FF6C D39B0100        	  8146: .long 0x00019BD3
00:0000FF70 AA8A0100        	  8147: .long 0x00018AAA
00:0000FF74 E17A0100        	  8148: .long 0x00017AE1
00:0000FF78 4E6C0100        	  8149: .long 0x00016C4E
00:0000FF7C D05E0100        	  8150: .long 0x00015ED0
00:0000FF80 49520100        	  8151: .long 0x00015249
00:0000FF84 9E460100        	  8152: .long 0x0001469E
00:0000FF88 BB3B0100        	  8153: .long 0x00013BBB
00:0000FF8C 8C310100        	  8154: .long 0x0001318C
00:0000FF90 00280100        	  8155: .long 0x00012800
00:0000FF94 071F0100        	  8156: .long 0x00011F07
00:0000FF98 96160100        	  8157: .long 0x00011696
00:0000FF9C A00E0100        	  8158: .long 0x00010EA0
00:0000FFA0 1C070100        	  8159: .long 0x0001071C
00:0000FFA4 00000100        	  8160: .long 0x00010000
00:0000FFA8 43F90000        	  8161: .long 0x0000F943
00:0000FFAC DFF20000        	  8162: .long 0x0000F2DF
00:0000FFB0 CCEC0000        	  8163: .long 0x0000ECCC
00:0000FFB4 06E70000        	  8164: .long 0x0000E706
00:0000FFB8 86E10000        	  8165: .long 0x0000E186
00:0000FFBC 47DC0000        	  8166: .long 0x0000DC47
00:0000FFC0 45D70000        	  8167: .long 0x0000D745
00:0000FFC4 7DD20000        	  8168: .long 0x0000D27D
00:0000FFC8 E9CD0000        	  8169: .long 0x0000CDE9
00:0000FFCC 88C90000        	  8170: .long 0x0000C988
00:0000FFD0 55C50000        	  8171: .long 0x0000C555
00:0000FFD4 4EC10000        	  8172: .long 0x0000C14E
00:0000FFD8 70BD0000        	  8173: .long 0x0000BD70
00:0000FFDC B9B90000        	  8174: .long 0x0000B9B9
00:0000FFE0 27B60000        	  8175: .long 0x0000B627
00:0000FFE4 B7B20000        	  8176: .long 0x0000B2B7
00:0000FFE8 68AF0000        	  8177: .long 0x0000AF68
00:0000FFEC 37AC0000        	  8178: .long 0x0000AC37
00:0000FFF0 24A90000        	  8179: .long 0x0000A924
00:0000FFF4 2CA60000        	  8180: .long 0x0000A62C
00:0000FFF8 4FA30000        	  8181: .long 0x0000A34F
00:0000FFFC 8AA00000        	  8182: .long 0x0000A08A
00:00010000 DD9D0000        	  8183: .long 0x00009DDD
00:00010004 479B0000        	  8184: .long 0x00009B47
00:00010008 C6980000        	  8185: .long 0x000098C6
00:0001000C 59960000        	  8186: .long 0x00009659
00:00010010 FFFFFFFF        	  8187: .long 0xFFFFFFFF
00:00010014 00002600        	  8188: .long 0x00260000
00:00010018 00001300        	  8189: .long 0x00130000
00:0001001C AAAA0C00        	  8190: .long 0x000CAAAA
00:00010020 00800900        	  8191: .long 0x00098000
00:00010024 99990700        	  8192: .long 0x00079999
00:00010028 55550600        	  8193: .long 0x00065555
00:0001002C B66D0500        	  8194: .long 0x00056DB6
00:00010030 00C00400        	  8195: .long 0x0004C000
00:00010034 E3380400        	  8196: .long 0x000438E3
00:00010038 CCCC0300        	  8197: .long 0x0003CCCC
00:0001003C 5D740300        	  8198: .long 0x0003745D
00:00010040 AA2A0300        	  8199: .long 0x00032AAA
00:00010044 4EEC0200        	  8200: .long 0x0002EC4E
00:00010048 DBB60200        	  8201: .long 0x0002B6DB
00:0001004C 88880200        	  8202: .long 0x00028888
00:00010050 00600200        	  8203: .long 0x00026000
00:00010054 3C3C0200        	  8204: .long 0x00023C3C
00:00010058 711C0200        	  8205: .long 0x00021C71
00:0001005C 00000200        	  8206: .long 0x00020000
00:00010060 66E60100        	  8207: .long 0x0001E666
00:00010064 3CCF0100        	  8208: .long 0x0001CF3C
00:00010068 2EBA0100        	  8209: .long 0x0001BA2E
00:0001006C F4A60100        	  8210: .long 0x0001A6F4
00:00010070 55950100        	  8211: .long 0x00019555
00:00010074 1E850100        	  8212: .long 0x0001851E
00:00010078 27760100        	  8213: .long 0x00017627
00:0001007C 4B680100        	  8214: .long 0x0001684B
00:00010080 6D5B0100        	  8215: .long 0x00015B6D
00:00010084 724F0100        	  8216: .long 0x00014F72
00:00010088 44440100        	  8217: .long 0x00014444
00:0001008C CE390100        	  8218: .long 0x000139CE
00:00010090 00300100        	  8219: .long 0x00013000
00:00010094 C9260100        	  8220: .long 0x000126C9
00:00010098 1E1E0100        	  8221: .long 0x00011E1E
00:0001009C F1150100        	  8222: .long 0x000115F1
00:000100A0 380E0100        	  8223: .long 0x00010E38
00:000100A4 EB060100        	  8224: .long 0x000106EB
00:000100A8 00000100        	  8225: .long 0x00010000
00:000100AC 6FF90000        	  8226: .long 0x0000F96F
00:000100B0 33F30000        	  8227: .long 0x0000F333
00:000100B4 44ED0000        	  8228: .long 0x0000ED44
00:000100B8 9EE70000        	  8229: .long 0x0000E79E
00:000100BC 3BE20000        	  8230: .long 0x0000E23B
00:000100C0 17DD0000        	  8231: .long 0x0000DD17
00:000100C4 2DD80000        	  8232: .long 0x0000D82D
00:000100C8 7AD30000        	  8233: .long 0x0000D37A
00:000100CC FACE0000        	  8234: .long 0x0000CEFA
00:000100D0 AACA0000        	  8235: .long 0x0000CAAA
00:000100D4 87C60000        	  8236: .long 0x0000C687
00:000100D8 8FC20000        	  8237: .long 0x0000C28F
00:000100DC BEBE0000        	  8238: .long 0x0000BEBE
00:000100E0 13BB0000        	  8239: .long 0x0000BB13
00:000100E4 8CB70000        	  8240: .long 0x0000B78C
00:000100E8 25B40000        	  8241: .long 0x0000B425
00:000100EC DFB00000        	  8242: .long 0x0000B0DF
00:000100F0 B6AD0000        	  8243: .long 0x0000ADB6
00:000100F4 AAAA0000        	  8244: .long 0x0000AAAA
00:000100F8 B9A70000        	  8245: .long 0x0000A7B9
00:000100FC E1A40000        	  8246: .long 0x0000A4E1
00:00010100 22A20000        	  8247: .long 0x0000A222
00:00010104 799F0000        	  8248: .long 0x00009F79
00:00010108 E79C0000        	  8249: .long 0x00009CE7
00:0001010C 699A0000        	  8250: .long 0x00009A69
00:00010110 FFFFFFFF        	  8251: .long 0xFFFFFFFF
00:00010114 00002700        	  8252: .long 0x00270000
00:00010118 00801300        	  8253: .long 0x00138000
00:0001011C 00000D00        	  8254: .long 0x000D0000
00:00010120 00C00900        	  8255: .long 0x0009C000
00:00010124 CCCC0700        	  8256: .long 0x0007CCCC
00:00010128 00800600        	  8257: .long 0x00068000
00:0001012C 49920500        	  8258: .long 0x00059249
00:00010130 00E00400        	  8259: .long 0x0004E000
00:00010134 55550400        	  8260: .long 0x00045555
00:00010138 66E60300        	  8261: .long 0x0003E666
00:0001013C A28B0300        	  8262: .long 0x00038BA2
00:00010140 00400300        	  8263: .long 0x00034000
00:00010144 00000300        	  8264: .long 0x00030000
00:00010148 24C90200        	  8265: .long 0x0002C924
00:0001014C 99990200        	  8266: .long 0x00029999
00:00010150 00700200        	  8267: .long 0x00027000
00:00010154 4B4B0200        	  8268: .long 0x00024B4B
00:00010158 AA2A0200        	  8269: .long 0x00022AAA
00:0001015C 790D0200        	  8270: .long 0x00020D79
00:00010160 33F30100        	  8271: .long 0x0001F333
00:00010164 6DDB0100        	  8272: .long 0x0001DB6D
00:00010168 D1C50100        	  8273: .long 0x0001C5D1
00:0001016C 16B20100        	  8274: .long 0x0001B216
00:00010170 00A00100        	  8275: .long 0x0001A000
00:00010174 5C8F0100        	  8276: .long 0x00018F5C
00:00010178 00800100        	  8277: .long 0x00018000
00:0001017C C7710100        	  8278: .long 0x000171C7
00:00010180 92640100        	  8279: .long 0x00016492
00:00010184 46580100        	  8280: .long 0x00015846
00:00010188 CC4C0100        	  8281: .long 0x00014CCC
00:0001018C 10420100        	  8282: .long 0x00014210
00:00010190 00380100        	  8283: .long 0x00013800
00:00010194 8B2E0100        	  8284: .long 0x00012E8B
00:00010198 A5250100        	  8285: .long 0x000125A5
00:0001019C 411D0100        	  8286: .long 0x00011D41
00:000101A0 55150100        	  8287: .long 0x00011555
00:000101A4 D60D0100        	  8288: .long 0x00010DD6
00:000101A8 BC060100        	  8289: .long 0x000106BC
00:000101AC 00000100        	  8290: .long 0x00010000
00:000101B0 99F90000        	  8291: .long 0x0000F999
00:000101B4 83F30000        	  8292: .long 0x0000F383
00:000101B8 B6ED0000        	  8293: .long 0x0000EDB6
00:000101BC 2FE80000        	  8294: .long 0x0000E82F
00:000101C0 E8E20000        	  8295: .long 0x0000E2E8
00:000101C4 DDDD0000        	  8296: .long 0x0000DDDD
00:000101C8 0BD90000        	  8297: .long 0x0000D90B
00:000101CC 6CD40000        	  8298: .long 0x0000D46C
00:000101D0 00D00000        	  8299: .long 0x0000D000
00:000101D4 C1CB0000        	  8300: .long 0x0000CBC1
00:000101D8 AEC70000        	  8301: .long 0x0000C7AE
00:000101DC C3C30000        	  8302: .long 0x0000C3C3
00:000101E0 00C00000        	  8303: .long 0x0000C000
00:000101E4 60BC0000        	  8304: .long 0x0000BC60
00:000101E8 E3B80000        	  8305: .long 0x0000B8E3
00:000101EC 86B50000        	  8306: .long 0x0000B586
00:000101F0 49B20000        	  8307: .long 0x0000B249
00:000101F4 28AF0000        	  8308: .long 0x0000AF28
00:000101F8 23AC0000        	  8309: .long 0x0000AC23
00:000101FC 38A90000        	  8310: .long 0x0000A938
00:00010200 66A60000        	  8311: .long 0x0000A666
00:00010204 ACA30000        	  8312: .long 0x0000A3AC
00:00010208 08A10000        	  8313: .long 0x0000A108
00:0001020C 799E0000        	  8314: .long 0x00009E79
00:00010210 FFFFFFFF        	  8315: .long 0xFFFFFFFF
00:00010214 00002800        	  8316: .long 0x00280000
00:00010218 00001400        	  8317: .long 0x00140000
00:0001021C 55550D00        	  8318: .long 0x000D5555
00:00010220 00000A00        	  8319: .long 0x000A0000
00:00010224 00000800        	  8320: .long 0x00080000
00:00010228 AAAA0600        	  8321: .long 0x0006AAAA
00:0001022C DBB60500        	  8322: .long 0x0005B6DB
00:00010230 00000500        	  8323: .long 0x00050000
00:00010234 C7710400        	  8324: .long 0x000471C7
00:00010238 00000400        	  8325: .long 0x00040000
00:0001023C E8A20300        	  8326: .long 0x0003A2E8
00:00010240 55550300        	  8327: .long 0x00035555
00:00010244 B1130300        	  8328: .long 0x000313B1
00:00010248 6DDB0200        	  8329: .long 0x0002DB6D
00:0001024C AAAA0200        	  8330: .long 0x0002AAAA
00:00010250 00800200        	  8331: .long 0x00028000
00:00010254 5A5A0200        	  8332: .long 0x00025A5A
00:00010258 E3380200        	  8333: .long 0x000238E3
00:0001025C F21A0200        	  8334: .long 0x00021AF2
00:00010260 00000200        	  8335: .long 0x00020000
00:00010264 9EE70100        	  8336: .long 0x0001E79E
00:00010268 74D10100        	  8337: .long 0x0001D174
00:0001026C 37BD0100        	  8338: .long 0x0001BD37
00:00010270 AAAA0100        	  8339: .long 0x0001AAAA
00:00010274 99990100        	  8340: .long 0x00019999
00:00010278 D8890100        	  8341: .long 0x000189D8
00:0001027C 427B0100        	  8342: .long 0x00017B42
00:00010280 B66D0100        	  8343: .long 0x00016DB6
00:00010284 1A610100        	  8344: .long 0x0001611A
00:00010288 55550100        	  8345: .long 0x00015555
00:0001028C 524A0100        	  8346: .long 0x00014A52
00:00010290 00400100        	  8347: .long 0x00014000
00:00010294 4D360100        	  8348: .long 0x0001364D
00:00010298 2D2D0100        	  8349: .long 0x00012D2D
00:0001029C 92240100        	  8350: .long 0x00012492
00:000102A0 711C0100        	  8351: .long 0x00011C71
00:000102A4 C1140100        	  8352: .long 0x000114C1
00:000102A8 790D0100        	  8353: .long 0x00010D79
00:000102AC 90060100        	  8354: .long 0x00010690
00:000102B0 00000100        	  8355: .long 0x00010000
00:000102B4 C1F90000        	  8356: .long 0x0000F9C1
00:000102B8 CFF30000        	  8357: .long 0x0000F3CF
00:000102BC 23EE0000        	  8358: .long 0x0000EE23
00:000102C0 BAE80000        	  8359: .long 0x0000E8BA
00:000102C4 8EE30000        	  8360: .long 0x0000E38E
00:000102C8 9BDE0000        	  8361: .long 0x0000DE9B
00:000102CC DFD90000        	  8362: .long 0x0000D9DF
00:000102D0 55D50000        	  8363: .long 0x0000D555
00:000102D4 FAD00000        	  8364: .long 0x0000D0FA
00:000102D8 CCCC0000        	  8365: .long 0x0000CCCC
00:000102DC C8C80000        	  8366: .long 0x0000C8C8
00:000102E0 ECC40000        	  8367: .long 0x0000C4EC
00:000102E4 35C10000        	  8368: .long 0x0000C135
00:000102E8 A1BD0000        	  8369: .long 0x0000BDA1
00:000102EC 2EBA0000        	  8370: .long 0x0000BA2E
00:000102F0 DBB60000        	  8371: .long 0x0000B6DB
00:000102F4 A6B30000        	  8372: .long 0x0000B3A6
00:000102F8 8DB00000        	  8373: .long 0x0000B08D
00:000102FC 8FAD0000        	  8374: .long 0x0000AD8F
00:00010300 AAAA0000        	  8375: .long 0x0000AAAA
00:00010304 DEA70000        	  8376: .long 0x0000A7DE
00:00010308 29A50000        	  8377: .long 0x0000A529
00:0001030C 8AA20000        	  8378: .long 0x0000A28A
00:00010310 FFFFFFFF        	  8379: .long 0xFFFFFFFF
00:00010314 00002900        	  8380: .long 0x00290000
00:00010318 00801400        	  8381: .long 0x00148000
00:0001031C AAAA0D00        	  8382: .long 0x000DAAAA
00:00010320 00400A00        	  8383: .long 0x000A4000
00:00010324 33330800        	  8384: .long 0x00083333
00:00010328 55D50600        	  8385: .long 0x0006D555
00:0001032C 6DDB0500        	  8386: .long 0x0005DB6D
00:00010330 00200500        	  8387: .long 0x00052000
00:00010334 388E0400        	  8388: .long 0x00048E38
00:00010338 99190400        	  8389: .long 0x00041999
00:0001033C 2EBA0300        	  8390: .long 0x0003BA2E
00:00010340 AA6A0300        	  8391: .long 0x00036AAA
00:00010344 62270300        	  8392: .long 0x00032762
00:00010348 B6ED0200        	  8393: .long 0x0002EDB6
00:0001034C BBBB0200        	  8394: .long 0x0002BBBB
00:00010350 00900200        	  8395: .long 0x00029000
00:00010354 69690200        	  8396: .long 0x00026969
00:00010358 1C470200        	  8397: .long 0x0002471C
00:0001035C 6B280200        	  8398: .long 0x0002286B
00:00010360 CC0C0200        	  8399: .long 0x00020CCC
00:00010364 CFF30100        	  8400: .long 0x0001F3CF
00:00010368 17DD0100        	  8401: .long 0x0001DD17
00:0001036C 59C80100        	  8402: .long 0x0001C859
00:00010370 55B50100        	  8403: .long 0x0001B555
00:00010374 D7A30100        	  8404: .long 0x0001A3D7
00:00010378 B1930100        	  8405: .long 0x000193B1
00:0001037C BD840100        	  8406: .long 0x000184BD
00:00010380 DB760100        	  8407: .long 0x000176DB
00:00010384 EE690100        	  8408: .long 0x000169EE
00:00010388 DD5D0100        	  8409: .long 0x00015DDD
00:0001038C 94520100        	  8410: .long 0x00015294
00:00010390 00480100        	  8411: .long 0x00014800
00:00010394 0F3E0100        	  8412: .long 0x00013E0F
00:00010398 B4340100        	  8413: .long 0x000134B4
00:0001039C E22B0100        	  8414: .long 0x00012BE2
00:000103A0 8E230100        	  8415: .long 0x0001238E
00:000103A4 AC1B0100        	  8416: .long 0x00011BAC
00:000103A8 35140100        	  8417: .long 0x00011435
00:000103AC 200D0100        	  8418: .long 0x00010D20
00:000103B0 66060100        	  8419: .long 0x00010666
00:000103B4 00000100        	  8420: .long 0x00010000
00:000103B8 E7F90000        	  8421: .long 0x0000F9E7
00:000103BC 17F40000        	  8422: .long 0x0000F417
00:000103C0 8BEE0000        	  8423: .long 0x0000EE8B
00:000103C4 3EE90000        	  8424: .long 0x0000E93E
00:000103C8 2CE40000        	  8425: .long 0x0000E42C
00:000103CC 51DF0000        	  8426: .long 0x0000DF51
00:000103D0 AADA0000        	  8427: .long 0x0000DAAA
00:000103D4 34D60000        	  8428: .long 0x0000D634
00:000103D8 EBD10000        	  8429: .long 0x0000D1EB
00:000103DC CDCD0000        	  8430: .long 0x0000CDCD
00:000103E0 D8C90000        	  8431: .long 0x0000C9D8
00:000103E4 09C60000        	  8432: .long 0x0000C609
00:000103E8 5EC20000        	  8433: .long 0x0000C25E
00:000103EC D6BE0000        	  8434: .long 0x0000BED6
00:000103F0 6DBB0000        	  8435: .long 0x0000BB6D
00:000103F4 23B80000        	  8436: .long 0x0000B823
00:000103F8 F7B40000        	  8437: .long 0x0000B4F7
00:000103FC E5B10000        	  8438: .long 0x0000B1E5
00:00010400 EEAE0000        	  8439: .long 0x0000AEEE
00:00010404 10AC0000        	  8440: .long 0x0000AC10
00:00010408 4AA90000        	  8441: .long 0x0000A94A
00:0001040C 9AA60000        	  8442: .long 0x0000A69A
00:00010410 FFFFFFFF        	  8443: .long 0xFFFFFFFF
00:00010414 00002A00        	  8444: .long 0x002A0000
00:00010418 00001500        	  8445: .long 0x00150000
00:0001041C 00000E00        	  8446: .long 0x000E0000
00:00010420 00800A00        	  8447: .long 0x000A8000
00:00010424 66660800        	  8448: .long 0x00086666
00:00010428 00000700        	  8449: .long 0x00070000
00:0001042C 00000600        	  8450: .long 0x00060000
00:00010430 00400500        	  8451: .long 0x00054000
00:00010434 AAAA0400        	  8452: .long 0x0004AAAA
00:00010438 33330400        	  8453: .long 0x00043333
00:0001043C 74D10300        	  8454: .long 0x0003D174
00:00010440 00800300        	  8455: .long 0x00038000
00:00010444 133B0300        	  8456: .long 0x00033B13
00:00010448 00000300        	  8457: .long 0x00030000
00:0001044C CCCC0200        	  8458: .long 0x0002CCCC
00:00010450 00A00200        	  8459: .long 0x0002A000
00:00010454 78780200        	  8460: .long 0x00027878
00:00010458 55550200        	  8461: .long 0x00025555
00:0001045C E5350200        	  8462: .long 0x000235E5
00:00010460 99190200        	  8463: .long 0x00021999
00:00010464 00000200        	  8464: .long 0x00020000
00:00010468 BAE80100        	  8465: .long 0x0001E8BA
00:0001046C 7AD30100        	  8466: .long 0x0001D37A
00:00010470 00C00100        	  8467: .long 0x0001C000
00:00010474 14AE0100        	  8468: .long 0x0001AE14
00:00010478 899D0100        	  8469: .long 0x00019D89
00:0001047C 388E0100        	  8470: .long 0x00018E38
00:00010480 00800100        	  8471: .long 0x00018000
00:00010484 C2720100        	  8472: .long 0x000172C2
00:00010488 66660100        	  8473: .long 0x00016666
00:0001048C D65A0100        	  8474: .long 0x00015AD6
00:00010490 00500100        	  8475: .long 0x00015000
00:00010494 D1450100        	  8476: .long 0x000145D1
00:00010498 3C3C0100        	  8477: .long 0x00013C3C
00:0001049C 33330100        	  8478: .long 0x00013333
00:000104A0 AA2A0100        	  8479: .long 0x00012AAA
00:000104A4 98220100        	  8480: .long 0x00012298
00:000104A8 F21A0100        	  8481: .long 0x00011AF2
00:000104AC B1130100        	  8482: .long 0x000113B1
00:000104B0 CC0C0100        	  8483: .long 0x00010CCC
00:000104B4 3E060100        	  8484: .long 0x0001063E
00:000104B8 00000100        	  8485: .long 0x00010000
00:000104BC 0BFA0000        	  8486: .long 0x0000FA0B
00:000104C0 5DF40000        	  8487: .long 0x0000F45D
00:000104C4 EEEE0000        	  8488: .long 0x0000EEEE
00:000104C8 BDE90000        	  8489: .long 0x0000E9BD
00:000104CC C4E40000        	  8490: .long 0x0000E4C4
00:000104D0 00E00000        	  8491: .long 0x0000E000
00:000104D4 6DDB0000        	  8492: .long 0x0000DB6D
00:000104D8 0AD70000        	  8493: .long 0x0000D70A
00:000104DC D2D20000        	  8494: .long 0x0000D2D2
00:000104E0 C4CE0000        	  8495: .long 0x0000CEC4
00:000104E4 DECA0000        	  8496: .long 0x0000CADE
00:000104E8 1CC70000        	  8497: .long 0x0000C71C
00:000104EC 7DC30000        	  8498: .long 0x0000C37D
00:000104F0 00C00000        	  8499: .long 0x0000C000
00:000104F4 A1BC0000        	  8500: .long 0x0000BCA1
00:000104F8 61B90000        	  8501: .long 0x0000B961
00:000104FC 3CB60000        	  8502: .long 0x0000B63C
00:00010500 33B30000        	  8503: .long 0x0000B333
00:00010504 43B00000        	  8504: .long 0x0000B043
00:00010508 6BAD0000        	  8505: .long 0x0000AD6B
00:0001050C AAAA0000        	  8506: .long 0x0000AAAA
00:00010510 FFFFFFFF        	  8507: .long 0xFFFFFFFF
00:00010514 00002B00        	  8508: .long 0x002B0000
00:00010518 00801500        	  8509: .long 0x00158000
00:0001051C 55550E00        	  8510: .long 0x000E5555
00:00010520 00C00A00        	  8511: .long 0x000AC000
00:00010524 99990800        	  8512: .long 0x00089999
00:00010528 AA2A0700        	  8513: .long 0x00072AAA
00:0001052C 92240600        	  8514: .long 0x00062492
00:00010530 00600500        	  8515: .long 0x00056000
00:00010534 1CC70400        	  8516: .long 0x0004C71C
00:00010538 CC4C0400        	  8517: .long 0x00044CCC
00:0001053C BAE80300        	  8518: .long 0x0003E8BA
00:00010540 55950300        	  8519: .long 0x00039555
00:00010544 C44E0300        	  8520: .long 0x00034EC4
00:00010548 49120300        	  8521: .long 0x00031249
00:0001054C DDDD0200        	  8522: .long 0x0002DDDD
00:00010550 00B00200        	  8523: .long 0x0002B000
00:00010554 87870200        	  8524: .long 0x00028787
00:00010558 8E630200        	  8525: .long 0x0002638E
00:0001055C 5E430200        	  8526: .long 0x0002435E
00:00010560 66260200        	  8527: .long 0x00022666
00:00010564 300C0200        	  8528: .long 0x00020C30
00:00010568 5DF40100        	  8529: .long 0x0001F45D
00:0001056C 9BDE0100        	  8530: .long 0x0001DE9B
00:00010570 AACA0100        	  8531: .long 0x0001CAAA
00:00010574 51B80100        	  8532: .long 0x0001B851
00:00010578 62A70100        	  8533: .long 0x0001A762
00:0001057C B4970100        	  8534: .long 0x000197B4
00:00010580 24890100        	  8535: .long 0x00018924
00:00010584 967B0100        	  8536: .long 0x00017B96
00:00010588 EE6E0100        	  8537: .long 0x00016EEE
00:0001058C 18630100        	  8538: .long 0x00016318
00:00010590 00580100        	  8539: .long 0x00015800
00:00010594 934D0100        	  8540: .long 0x00014D93
00:00010598 C3430100        	  8541: .long 0x000143C3
00:0001059C 833A0100        	  8542: .long 0x00013A83
00:000105A0 C7310100        	  8543: .long 0x000131C7
00:000105A4 83290100        	  8544: .long 0x00012983
00:000105A8 AF210100        	  8545: .long 0x000121AF
00:000105AC 411A0100        	  8546: .long 0x00011A41
00:000105B0 33130100        	  8547: .long 0x00011333
00:000105B4 7C0C0100        	  8548: .long 0x00010C7C
00:000105B8 18060100        	  8549: .long 0x00010618
00:000105BC 00000100        	  8550: .long 0x00010000
00:000105C0 2EFA0000        	  8551: .long 0x0000FA2E
00:000105C4 9FF40000        	  8552: .long 0x0000F49F
00:000105C8 4DEF0000        	  8553: .long 0x0000EF4D
00:000105CC 36EA0000        	  8554: .long 0x0000EA36
00:000105D0 55E50000        	  8555: .long 0x0000E555
00:000105D4 A7E00000        	  8556: .long 0x0000E0A7
00:000105D8 28DC0000        	  8557: .long 0x0000DC28
00:000105DC D7D70000        	  8558: .long 0x0000D7D7
00:000105E0 B1D30000        	  8559: .long 0x0000D3B1
00:000105E4 B2CF0000        	  8560: .long 0x0000CFB2
00:000105E8 DACB0000        	  8561: .long 0x0000CBDA
00:000105EC 25C80000        	  8562: .long 0x0000C825
00:000105F0 92C40000        	  8563: .long 0x0000C492
00:000105F4 1FC10000        	  8564: .long 0x0000C11F
00:000105F8 CBBD0000        	  8565: .long 0x0000BDCB
00:000105FC 93BA0000        	  8566: .long 0x0000BA93
00:00010600 77B70000        	  8567: .long 0x0000B777
00:00010604 75B40000        	  8568: .long 0x0000B475
00:00010608 8CB10000        	  8569: .long 0x0000B18C
00:0001060C BAAE0000        	  8570: .long 0x0000AEBA
00:00010610 FFFFFFFF        	  8571: .long 0xFFFFFFFF
00:00010614 00002C00        	  8572: .long 0x002C0000
00:00010618 00001600        	  8573: .long 0x00160000
00:0001061C AAAA0E00        	  8574: .long 0x000EAAAA
00:00010620 00000B00        	  8575: .long 0x000B0000
00:00010624 CCCC0800        	  8576: .long 0x0008CCCC
00:00010628 55550700        	  8577: .long 0x00075555
00:0001062C 24490600        	  8578: .long 0x00064924
00:00010630 00800500        	  8579: .long 0x00058000
00:00010634 8EE30400        	  8580: .long 0x0004E38E
00:00010638 66660400        	  8581: .long 0x00046666
00:0001063C 00000400        	  8582: .long 0x00040000
00:00010640 AAAA0300        	  8583: .long 0x0003AAAA
00:00010644 76620300        	  8584: .long 0x00036276
00:00010648 92240300        	  8585: .long 0x00032492
00:0001064C EEEE0200        	  8586: .long 0x0002EEEE
00:00010650 00C00200        	  8587: .long 0x0002C000
00:00010654 96960200        	  8588: .long 0x00029696
00:00010658 C7710200        	  8589: .long 0x000271C7
00:0001065C D7500200        	  8590: .long 0x000250D7
00:00010660 33330200        	  8591: .long 0x00023333
00:00010664 61180200        	  8592: .long 0x00021861
00:00010668 00000200        	  8593: .long 0x00020000
00:0001066C BDE90100        	  8594: .long 0x0001E9BD
00:00010670 55D50100        	  8595: .long 0x0001D555
00:00010674 8FC20100        	  8596: .long 0x0001C28F
00:00010678 3BB10100        	  8597: .long 0x0001B13B
00:0001067C 2FA10100        	  8598: .long 0x0001A12F
00:00010680 49920100        	  8599: .long 0x00019249
00:00010684 69840100        	  8600: .long 0x00018469
00:00010688 77770100        	  8601: .long 0x00017777
00:0001068C 5A6B0100        	  8602: .long 0x00016B5A
00:00010690 00600100        	  8603: .long 0x00016000
00:00010694 55550100        	  8604: .long 0x00015555
00:00010698 4B4B0100        	  8605: .long 0x00014B4B
00:0001069C D4410100        	  8606: .long 0x000141D4
00:000106A0 E3380100        	  8607: .long 0x000138E3
00:000106A4 6E300100        	  8608: .long 0x0001306E
00:000106A8 6B280100        	  8609: .long 0x0001286B
00:000106AC D2200100        	  8610: .long 0x000120D2
00:000106B0 99190100        	  8611: .long 0x00011999
00:000106B4 BB120100        	  8612: .long 0x000112BB
00:000106B8 300C0100        	  8613: .long 0x00010C30
00:000106BC F4050100        	  8614: .long 0x000105F4
00:000106C0 00000100        	  8615: .long 0x00010000
00:000106C4 4FFA0000        	  8616: .long 0x0000FA4F
00:000106C8 DEF40000        	  8617: .long 0x0000F4DE
00:000106CC A8EF0000        	  8618: .long 0x0000EFA8
00:000106D0 AAEA0000        	  8619: .long 0x0000EAAA
00:000106D4 E0E50000        	  8620: .long 0x0000E5E0
00:000106D8 47E10000        	  8621: .long 0x0000E147
00:000106DC DCDC0000        	  8622: .long 0x0000DCDC
00:000106E0 9DD80000        	  8623: .long 0x0000D89D
00:000106E4 87D40000        	  8624: .long 0x0000D487
00:000106E8 97D00000        	  8625: .long 0x0000D097
00:000106EC CCCC0000        	  8626: .long 0x0000CCCC
00:000106F0 24C90000        	  8627: .long 0x0000C924
00:000106F4 9DC50000        	  8628: .long 0x0000C59D
00:000106F8 34C20000        	  8629: .long 0x0000C234
00:000106FC EABE0000        	  8630: .long 0x0000BEEA
00:00010700 BBBB0000        	  8631: .long 0x0000BBBB
00:00010704 A7B80000        	  8632: .long 0x0000B8A7
00:00010708 ADB50000        	  8633: .long 0x0000B5AD
00:0001070C CBB20000        	  8634: .long 0x0000B2CB
00:00010710 FFFFFFFF        	  8635: .long 0xFFFFFFFF
00:00010714 00002D00        	  8636: .long 0x002D0000
00:00010718 00801600        	  8637: .long 0x00168000
00:0001071C 00000F00        	  8638: .long 0x000F0000
00:00010720 00400B00        	  8639: .long 0x000B4000
00:00010724 00000900        	  8640: .long 0x00090000
00:00010728 00800700        	  8641: .long 0x00078000
00:0001072C B66D0600        	  8642: .long 0x00066DB6
00:00010730 00A00500        	  8643: .long 0x0005A000
00:00010734 00000500        	  8644: .long 0x00050000
00:00010738 00800400        	  8645: .long 0x00048000
00:0001073C 45170400        	  8646: .long 0x00041745
00:00010740 00C00300        	  8647: .long 0x0003C000
00:00010744 27760300        	  8648: .long 0x00037627
00:00010748 DB360300        	  8649: .long 0x000336DB
00:0001074C 00000300        	  8650: .long 0x00030000
00:00010750 00D00200        	  8651: .long 0x0002D000
00:00010754 A5A50200        	  8652: .long 0x0002A5A5
00:00010758 00800200        	  8653: .long 0x00028000
00:0001075C 505E0200        	  8654: .long 0x00025E50
00:00010760 00400200        	  8655: .long 0x00024000
00:00010764 92240200        	  8656: .long 0x00022492
00:00010768 A20B0200        	  8657: .long 0x00020BA2
00:0001076C DEF40100        	  8658: .long 0x0001F4DE
00:00010770 00E00100        	  8659: .long 0x0001E000
00:00010774 CCCC0100        	  8660: .long 0x0001CCCC
00:00010778 13BB0100        	  8661: .long 0x0001BB13
00:0001077C AAAA0100        	  8662: .long 0x0001AAAA
00:00010780 6D9B0100        	  8663: .long 0x00019B6D
00:00010784 3D8D0100        	  8664: .long 0x00018D3D
00:00010788 00800100        	  8665: .long 0x00018000
00:0001078C 9C730100        	  8666: .long 0x0001739C
00:00010790 00680100        	  8667: .long 0x00016800
00:00010794 175D0100        	  8668: .long 0x00015D17
00:00010798 D2520100        	  8669: .long 0x000152D2
00:0001079C 24490100        	  8670: .long 0x00014924
00:000107A0 00400100        	  8671: .long 0x00014000
00:000107A4 59370100        	  8672: .long 0x00013759
00:000107A8 282F0100        	  8673: .long 0x00012F28
00:000107AC 62270100        	  8674: .long 0x00012762
00:000107B0 00200100        	  8675: .long 0x00012000
00:000107B4 F9180100        	  8676: .long 0x000118F9
00:000107B8 49120100        	  8677: .long 0x00011249
00:000107BC E80B0100        	  8678: .long 0x00010BE8
00:000107C0 D1050100        	  8679: .long 0x000105D1
00:000107C4 00000100        	  8680: .long 0x00010000
00:000107C8 6FFA0000        	  8681: .long 0x0000FA6F
00:000107CC 1BF50000        	  8682: .long 0x0000F51B
00:000107D0 00F00000        	  8683: .long 0x0000F000
00:000107D4 1AEB0000        	  8684: .long 0x0000EB1A
00:000107D8 66E60000        	  8685: .long 0x0000E666
00:000107DC E1E10000        	  8686: .long 0x0000E1E1
00:000107E0 89DD0000        	  8687: .long 0x0000DD89
00:000107E4 5BD90000        	  8688: .long 0x0000D95B
00:000107E8 55D50000        	  8689: .long 0x0000D555
00:000107EC 74D10000        	  8690: .long 0x0000D174
00:000107F0 B6CD0000        	  8691: .long 0x0000CDB6
00:000107F4 1ACA0000        	  8692: .long 0x0000CA1A
00:000107F8 9EC60000        	  8693: .long 0x0000C69E
00:000107FC 41C30000        	  8694: .long 0x0000C341
00:00010800 00C00000        	  8695: .long 0x0000C000
00:00010804 DABC0000        	  8696: .long 0x0000BCDA
00:00010808 CEB90000        	  8697: .long 0x0000B9CE
00:0001080C DBB60000        	  8698: .long 0x0000B6DB
00:00010810 FFFFFFFF        	  8699: .long 0xFFFFFFFF
00:00010814 00002E00        	  8700: .long 0x002E0000
00:00010818 00001700        	  8701: .long 0x00170000
00:0001081C 55550F00        	  8702: .long 0x000F5555
00:00010820 00800B00        	  8703: .long 0x000B8000
00:00010824 33330900        	  8704: .long 0x00093333
00:00010828 AAAA0700        	  8705: .long 0x0007AAAA
00:0001082C 49920600        	  8706: .long 0x00069249
00:00010830 00C00500        	  8707: .long 0x0005C000
00:00010834 711C0500        	  8708: .long 0x00051C71
00:00010838 99990400        	  8709: .long 0x00049999
00:0001083C 8B2E0400        	  8710: .long 0x00042E8B
00:00010840 55D50300        	  8711: .long 0x0003D555
00:00010844 D8890300        	  8712: .long 0x000389D8
00:00010848 24490300        	  8713: .long 0x00034924
00:0001084C 11110300        	  8714: .long 0x00031111
00:00010850 00E00200        	  8715: .long 0x0002E000
00:00010854 B4B40200        	  8716: .long 0x0002B4B4
00:00010858 388E0200        	  8717: .long 0x00028E38
00:0001085C CA6B0200        	  8718: .long 0x00026BCA
00:00010860 CC4C0200        	  8719: .long 0x00024CCC
00:00010864 C3300200        	  8720: .long 0x000230C3
00:00010868 45170200        	  8721: .long 0x00021745
00:0001086C 00000200        	  8722: .long 0x00020000
00:00010870 AAEA0100        	  8723: .long 0x0001EAAA
00:00010874 0AD70100        	  8724: .long 0x0001D70A
00:00010878 ECC40100        	  8725: .long 0x0001C4EC
00:0001087C 25B40100        	  8726: .long 0x0001B425
00:00010880 92A40100        	  8727: .long 0x0001A492
00:00010884 11960100        	  8728: .long 0x00019611
00:00010888 88880100        	  8729: .long 0x00018888
00:0001088C DE7B0100        	  8730: .long 0x00017BDE
00:00010890 00700100        	  8731: .long 0x00017000
00:00010894 D9640100        	  8732: .long 0x000164D9
00:00010898 5A5A0100        	  8733: .long 0x00015A5A
00:0001089C 75500100        	  8734: .long 0x00015075
00:000108A0 1C470100        	  8735: .long 0x0001471C
00:000108A4 453E0100        	  8736: .long 0x00013E45
00:000108A8 E5350100        	  8737: .long 0x000135E5
00:000108AC F22D0100        	  8738: .long 0x00012DF2
00:000108B0 66260100        	  8739: .long 0x00012666
00:000108B4 381F0100        	  8740: .long 0x00011F38
00:000108B8 61180100        	  8741: .long 0x00011861
00:000108BC DC110100        	  8742: .long 0x000111DC
00:000108C0 A20B0100        	  8743: .long 0x00010BA2
00:000108C4 B0050100        	  8744: .long 0x000105B0
00:000108C8 00000100        	  8745: .long 0x00010000
00:000108CC 8DFA0000        	  8746: .long 0x0000FA8D
00:000108D0 55F50000        	  8747: .long 0x0000F555
00:000108D4 53F00000        	  8748: .long 0x0000F053
00:000108D8 85EB0000        	  8749: .long 0x0000EB85
00:000108DC E6E60000        	  8750: .long 0x0000E6E6
00:000108E0 76E20000        	  8751: .long 0x0000E276
00:000108E4 30DE0000        	  8752: .long 0x0000DE30
00:000108E8 12DA0000        	  8753: .long 0x0000DA12
00:000108EC 1BD60000        	  8754: .long 0x0000D61B
00:000108F0 49D20000        	  8755: .long 0x0000D249
00:000108F4 98CE0000        	  8756: .long 0x0000CE98
00:000108F8 08CB0000        	  8757: .long 0x0000CB08
00:000108FC 97C70000        	  8758: .long 0x0000C797
00:00010900 44C40000        	  8759: .long 0x0000C444
00:00010904 0CC10000        	  8760: .long 0x0000C10C
00:00010908 EFBD0000        	  8761: .long 0x0000BDEF
00:0001090C EBBA0000        	  8762: .long 0x0000BAEB
00:00010910 FFFFFFFF        	  8763: .long 0xFFFFFFFF
00:00010914 00002F00        	  8764: .long 0x002F0000
00:00010918 00801700        	  8765: .long 0x00178000
00:0001091C AAAA0F00        	  8766: .long 0x000FAAAA
00:00010920 00C00B00        	  8767: .long 0x000BC000
00:00010924 66660900        	  8768: .long 0x00096666
00:00010928 55D50700        	  8769: .long 0x0007D555
00:0001092C DBB60600        	  8770: .long 0x0006B6DB
00:00010930 00E00500        	  8771: .long 0x0005E000
00:00010934 E3380500        	  8772: .long 0x000538E3
00:00010938 33B30400        	  8773: .long 0x0004B333
00:0001093C D1450400        	  8774: .long 0x000445D1
00:00010940 AAEA0300        	  8775: .long 0x0003EAAA
00:00010944 899D0300        	  8776: .long 0x00039D89
00:00010948 6D5B0300        	  8777: .long 0x00035B6D
00:0001094C 22220300        	  8778: .long 0x00032222
00:00010950 00F00200        	  8779: .long 0x0002F000
00:00010954 C3C30200        	  8780: .long 0x0002C3C3
00:00010958 719C0200        	  8781: .long 0x00029C71
00:0001095C 43790200        	  8782: .long 0x00027943
00:00010960 99590200        	  8783: .long 0x00025999
00:00010964 F33C0200        	  8784: .long 0x00023CF3
00:00010968 E8220200        	  8785: .long 0x000222E8
00:0001096C 210B0200        	  8786: .long 0x00020B21
00:00010970 55F50100        	  8787: .long 0x0001F555
00:00010974 47E10100        	  8788: .long 0x0001E147
00:00010978 C4CE0100        	  8789: .long 0x0001CEC4
00:0001097C A1BD0100        	  8790: .long 0x0001BDA1
00:00010980 B6AD0100        	  8791: .long 0x0001ADB6
00:00010984 E59E0100        	  8792: .long 0x00019EE5
00:00010988 11910100        	  8793: .long 0x00019111
00:0001098C 21840100        	  8794: .long 0x00018421
00:00010990 00780100        	  8795: .long 0x00017800
00:00010994 9B6C0100        	  8796: .long 0x00016C9B
00:00010998 E1610100        	  8797: .long 0x000161E1
00:0001099C C5570100        	  8798: .long 0x000157C5
00:000109A0 384E0100        	  8799: .long 0x00014E38
00:000109A4 30450100        	  8800: .long 0x00014530
00:000109A8 A13C0100        	  8801: .long 0x00013CA1
00:000109AC 83340100        	  8802: .long 0x00013483
00:000109B0 CC2C0100        	  8803: .long 0x00012CCC
00:000109B4 76250100        	  8804: .long 0x00012576
00:000109B8 791E0100        	  8805: .long 0x00011E79
00:000109BC D0170100        	  8806: .long 0x000117D0
00:000109C0 74110100        	  8807: .long 0x00011174
00:000109C4 600B0100        	  8808: .long 0x00010B60
00:000109C8 90050100        	  8809: .long 0x00010590
00:000109CC 00000100        	  8810: .long 0x00010000
00:000109D0 AAFA0000        	  8811: .long 0x0000FAAA
00:000109D4 8DF50000        	  8812: .long 0x0000F58D
00:000109D8 A3F00000        	  8813: .long 0x0000F0A3
00:000109DC EBEB0000        	  8814: .long 0x0000EBEB
00:000109E0 62E70000        	  8815: .long 0x0000E762
00:000109E4 04E30000        	  8816: .long 0x0000E304
00:000109E8 D0DE0000        	  8817: .long 0x0000DED0
00:000109EC C3DA0000        	  8818: .long 0x0000DAC3
00:000109F0 DBD60000        	  8819: .long 0x0000D6DB
00:000109F4 16D30000        	  8820: .long 0x0000D316
00:000109F8 72CF0000        	  8821: .long 0x0000CF72
00:000109FC EECB0000        	  8822: .long 0x0000CBEE
00:00010A00 88C80000        	  8823: .long 0x0000C888
00:00010A04 3EC50000        	  8824: .long 0x0000C53E
00:00010A08 10C20000        	  8825: .long 0x0000C210
00:00010A0C FBBE0000        	  8826: .long 0x0000BEFB
00:00010A10 FFFFFFFF        	  8827: .long 0xFFFFFFFF
00:00010A14 00003000        	  8828: .long 0x00300000
00:00010A18 00001800        	  8829: .long 0x00180000
00:00010A1C 00001000        	  8830: .long 0x00100000
00:00010A20 00000C00        	  8831: .long 0x000C0000
00:00010A24 99990900        	  8832: .long 0x00099999
00:00010A28 00000800        	  8833: .long 0x00080000
00:00010A2C 6DDB0600        	  8834: .long 0x0006DB6D
00:00010A30 00000600        	  8835: .long 0x00060000
00:00010A34 55550500        	  8836: .long 0x00055555
00:00010A38 CCCC0400        	  8837: .long 0x0004CCCC
00:00010A3C 175D0400        	  8838: .long 0x00045D17
00:00010A40 00000400        	  8839: .long 0x00040000
00:00010A44 3BB10300        	  8840: .long 0x0003B13B
00:00010A48 B66D0300        	  8841: .long 0x00036DB6
00:00010A4C 33330300        	  8842: .long 0x00033333
00:00010A50 00000300        	  8843: .long 0x00030000
00:00010A54 D2D20200        	  8844: .long 0x0002D2D2
00:00010A58 AAAA0200        	  8845: .long 0x0002AAAA
00:00010A5C BC860200        	  8846: .long 0x000286BC
00:00010A60 66660200        	  8847: .long 0x00026666
00:00010A64 24490200        	  8848: .long 0x00024924
00:00010A68 8B2E0200        	  8849: .long 0x00022E8B
00:00010A6C 42160200        	  8850: .long 0x00021642
00:00010A70 00000200        	  8851: .long 0x00020000
00:00010A74 85EB0100        	  8852: .long 0x0001EB85
00:00010A78 9DD80100        	  8853: .long 0x0001D89D
00:00010A7C 1CC70100        	  8854: .long 0x0001C71C
00:00010A80 DBB60100        	  8855: .long 0x0001B6DB
00:00010A84 B9A70100        	  8856: .long 0x0001A7B9
00:00010A88 99990100        	  8857: .long 0x00019999
00:00010A8C 638C0100        	  8858: .long 0x00018C63
00:00010A90 00800100        	  8859: .long 0x00018000
00:00010A94 5D740100        	  8860: .long 0x0001745D
00:00010A98 69690100        	  8861: .long 0x00016969
00:00010A9C 155F0100        	  8862: .long 0x00015F15
00:00010AA0 55550100        	  8863: .long 0x00015555
00:00010AA4 1B4C0100        	  8864: .long 0x00014C1B
00:00010AA8 5E430100        	  8865: .long 0x0001435E
00:00010AAC 133B0100        	  8866: .long 0x00013B13
00:00010AB0 33330100        	  8867: .long 0x00013333
00:00010AB4 B52B0100        	  8868: .long 0x00012BB5
00:00010AB8 92240100        	  8869: .long 0x00012492
00:00010ABC C41D0100        	  8870: .long 0x00011DC4
00:00010AC0 45170100        	  8871: .long 0x00011745
00:00010AC4 11110100        	  8872: .long 0x00011111
00:00010AC8 210B0100        	  8873: .long 0x00010B21
00:00010ACC 72050100        	  8874: .long 0x00010572
00:00010AD0 00000100        	  8875: .long 0x00010000
00:00010AD4 C6FA0000        	  8876: .long 0x0000FAC6
00:00010AD8 C2F50000        	  8877: .long 0x0000F5C2
00:00010ADC F0F00000        	  8878: .long 0x0000F0F0
00:00010AE0 4EEC0000        	  8879: .long 0x0000EC4E
00:00010AE4 D9E70000        	  8880: .long 0x0000E7D9
00:00010AE8 8EE30000        	  8881: .long 0x0000E38E
00:00010AEC 6BDF0000        	  8882: .long 0x0000DF6B
00:00010AF0 6DDB0000        	  8883: .long 0x0000DB6D
00:00010AF4 94D70000        	  8884: .long 0x0000D794
00:00010AF8 DCD30000        	  8885: .long 0x0000D3DC
00:00010AFC 45D00000        	  8886: .long 0x0000D045
00:00010B00 CCCC0000        	  8887: .long 0x0000CCCC
00:00010B04 71C90000        	  8888: .long 0x0000C971
00:00010B08 31C60000        	  8889: .long 0x0000C631
00:00010B0C 0CC30000        	  8890: .long 0x0000C30C
00:00010B10 FFFFFFFF        	  8891: .long 0xFFFFFFFF
00:00010B14 00003100        	  8892: .long 0x00310000
00:00010B18 00801800        	  8893: .long 0x00188000
00:00010B1C 55551000        	  8894: .long 0x00105555
00:00010B20 00400C00        	  8895: .long 0x000C4000
00:00010B24 CCCC0900        	  8896: .long 0x0009CCCC
00:00010B28 AA2A0800        	  8897: .long 0x00082AAA
00:00010B2C 00000700        	  8898: .long 0x00070000
00:00010B30 00200600        	  8899: .long 0x00062000
00:00010B34 C7710500        	  8900: .long 0x000571C7
00:00010B38 66E60400        	  8901: .long 0x0004E666
00:00010B3C 5D740400        	  8902: .long 0x0004745D
00:00010B40 55150400        	  8903: .long 0x00041555
00:00010B44 ECC40300        	  8904: .long 0x0003C4EC
00:00010B48 00800300        	  8905: .long 0x00038000
00:00010B4C 44440300        	  8906: .long 0x00034444
00:00010B50 00100300        	  8907: .long 0x00031000
00:00010B54 E1E10200        	  8908: .long 0x0002E1E1
00:00010B58 E3B80200        	  8909: .long 0x0002B8E3
00:00010B5C 35940200        	  8910: .long 0x00029435
00:00010B60 33730200        	  8911: .long 0x00027333
00:00010B64 55550200        	  8912: .long 0x00025555
00:00010B68 2E3A0200        	  8913: .long 0x00023A2E
00:00010B6C 64210200        	  8914: .long 0x00022164
00:00010B70 AA0A0200        	  8915: .long 0x00020AAA
00:00010B74 C2F50100        	  8916: .long 0x0001F5C2
00:00010B78 76E20100        	  8917: .long 0x0001E276
00:00010B7C 97D00100        	  8918: .long 0x0001D097
00:00010B80 00C00100        	  8919: .long 0x0001C000
00:00010B84 8DB00100        	  8920: .long 0x0001B08D
00:00010B88 22A20100        	  8921: .long 0x0001A222
00:00010B8C A5940100        	  8922: .long 0x000194A5
00:00010B90 00880100        	  8923: .long 0x00018800
00:00010B94 1F7C0100        	  8924: .long 0x00017C1F
00:00010B98 F0700100        	  8925: .long 0x000170F0
00:00010B9C 66660100        	  8926: .long 0x00016666
00:00010BA0 715C0100        	  8927: .long 0x00015C71
00:00010BA4 06530100        	  8928: .long 0x00015306
00:00010BA8 1A4A0100        	  8929: .long 0x00014A1A
00:00010BAC A4410100        	  8930: .long 0x000141A4
00:00010BB0 99390100        	  8931: .long 0x00013999
00:00010BB4 F3310100        	  8932: .long 0x000131F3
00:00010BB8 AA2A0100        	  8933: .long 0x00012AAA
00:00010BBC B8230100        	  8934: .long 0x000123B8
00:00010BC0 171D0100        	  8935: .long 0x00011D17
00:00010BC4 C1160100        	  8936: .long 0x000116C1
00:00010BC8 B2100100        	  8937: .long 0x000110B2
00:00010BCC E40A0100        	  8938: .long 0x00010AE4
00:00010BD0 55050100        	  8939: .long 0x00010555
00:00010BD4 00000100        	  8940: .long 0x00010000
00:00010BD8 E1FA0000        	  8941: .long 0x0000FAE1
00:00010BDC F5F50000        	  8942: .long 0x0000F5F5
00:00010BE0 3BF10000        	  8943: .long 0x0000F13B
00:00010BE4 ADEC0000        	  8944: .long 0x0000ECAD
00:00010BE8 4BE80000        	  8945: .long 0x0000E84B
00:00010BEC 12E40000        	  8946: .long 0x0000E412
00:00010BF0 00E00000        	  8947: .long 0x0000E000
00:00010BF4 11DC0000        	  8948: .long 0x0000DC11
00:00010BF8 46D80000        	  8949: .long 0x0000D846
00:00010BFC 9CD40000        	  8950: .long 0x0000D49C
00:00010C00 11D10000        	  8951: .long 0x0000D111
00:00010C04 A3CD0000        	  8952: .long 0x0000CDA3
00:00010C08 52CA0000        	  8953: .long 0x0000CA52
00:00010C0C 1CC70000        	  8954: .long 0x0000C71C
00:00010C10 FFFFFFFF        	  8955: .long 0xFFFFFFFF
00:00010C14 00003200        	  8956: .long 0x00320000
00:00010C18 00001900        	  8957: .long 0x00190000
00:00010C1C AAAA1000        	  8958: .long 0x0010AAAA
00:00010C20 00800C00        	  8959: .long 0x000C8000
00:00010C24 00000A00        	  8960: .long 0x000A0000
00:00010C28 55550800        	  8961: .long 0x00085555
00:00010C2C 92240700        	  8962: .long 0x00072492
00:00010C30 00400600        	  8963: .long 0x00064000
00:00010C34 388E0500        	  8964: .long 0x00058E38
00:00010C38 00000500        	  8965: .long 0x00050000
00:00010C3C A28B0400        	  8966: .long 0x00048BA2
00:00010C40 AA2A0400        	  8967: .long 0x00042AAA
00:00010C44 9DD80300        	  8968: .long 0x0003D89D
00:00010C48 49920300        	  8969: .long 0x00039249
00:00010C4C 55550300        	  8970: .long 0x00035555
00:00010C50 00200300        	  8971: .long 0x00032000
00:00010C54 F0F00200        	  8972: .long 0x0002F0F0
00:00010C58 1CC70200        	  8973: .long 0x0002C71C
00:00010C5C AFA10200        	  8974: .long 0x0002A1AF
00:00010C60 00800200        	  8975: .long 0x00028000
00:00010C64 86610200        	  8976: .long 0x00026186
00:00010C68 D1450200        	  8977: .long 0x000245D1
00:00010C6C 852C0200        	  8978: .long 0x00022C85
00:00010C70 55150200        	  8979: .long 0x00021555
00:00010C74 00000200        	  8980: .long 0x00020000
00:00010C78 4EEC0100        	  8981: .long 0x0001EC4E
00:00010C7C 12DA0100        	  8982: .long 0x0001DA12
00:00010C80 24C90100        	  8983: .long 0x0001C924
00:00010C84 61B90100        	  8984: .long 0x0001B961
00:00010C88 AAAA0100        	  8985: .long 0x0001AAAA
00:00010C8C E79C0100        	  8986: .long 0x00019CE7
00:00010C90 00900100        	  8987: .long 0x00019000
00:00010C94 E0830100        	  8988: .long 0x000183E0
00:00010C98 78780100        	  8989: .long 0x00017878
00:00010C9C B66D0100        	  8990: .long 0x00016DB6
00:00010CA0 8E630100        	  8991: .long 0x0001638E
00:00010CA4 F2590100        	  8992: .long 0x000159F2
00:00010CA8 D7500100        	  8993: .long 0x000150D7
00:00010CAC 34480100        	  8994: .long 0x00014834
00:00010CB0 00400100        	  8995: .long 0x00014000
00:00010CB4 31380100        	  8996: .long 0x00013831
00:00010CB8 C3300100        	  8997: .long 0x000130C3
00:00010CBC AC290100        	  8998: .long 0x000129AC
00:00010CC0 E8220100        	  8999: .long 0x000122E8
00:00010CC4 711C0100        	  9000: .long 0x00011C71
00:00010CC8 42160100        	  9001: .long 0x00011642
00:00010CCC 57100100        	  9002: .long 0x00011057
00:00010CD0 AA0A0100        	  9003: .long 0x00010AAA
00:00010CD4 39050100        	  9004: .long 0x00010539
00:00010CD8 00000100        	  9005: .long 0x00010000
00:00010CDC FAFA0000        	  9006: .long 0x0000FAFA
00:00010CE0 27F60000        	  9007: .long 0x0000F627
00:00010CE4 82F10000        	  9008: .long 0x0000F182
00:00010CE8 09ED0000        	  9009: .long 0x0000ED09
00:00010CEC BAE80000        	  9010: .long 0x0000E8BA
00:00010CF0 92E40000        	  9011: .long 0x0000E492
00:00010CF4 8FE00000        	  9012: .long 0x0000E08F
00:00010CF8 B0DC0000        	  9013: .long 0x0000DCB0
00:00010CFC F2D80000        	  9014: .long 0x0000D8F2
00:00010D00 55D50000        	  9015: .long 0x0000D555
00:00010D04 D6D10000        	  9016: .long 0x0000D1D6
00:00010D08 73CE0000        	  9017: .long 0x0000CE73
00:00010D0C 2CCB0000        	  9018: .long 0x0000CB2C
00:00010D10 FFFFFFFF        	  9019: .long 0xFFFFFFFF
00:00010D14 00003300        	  9020: .long 0x00330000
00:00010D18 00801900        	  9021: .long 0x00198000
00:00010D1C 00001100        	  9022: .long 0x00110000
00:00010D20 00C00C00        	  9023: .long 0x000CC000
00:00010D24 33330A00        	  9024: .long 0x000A3333
00:00010D28 00800800        	  9025: .long 0x00088000
00:00010D2C 24490700        	  9026: .long 0x00074924
00:00010D30 00600600        	  9027: .long 0x00066000
00:00010D34 AAAA0500        	  9028: .long 0x0005AAAA
00:00010D38 99190500        	  9029: .long 0x00051999
00:00010D3C E8A20400        	  9030: .long 0x0004A2E8
00:00010D40 00400400        	  9031: .long 0x00044000
00:00010D44 4EEC0300        	  9032: .long 0x0003EC4E
00:00010D48 92A40300        	  9033: .long 0x0003A492
00:00010D4C 66660300        	  9034: .long 0x00036666
00:00010D50 00300300        	  9035: .long 0x00033000
00:00010D54 00000300        	  9036: .long 0x00030000
00:00010D58 55D50200        	  9037: .long 0x0002D555
00:00010D5C 28AF0200        	  9038: .long 0x0002AF28
00:00010D60 CC8C0200        	  9039: .long 0x00028CCC
00:00010D64 B66D0200        	  9040: .long 0x00026DB6
00:00010D68 74510200        	  9041: .long 0x00025174
00:00010D6C A6370200        	  9042: .long 0x000237A6
00:00010D70 00200200        	  9043: .long 0x00022000
00:00010D74 3D0A0200        	  9044: .long 0x00020A3D
00:00010D78 27F60100        	  9045: .long 0x0001F627
00:00010D7C 8EE30100        	  9046: .long 0x0001E38E
00:00010D80 49D20100        	  9047: .long 0x0001D249
00:00010D84 34C20100        	  9048: .long 0x0001C234
00:00010D88 33B30100        	  9049: .long 0x0001B333
00:00010D8C 29A50100        	  9050: .long 0x0001A529
00:00010D90 00980100        	  9051: .long 0x00019800
00:00010D94 A28B0100        	  9052: .long 0x00018BA2
00:00010D98 00800100        	  9053: .long 0x00018000
00:00010D9C 07750100        	  9054: .long 0x00017507
00:00010DA0 AA6A0100        	  9055: .long 0x00016AAA
00:00010DA4 DD600100        	  9056: .long 0x000160DD
00:00010DA8 94570100        	  9057: .long 0x00015794
00:00010DAC C44E0100        	  9058: .long 0x00014EC4
00:00010DB0 66460100        	  9059: .long 0x00014666
00:00010DB4 703E0100        	  9060: .long 0x00013E70
00:00010DB8 DB360100        	  9061: .long 0x000136DB
00:00010DBC A02F0100        	  9062: .long 0x00012FA0
00:00010DC0 BA280100        	  9063: .long 0x000128BA
00:00010DC4 22220100        	  9064: .long 0x00012222
00:00010DC8 D31B0100        	  9065: .long 0x00011BD3
00:00010DCC C9150100        	  9066: .long 0x000115C9
00:00010DD0 00100100        	  9067: .long 0x00011000
00:00010DD4 720A0100        	  9068: .long 0x00010A72
00:00010DD8 1E050100        	  9069: .long 0x0001051E
00:00010DDC 00000100        	  9070: .long 0x00010000
00:00010DE0 13FB0000        	  9071: .long 0x0000FB13
00:00010DE4 56F60000        	  9072: .long 0x0000F656
00:00010DE8 C7F10000        	  9073: .long 0x0000F1C7
00:00010DEC 61ED0000        	  9074: .long 0x0000ED61
00:00010DF0 24E90000        	  9075: .long 0x0000E924
00:00010DF4 0DE50000        	  9076: .long 0x0000E50D
00:00010DF8 1AE10000        	  9077: .long 0x0000E11A
00:00010DFC 49DD0000        	  9078: .long 0x0000DD49
00:00010E00 99D90000        	  9079: .long 0x0000D999
00:00010E04 08D60000        	  9080: .long 0x0000D608
00:00010E08 94D20000        	  9081: .long 0x0000D294
00:00010E0C 3CCF0000        	  9082: .long 0x0000CF3C
00:00010E10 FFFFFFFF        	  9083: .long 0xFFFFFFFF
00:00010E14 00003400        	  9084: .long 0x00340000
00:00010E18 00001A00        	  9085: .long 0x001A0000
00:00010E1C 55551100        	  9086: .long 0x00115555
00:00010E20 00000D00        	  9087: .long 0x000D0000
00:00010E24 66660A00        	  9088: .long 0x000A6666
00:00010E28 AAAA0800        	  9089: .long 0x0008AAAA
00:00010E2C B66D0700        	  9090: .long 0x00076DB6
00:00010E30 00800600        	  9091: .long 0x00068000
00:00010E34 1CC70500        	  9092: .long 0x0005C71C
00:00010E38 33330500        	  9093: .long 0x00053333
00:00010E3C 2EBA0400        	  9094: .long 0x0004BA2E
00:00010E40 55550400        	  9095: .long 0x00045555
00:00010E44 00000400        	  9096: .long 0x00040000
00:00010E48 DBB60300        	  9097: .long 0x0003B6DB
00:00010E4C 77770300        	  9098: .long 0x00037777
00:00010E50 00400300        	  9099: .long 0x00034000
00:00010E54 0F0F0300        	  9100: .long 0x00030F0F
00:00010E58 8EE30200        	  9101: .long 0x0002E38E
00:00010E5C A1BC0200        	  9102: .long 0x0002BCA1
00:00010E60 99990200        	  9103: .long 0x00029999
00:00010E64 E7790200        	  9104: .long 0x000279E7
00:00010E68 175D0200        	  9105: .long 0x00025D17
00:00010E6C C8420200        	  9106: .long 0x000242C8
00:00010E70 AA2A0200        	  9107: .long 0x00022AAA
00:00010E74 7A140200        	  9108: .long 0x0002147A
00:00010E78 00000200        	  9109: .long 0x00020000
00:00010E7C 09ED0100        	  9110: .long 0x0001ED09
00:00010E80 6DDB0100        	  9111: .long 0x0001DB6D
00:00010E84 08CB0100        	  9112: .long 0x0001CB08
00:00010E88 BBBB0100        	  9113: .long 0x0001BBBB
00:00010E8C 6BAD0100        	  9114: .long 0x0001AD6B
00:00010E90 00A00100        	  9115: .long 0x0001A000
00:00010E94 64930100        	  9116: .long 0x00019364
00:00010E98 87870100        	  9117: .long 0x00018787
00:00010E9C 577C0100        	  9118: .long 0x00017C57
00:00010EA0 C7710100        	  9119: .long 0x000171C7
00:00010EA4 C8670100        	  9120: .long 0x000167C8
00:00010EA8 505E0100        	  9121: .long 0x00015E50
00:00010EAC 55550100        	  9122: .long 0x00015555
00:00010EB0 CC4C0100        	  9123: .long 0x00014CCC
00:00010EB4 AE440100        	  9124: .long 0x000144AE
00:00010EB8 F33C0100        	  9125: .long 0x00013CF3
00:00010EBC 94350100        	  9126: .long 0x00013594
00:00010EC0 8B2E0100        	  9127: .long 0x00012E8B
00:00010EC4 D2270100        	  9128: .long 0x000127D2
00:00010EC8 64210100        	  9129: .long 0x00012164
00:00010ECC 3B1B0100        	  9130: .long 0x00011B3B
00:00010ED0 55150100        	  9131: .long 0x00011555
00:00010ED4 AC0F0100        	  9132: .long 0x00010FAC
00:00010ED8 3D0A0100        	  9133: .long 0x00010A3D
00:00010EDC 05050100        	  9134: .long 0x00010505
00:00010EE0 00000100        	  9135: .long 0x00010000
00:00010EE4 2BFB0000        	  9136: .long 0x0000FB2B
00:00010EE8 84F60000        	  9137: .long 0x0000F684
00:00010EEC 09F20000        	  9138: .long 0x0000F209
00:00010EF0 B6ED0000        	  9139: .long 0x0000EDB6
00:00010EF4 8BE90000        	  9140: .long 0x0000E98B
00:00010EF8 84E50000        	  9141: .long 0x0000E584
00:00010EFC A0E10000        	  9142: .long 0x0000E1A0
00:00010F00 DDDD0000        	  9143: .long 0x0000DDDD
00:00010F04 3ADA0000        	  9144: .long 0x0000DA3A
00:00010F08 B5D60000        	  9145: .long 0x0000D6B5
00:00010F0C 4DD30000        	  9146: .long 0x0000D34D
00:00010F10 FFFFFFFF        	  9147: .long 0xFFFFFFFF
00:00010F14 00003500        	  9148: .long 0x00350000
00:00010F18 00801A00        	  9149: .long 0x001A8000
00:00010F1C AAAA1100        	  9150: .long 0x0011AAAA
00:00010F20 00400D00        	  9151: .long 0x000D4000
00:00010F24 99990A00        	  9152: .long 0x000A9999
00:00010F28 55D50800        	  9153: .long 0x0008D555
00:00010F2C 49920700        	  9154: .long 0x00079249
00:00010F30 00A00600        	  9155: .long 0x0006A000
00:00010F34 8EE30500        	  9156: .long 0x0005E38E
00:00010F38 CC4C0500        	  9157: .long 0x00054CCC
00:00010F3C 74D10400        	  9158: .long 0x0004D174
00:00010F40 AA6A0400        	  9159: .long 0x00046AAA
00:00010F44 B1130400        	  9160: .long 0x000413B1
00:00010F48 24C90300        	  9161: .long 0x0003C924
00:00010F4C 88880300        	  9162: .long 0x00038888
00:00010F50 00500300        	  9163: .long 0x00035000
00:00010F54 1E1E0300        	  9164: .long 0x00031E1E
00:00010F58 C7F10200        	  9165: .long 0x0002F1C7
00:00010F5C 1ACA0200        	  9166: .long 0x0002CA1A
00:00010F60 66A60200        	  9167: .long 0x0002A666
00:00010F64 18860200        	  9168: .long 0x00028618
00:00010F68 BA680200        	  9169: .long 0x000268BA
00:00010F6C E94D0200        	  9170: .long 0x00024DE9
00:00010F70 55350200        	  9171: .long 0x00023555
00:00010F74 B81E0200        	  9172: .long 0x00021EB8
00:00010F78 D8090200        	  9173: .long 0x000209D8
00:00010F7C 84F60100        	  9174: .long 0x0001F684
00:00010F80 92E40100        	  9175: .long 0x0001E492
00:00010F84 DCD30100        	  9176: .long 0x0001D3DC
00:00010F88 44C40100        	  9177: .long 0x0001C444
00:00010F8C ADB50100        	  9178: .long 0x0001B5AD
00:00010F90 00A80100        	  9179: .long 0x0001A800
00:00010F94 269B0100        	  9180: .long 0x00019B26
00:00010F98 0F8F0100        	  9181: .long 0x00018F0F
00:00010F9C A8830100        	  9182: .long 0x000183A8
00:00010FA0 E3780100        	  9183: .long 0x000178E3
00:00010FA4 B36E0100        	  9184: .long 0x00016EB3
00:00010FA8 0D650100        	  9185: .long 0x0001650D
00:00010FAC E55B0100        	  9186: .long 0x00015BE5
00:00010FB0 33530100        	  9187: .long 0x00015333
00:00010FB4 ED4A0100        	  9188: .long 0x00014AED
00:00010FB8 0C430100        	  9189: .long 0x0001430C
00:00010FBC 883B0100        	  9190: .long 0x00013B88
00:00010FC0 5D340100        	  9191: .long 0x0001345D
00:00010FC4 822D0100        	  9192: .long 0x00012D82
00:00010FC8 F4260100        	  9193: .long 0x000126F4
00:00010FCC AE200100        	  9194: .long 0x000120AE
00:00010FD0 AA1A0100        	  9195: .long 0x00011AAA
00:00010FD4 E5140100        	  9196: .long 0x000114E5
00:00010FD8 5C0F0100        	  9197: .long 0x00010F5C
00:00010FDC 0A0A0100        	  9198: .long 0x00010A0A
00:00010FE0 EC040100        	  9199: .long 0x000104EC
00:00010FE4 00000100        	  9200: .long 0x00010000
00:00010FE8 42FB0000        	  9201: .long 0x0000FB42
00:00010FEC B0F60000        	  9202: .long 0x0000F6B0
00:00010FF0 49F20000        	  9203: .long 0x0000F249
00:00010FF4 08EE0000        	  9204: .long 0x0000EE08
00:00010FF8 EEE90000        	  9205: .long 0x0000E9EE
00:00010FFC F7E50000        	  9206: .long 0x0000E5F7
00:00011000 22E20000        	  9207: .long 0x0000E222
00:00011004 6DDE0000        	  9208: .long 0x0000DE6D
00:00011008 D6DA0000        	  9209: .long 0x0000DAD6
00:0001100C 5DD70000        	  9210: .long 0x0000D75D
00:00011010 FFFFFFFF        	  9211: .long 0xFFFFFFFF
00:00011014 00003600        	  9212: .long 0x00360000
00:00011018 00001B00        	  9213: .long 0x001B0000
00:0001101C 00001200        	  9214: .long 0x00120000
00:00011020 00800D00        	  9215: .long 0x000D8000
00:00011024 CCCC0A00        	  9216: .long 0x000ACCCC
00:00011028 00000900        	  9217: .long 0x00090000
00:0001102C DBB60700        	  9218: .long 0x0007B6DB
00:00011030 00C00600        	  9219: .long 0x0006C000
00:00011034 00000600        	  9220: .long 0x00060000
00:00011038 66660500        	  9221: .long 0x00056666
00:0001103C BAE80400        	  9222: .long 0x0004E8BA
00:00011040 00800400        	  9223: .long 0x00048000
00:00011044 62270400        	  9224: .long 0x00042762
00:00011048 6DDB0300        	  9225: .long 0x0003DB6D
00:0001104C 99990300        	  9226: .long 0x00039999
00:00011050 00600300        	  9227: .long 0x00036000
00:00011054 2D2D0300        	  9228: .long 0x00032D2D
00:00011058 00000300        	  9229: .long 0x00030000
00:0001105C 94D70200        	  9230: .long 0x0002D794
00:00011060 33B30200        	  9231: .long 0x0002B333
00:00011064 49920200        	  9232: .long 0x00029249
00:00011068 5D740200        	  9233: .long 0x0002745D
00:0001106C 0B590200        	  9234: .long 0x0002590B
00:00011070 00400200        	  9235: .long 0x00024000
00:00011074 F5280200        	  9236: .long 0x000228F5
00:00011078 B1130200        	  9237: .long 0x000213B1
00:0001107C 00000200        	  9238: .long 0x00020000
00:00011080 B6ED0100        	  9239: .long 0x0001EDB6
00:00011084 B0DC0100        	  9240: .long 0x0001DCB0
00:00011088 CCCC0100        	  9241: .long 0x0001CCCC
00:0001108C EFBD0100        	  9242: .long 0x0001BDEF
00:00011090 00B00100        	  9243: .long 0x0001B000
00:00011094 E8A20100        	  9244: .long 0x0001A2E8
00:00011098 96960100        	  9245: .long 0x00019696
00:0001109C F88A0100        	  9246: .long 0x00018AF8
00:000110A0 00800100        	  9247: .long 0x00018000
00:000110A4 9F750100        	  9248: .long 0x0001759F
00:000110A8 CA6B0100        	  9249: .long 0x00016BCA
00:000110AC 76620100        	  9250: .long 0x00016276
00:000110B0 99590100        	  9251: .long 0x00015999
00:000110B4 2B510100        	  9252: .long 0x0001512B
00:000110B8 24490100        	  9253: .long 0x00014924
00:000110BC 7D410100        	  9254: .long 0x0001417D
00:000110C0 2E3A0100        	  9255: .long 0x00013A2E
00:000110C4 33330100        	  9256: .long 0x00013333
00:000110C8 852C0100        	  9257: .long 0x00012C85
00:000110CC 20260100        	  9258: .long 0x00012620
00:000110D0 00200100        	  9259: .long 0x00012000
00:000110D4 1F1A0100        	  9260: .long 0x00011A1F
00:000110D8 7A140100        	  9261: .long 0x0001147A
00:000110DC 0F0F0100        	  9262: .long 0x00010F0F
00:000110E0 D8090100        	  9263: .long 0x000109D8
00:000110E4 D4040100        	  9264: .long 0x000104D4
00:000110E8 00000100        	  9265: .long 0x00010000
00:000110EC 58FB0000        	  9266: .long 0x0000FB58
00:000110F0 DBF60000        	  9267: .long 0x0000F6DB
00:000110F4 86F20000        	  9268: .long 0x0000F286
00:000110F8 58EE0000        	  9269: .long 0x0000EE58
00:000110FC 4EEA0000        	  9270: .long 0x0000EA4E
00:00011100 66E60000        	  9271: .long 0x0000E666
00:00011104 9FE20000        	  9272: .long 0x0000E29F
00:00011108 F7DE0000        	  9273: .long 0x0000DEF7
00:0001110C 6DDB0000        	  9274: .long 0x0000DB6D
00:00011110 FFFFFFFF        	  9275: .long 0xFFFFFFFF
00:00011114 00003700        	  9276: .long 0x00370000
00:00011118 00801B00        	  9277: .long 0x001B8000
00:0001111C 55551200        	  9278: .long 0x00125555
00:00011120 00C00D00        	  9279: .long 0x000DC000
00:00011124 00000B00        	  9280: .long 0x000B0000
00:00011128 AA2A0900        	  9281: .long 0x00092AAA
00:0001112C 6DDB0700        	  9282: .long 0x0007DB6D
00:00011130 00E00600        	  9283: .long 0x0006E000
00:00011134 711C0600        	  9284: .long 0x00061C71
00:00011138 00800500        	  9285: .long 0x00058000
00:0001113C 00000500        	  9286: .long 0x00050000
00:00011140 55950400        	  9287: .long 0x00049555
00:00011144 133B0400        	  9288: .long 0x00043B13
00:00011148 B6ED0300        	  9289: .long 0x0003EDB6
00:0001114C AAAA0300        	  9290: .long 0x0003AAAA
00:00011150 00700300        	  9291: .long 0x00037000
00:00011154 3C3C0300        	  9292: .long 0x00033C3C
00:00011158 380E0300        	  9293: .long 0x00030E38
00:0001115C 0DE50200        	  9294: .long 0x0002E50D
00:00011160 00C00200        	  9295: .long 0x0002C000
00:00011164 799E0200        	  9296: .long 0x00029E79
00:00011168 00800200        	  9297: .long 0x00028000
00:0001116C 2C640200        	  9298: .long 0x0002642C
00:00011170 AA4A0200        	  9299: .long 0x00024AAA
00:00011174 33330200        	  9300: .long 0x00023333
00:00011178 891D0200        	  9301: .long 0x00021D89
00:0001117C 7B090200        	  9302: .long 0x0002097B
00:00011180 DBF60100        	  9303: .long 0x0001F6DB
00:00011184 84E50100        	  9304: .long 0x0001E584
00:00011188 55D50100        	  9305: .long 0x0001D555
00:0001118C 31C60100        	  9306: .long 0x0001C631
00:00011190 00B80100        	  9307: .long 0x0001B800
00:00011194 AAAA0100        	  9308: .long 0x0001AAAA
00:00011198 1E9E0100        	  9309: .long 0x00019E1E
00:0001119C 49920100        	  9310: .long 0x00019249
00:000111A0 1C870100        	  9311: .long 0x0001871C
00:000111A4 8A7C0100        	  9312: .long 0x00017C8A
00:000111A8 86720100        	  9313: .long 0x00017286
00:000111AC 06690100        	  9314: .long 0x00016906
00:000111B0 00600100        	  9315: .long 0x00016000
00:000111B4 6A570100        	  9316: .long 0x0001576A
00:000111B8 3C4F0100        	  9317: .long 0x00014F3C
00:000111BC 71470100        	  9318: .long 0x00014771
00:000111C0 00400100        	  9319: .long 0x00014000
00:000111C4 E3380100        	  9320: .long 0x000138E3
00:000111C8 16320100        	  9321: .long 0x00013216
00:000111CC 932B0100        	  9322: .long 0x00012B93
00:000111D0 55250100        	  9323: .long 0x00012555
00:000111D4 581F0100        	  9324: .long 0x00011F58
00:000111D8 99190100        	  9325: .long 0x00011999
00:000111DC 14140100        	  9326: .long 0x00011414
00:000111E0 C40E0100        	  9327: .long 0x00010EC4
00:000111E4 A9090100        	  9328: .long 0x000109A9
00:000111E8 BD040100        	  9329: .long 0x000104BD
00:000111EC 00000100        	  9330: .long 0x00010000
00:000111F0 6DFB0000        	  9331: .long 0x0000FB6D
00:000111F4 04F70000        	  9332: .long 0x0000F704
00:000111F8 C2F20000        	  9333: .long 0x0000F2C2
00:000111FC A4EE0000        	  9334: .long 0x0000EEA4
00:00011200 AAEA0000        	  9335: .long 0x0000EAAA
00:00011204 D1E60000        	  9336: .long 0x0000E6D1
00:00011208 18E30000        	  9337: .long 0x0000E318
00:0001120C 7DDF0000        	  9338: .long 0x0000DF7D
00:00011210 FFFFFFFF        	  9339: .long 0xFFFFFFFF
00:00011214 00003800        	  9340: .long 0x00380000
00:00011218 00001C00        	  9341: .long 0x001C0000
00:0001121C AAAA1200        	  9342: .long 0x0012AAAA
00:00011220 00000E00        	  9343: .long 0x000E0000
00:00011224 33330B00        	  9344: .long 0x000B3333
00:00011228 55550900        	  9345: .long 0x00095555
00:0001122C 00000800        	  9346: .long 0x00080000
00:00011230 00000700        	  9347: .long 0x00070000
00:00011234 E3380600        	  9348: .long 0x000638E3
00:00011238 99990500        	  9349: .long 0x00059999
00:0001123C 45170500        	  9350: .long 0x00051745
00:00011240 AAAA0400        	  9351: .long 0x0004AAAA
00:00011244 C44E0400        	  9352: .long 0x00044EC4
00:00011248 00000400        	  9353: .long 0x00040000
00:0001124C BBBB0300        	  9354: .long 0x0003BBBB
00:00011250 00800300        	  9355: .long 0x00038000
00:00011254 4B4B0300        	  9356: .long 0x00034B4B
00:00011258 711C0300        	  9357: .long 0x00031C71
00:0001125C 86F20200        	  9358: .long 0x0002F286
00:00011260 CCCC0200        	  9359: .long 0x0002CCCC
00:00011264 AAAA0200        	  9360: .long 0x0002AAAA
00:00011268 A28B0200        	  9361: .long 0x00028BA2
00:0001126C 4D6F0200        	  9362: .long 0x00026F4D
00:00011270 55550200        	  9363: .long 0x00025555
00:00011274 703D0200        	  9364: .long 0x00023D70
00:00011278 62270200        	  9365: .long 0x00022762
00:0001127C F6120200        	  9366: .long 0x000212F6
00:00011280 00000200        	  9367: .long 0x00020000
00:00011284 58EE0100        	  9368: .long 0x0001EE58
00:00011288 DDDD0100        	  9369: .long 0x0001DDDD
00:0001128C 73CE0100        	  9370: .long 0x0001CE73
00:00011290 00C00100        	  9371: .long 0x0001C000
00:00011294 6CB20100        	  9372: .long 0x0001B26C
00:00011298 A5A50100        	  9373: .long 0x0001A5A5
00:0001129C 99990100        	  9374: .long 0x00019999
00:000112A0 388E0100        	  9375: .long 0x00018E38
00:000112A4 75830100        	  9376: .long 0x00018375
00:000112A8 43790100        	  9377: .long 0x00017943
00:000112AC 966F0100        	  9378: .long 0x00016F96
00:000112B0 66660100        	  9379: .long 0x00016666
00:000112B4 A85D0100        	  9380: .long 0x00015DA8
00:000112B8 55550100        	  9381: .long 0x00015555
00:000112BC 654D0100        	  9382: .long 0x00014D65
00:000112C0 D1450100        	  9383: .long 0x000145D1
00:000112C4 933E0100        	  9384: .long 0x00013E93
00:000112C8 A6370100        	  9385: .long 0x000137A6
00:000112CC 05310100        	  9386: .long 0x00013105
00:000112D0 AA2A0100        	  9387: .long 0x00012AAA
00:000112D4 92240100        	  9388: .long 0x00012492
00:000112D8 B81E0100        	  9389: .long 0x00011EB8
00:000112DC 19190100        	  9390: .long 0x00011919
00:000112E0 B1130100        	  9391: .long 0x000113B1
00:000112E4 7D0E0100        	  9392: .long 0x00010E7D
00:000112E8 7B090100        	  9393: .long 0x0001097B
00:000112EC A7040100        	  9394: .long 0x000104A7
00:000112F0 00000100        	  9395: .long 0x00010000
00:000112F4 82FB0000        	  9396: .long 0x0000FB82
00:000112F8 2CF70000        	  9397: .long 0x0000F72C
00:000112FC FBF20000        	  9398: .long 0x0000F2FB
00:00011300 EEEE0000        	  9399: .long 0x0000EEEE
00:00011304 04EB0000        	  9400: .long 0x0000EB04
00:00011308 39E70000        	  9401: .long 0x0000E739
00:0001130C 8EE30000        	  9402: .long 0x0000E38E
00:00011310 FFFFFFFF        	  9403: .long 0xFFFFFFFF
00:00011314 00003900        	  9404: .long 0x00390000
00:00011318 00801C00        	  9405: .long 0x001C8000
00:0001131C 00001300        	  9406: .long 0x00130000
00:00011320 00400E00        	  9407: .long 0x000E4000
00:00011324 66660B00        	  9408: .long 0x000B6666
00:00011328 00800900        	  9409: .long 0x00098000
00:0001132C 92240800        	  9410: .long 0x00082492
00:00011330 00200700        	  9411: .long 0x00072000
00:00011334 55550600        	  9412: .long 0x00065555
00:00011338 33B30500        	  9413: .long 0x0005B333
00:0001133C 8B2E0500        	  9414: .long 0x00052E8B
00:00011340 00C00400        	  9415: .long 0x0004C000
00:00011344 76620400        	  9416: .long 0x00046276
00:00011348 49120400        	  9417: .long 0x00041249
00:0001134C CCCC0300        	  9418: .long 0x0003CCCC
00:00011350 00900300        	  9419: .long 0x00039000
00:00011354 5A5A0300        	  9420: .long 0x00035A5A
00:00011358 AA2A0300        	  9421: .long 0x00032AAA
00:0001135C 00000300        	  9422: .long 0x00030000
00:00011360 99D90200        	  9423: .long 0x0002D999
00:00011364 DBB60200        	  9424: .long 0x0002B6DB
00:00011368 45970200        	  9425: .long 0x00029745
00:0001136C 6F7A0200        	  9426: .long 0x00027A6F
00:00011370 00600200        	  9427: .long 0x00026000
00:00011374 AE470200        	  9428: .long 0x000247AE
00:00011378 3B310200        	  9429: .long 0x0002313B
00:0001137C 711C0200        	  9430: .long 0x00021C71
00:00011380 24090200        	  9431: .long 0x00020924
00:00011384 2CF70100        	  9432: .long 0x0001F72C
00:00011388 66E60100        	  9433: .long 0x0001E666
00:0001138C B5D60100        	  9434: .long 0x0001D6B5
00:00011390 00C80100        	  9435: .long 0x0001C800
00:00011394 2EBA0100        	  9436: .long 0x0001BA2E
00:00011398 2DAD0100        	  9437: .long 0x0001AD2D
00:0001139C EAA00100        	  9438: .long 0x0001A0EA
00:000113A0 55950100        	  9439: .long 0x00019555
00:000113A4 608A0100        	  9440: .long 0x00018A60
00:000113A8 00800100        	  9441: .long 0x00018000
00:000113AC 27760100        	  9442: .long 0x00017627
00:000113B0 CC6C0100        	  9443: .long 0x00016CCC
00:000113B4 E7630100        	  9444: .long 0x000163E7
00:000113B8 6D5B0100        	  9445: .long 0x00015B6D
00:000113BC 59530100        	  9446: .long 0x00015359
00:000113C0 A24B0100        	  9447: .long 0x00014BA2
00:000113C4 44440100        	  9448: .long 0x00014444
00:000113C8 373D0100        	  9449: .long 0x00013D37
00:000113CC 77360100        	  9450: .long 0x00013677
00:000113D0 00300100        	  9451: .long 0x00013000
00:000113D4 CB290100        	  9452: .long 0x000129CB
00:000113D8 D7230100        	  9453: .long 0x000123D7
00:000113DC 1E1E0100        	  9454: .long 0x00011E1E
00:000113E0 9D180100        	  9455: .long 0x0001189D
00:000113E4 52130100        	  9456: .long 0x00011352
00:000113E8 380E0100        	  9457: .long 0x00010E38
00:000113EC 4F090100        	  9458: .long 0x0001094F
00:000113F0 92040100        	  9459: .long 0x00010492
00:000113F4 00000100        	  9460: .long 0x00010000
00:000113F8 96FB0000        	  9461: .long 0x0000FB96
00:000113FC 52F70000        	  9462: .long 0x0000F752
00:00011400 33F30000        	  9463: .long 0x0000F333
00:00011404 36EF0000        	  9464: .long 0x0000EF36
00:00011408 5AEB0000        	  9465: .long 0x0000EB5A
00:0001140C 9EE70000        	  9466: .long 0x0000E79E
00:00011410 FFFFFFFF        	  9467: .long 0xFFFFFFFF
00:00011414 00003A00        	  9468: .long 0x003A0000
00:00011418 00001D00        	  9469: .long 0x001D0000
00:0001141C 55551300        	  9470: .long 0x00135555
00:00011420 00800E00        	  9471: .long 0x000E8000
00:00011424 99990B00        	  9472: .long 0x000B9999
00:00011428 AAAA0900        	  9473: .long 0x0009AAAA
00:0001142C 24490800        	  9474: .long 0x00084924
00:00011430 00400700        	  9475: .long 0x00074000
00:00011434 C7710600        	  9476: .long 0x000671C7
00:00011438 CCCC0500        	  9477: .long 0x0005CCCC
00:0001143C D1450500        	  9478: .long 0x000545D1
00:00011440 55D50400        	  9479: .long 0x0004D555
00:00011444 27760400        	  9480: .long 0x00047627
00:00011448 92240400        	  9481: .long 0x00042492
00:0001144C DDDD0300        	  9482: .long 0x0003DDDD
00:00011450 00A00300        	  9483: .long 0x0003A000
00:00011454 69690300        	  9484: .long 0x00036969
00:00011458 E3380300        	  9485: .long 0x000338E3
00:0001145C 790D0300        	  9486: .long 0x00030D79
00:00011460 66E60200        	  9487: .long 0x0002E666
00:00011464 0CC30200        	  9488: .long 0x0002C30C
00:00011468 E8A20200        	  9489: .long 0x0002A2E8
00:0001146C 90850200        	  9490: .long 0x00028590
00:00011470 AA6A0200        	  9491: .long 0x00026AAA
00:00011474 EB510200        	  9492: .long 0x000251EB
00:00011478 133B0200        	  9493: .long 0x00023B13
00:0001147C ED250200        	  9494: .long 0x000225ED
00:00011480 49120200        	  9495: .long 0x00021249
00:00011484 00000200        	  9496: .long 0x00020000
00:00011488 EEEE0100        	  9497: .long 0x0001EEEE
00:0001148C F7DE0100        	  9498: .long 0x0001DEF7
00:00011490 00D00100        	  9499: .long 0x0001D000
00:00011494 F0C10100        	  9500: .long 0x0001C1F0
00:00011498 B4B40100        	  9501: .long 0x0001B4B4
00:0001149C 3AA80100        	  9502: .long 0x0001A83A
00:000114A0 719C0100        	  9503: .long 0x00019C71
00:000114A4 4C910100        	  9504: .long 0x0001914C
00:000114A8 BC860100        	  9505: .long 0x000186BC
00:000114AC B77C0100        	  9506: .long 0x00017CB7
00:000114B0 33730100        	  9507: .long 0x00017333
00:000114B4 256A0100        	  9508: .long 0x00016A25
00:000114B8 86610100        	  9509: .long 0x00016186
00:000114BC 4D590100        	  9510: .long 0x0001594D
00:000114C0 74510100        	  9511: .long 0x00015174
00:000114C4 F4490100        	  9512: .long 0x000149F4
00:000114C8 C8420100        	  9513: .long 0x000142C8
00:000114CC EA3B0100        	  9514: .long 0x00013BEA
00:000114D0 55350100        	  9515: .long 0x00013555
00:000114D4 052F0100        	  9516: .long 0x00012F05
00:000114D8 F5280100        	  9517: .long 0x000128F5
00:000114DC 23230100        	  9518: .long 0x00012323
00:000114E0 891D0100        	  9519: .long 0x00011D89
00:000114E4 26180100        	  9520: .long 0x00011826
00:000114E8 F6120100        	  9521: .long 0x000112F6
00:000114EC F60D0100        	  9522: .long 0x00010DF6
00:000114F0 24090100        	  9523: .long 0x00010924
00:000114F4 7D040100        	  9524: .long 0x0001047D
00:000114F8 00000100        	  9525: .long 0x00010000
00:000114FC A9FB0000        	  9526: .long 0x0000FBA9
00:00011500 77F70000        	  9527: .long 0x0000F777
00:00011504 68F30000        	  9528: .long 0x0000F368
00:00011508 7BEF0000        	  9529: .long 0x0000EF7B
00:0001150C AEEB0000        	  9530: .long 0x0000EBAE
00:00011510 FFFFFFFF        	  9531: .long 0xFFFFFFFF
00:00011514 00003B00        	  9532: .long 0x003B0000
00:00011518 00801D00        	  9533: .long 0x001D8000
00:0001151C AAAA1300        	  9534: .long 0x0013AAAA
00:00011520 00C00E00        	  9535: .long 0x000EC000
00:00011524 CCCC0B00        	  9536: .long 0x000BCCCC
00:00011528 55D50900        	  9537: .long 0x0009D555
00:0001152C B66D0800        	  9538: .long 0x00086DB6
00:00011530 00600700        	  9539: .long 0x00076000
00:00011534 388E0600        	  9540: .long 0x00068E38
00:00011538 66E60500        	  9541: .long 0x0005E666
00:0001153C 175D0500        	  9542: .long 0x00055D17
00:00011540 AAEA0400        	  9543: .long 0x0004EAAA
00:00011544 D8890400        	  9544: .long 0x000489D8
00:00011548 DB360400        	  9545: .long 0x000436DB
00:0001154C EEEE0300        	  9546: .long 0x0003EEEE
00:00011550 00B00300        	  9547: .long 0x0003B000
00:00011554 78780300        	  9548: .long 0x00037878
00:00011558 1C470300        	  9549: .long 0x0003471C
00:0001155C F21A0300        	  9550: .long 0x00031AF2
00:00011560 33F30200        	  9551: .long 0x0002F333
00:00011564 3CCF0200        	  9552: .long 0x0002CF3C
00:00011568 8BAE0200        	  9553: .long 0x0002AE8B
00:0001156C B2900200        	  9554: .long 0x000290B2
00:00011570 55750200        	  9555: .long 0x00027555
00:00011574 285C0200        	  9556: .long 0x00025C28
00:00011578 EC440200        	  9557: .long 0x000244EC
00:0001157C 682F0200        	  9558: .long 0x00022F68
00:00011580 6D1B0200        	  9559: .long 0x00021B6D
00:00011584 D3080200        	  9560: .long 0x000208D3
00:00011588 77F70100        	  9561: .long 0x0001F777
00:0001158C 39E70100        	  9562: .long 0x0001E739
00:00011590 00D80100        	  9563: .long 0x0001D800
00:00011594 B2C90100        	  9564: .long 0x0001C9B2
00:00011598 3CBC0100        	  9565: .long 0x0001BC3C
00:0001159C 8AAF0100        	  9566: .long 0x0001AF8A
00:000115A0 8EA30100        	  9567: .long 0x0001A38E
00:000115A4 37980100        	  9568: .long 0x00019837
00:000115A8 798D0100        	  9569: .long 0x00018D79
00:000115AC 48830100        	  9570: .long 0x00018348
00:000115B0 99790100        	  9571: .long 0x00017999
00:000115B4 63700100        	  9572: .long 0x00017063
00:000115B8 9E670100        	  9573: .long 0x0001679E
00:000115BC 415F0100        	  9574: .long 0x00015F41
00:000115C0 45570100        	  9575: .long 0x00015745
00:000115C4 A44F0100        	  9576: .long 0x00014FA4
00:000115C8 59480100        	  9577: .long 0x00014859
00:000115CC 5C410100        	  9578: .long 0x0001415C
00:000115D0 AA3A0100        	  9579: .long 0x00013AAA
00:000115D4 3E340100        	  9580: .long 0x0001343E
00:000115D8 142E0100        	  9581: .long 0x00012E14
00:000115DC 28280100        	  9582: .long 0x00012828
00:000115E0 76220100        	  9583: .long 0x00012276
00:000115E4 FB1C0100        	  9584: .long 0x00011CFB
00:000115E8 B4170100        	  9585: .long 0x000117B4
00:000115EC 9E120100        	  9586: .long 0x0001129E
00:000115F0 B60D0100        	  9587: .long 0x00010DB6
00:000115F4 FB080100        	  9588: .long 0x000108FB
00:000115F8 69040100        	  9589: .long 0x00010469
00:000115FC 00000100        	  9590: .long 0x00010000
00:00011600 BBFB0000        	  9591: .long 0x0000FBBB
00:00011604 9BF70000        	  9592: .long 0x0000F79B
00:00011608 9CF30000        	  9593: .long 0x0000F39C
00:0001160C BEEF0000        	  9594: .long 0x0000EFBE
00:00011610 FFFFFFFF        	  9595: .long 0xFFFFFFFF
00:00011614 00003C00        	  9596: .long 0x003C0000
00:00011618 00001E00        	  9597: .long 0x001E0000
00:0001161C 00001400        	  9598: .long 0x00140000
00:00011620 00000F00        	  9599: .long 0x000F0000
00:00011624 00000C00        	  9600: .long 0x000C0000
00:00011628 00000A00        	  9601: .long 0x000A0000
00:0001162C 49920800        	  9602: .long 0x00089249
00:00011630 00800700        	  9603: .long 0x00078000
00:00011634 AAAA0600        	  9604: .long 0x0006AAAA
00:00011638 00000600        	  9605: .long 0x00060000
00:0001163C 5D740500        	  9606: .long 0x0005745D
00:00011640 00000500        	  9607: .long 0x00050000
00:00011644 899D0400        	  9608: .long 0x00049D89
00:00011648 24490400        	  9609: .long 0x00044924
00:0001164C 00000400        	  9610: .long 0x00040000
00:00011650 00C00300        	  9611: .long 0x0003C000
00:00011654 87870300        	  9612: .long 0x00038787
00:00011658 55550300        	  9613: .long 0x00035555
00:0001165C 6B280300        	  9614: .long 0x0003286B
00:00011660 00000300        	  9615: .long 0x00030000
00:00011664 6DDB0200        	  9616: .long 0x0002DB6D
00:00011668 2EBA0200        	  9617: .long 0x0002BA2E
00:0001166C D39B0200        	  9618: .long 0x00029BD3
00:00011670 00800200        	  9619: .long 0x00028000
00:00011674 66660200        	  9620: .long 0x00026666
00:00011678 C44E0200        	  9621: .long 0x00024EC4
00:0001167C E3380200        	  9622: .long 0x000238E3
00:00011680 92240200        	  9623: .long 0x00022492
00:00011684 A7110200        	  9624: .long 0x000211A7
00:00011688 00000200        	  9625: .long 0x00020000
00:0001168C 7BEF0100        	  9626: .long 0x0001EF7B
00:00011690 00E00100        	  9627: .long 0x0001E000
00:00011694 74D10100        	  9628: .long 0x0001D174
00:00011698 C3C30100        	  9629: .long 0x0001C3C3
00:0001169C DBB60100        	  9630: .long 0x0001B6DB
00:000116A0 AAAA0100        	  9631: .long 0x0001AAAA
00:000116A4 229F0100        	  9632: .long 0x00019F22
00:000116A8 35940100        	  9633: .long 0x00019435
00:000116AC D8890100        	  9634: .long 0x000189D8
00:000116B0 00800100        	  9635: .long 0x00018000
00:000116B4 A2760100        	  9636: .long 0x000176A2
00:000116B8 B66D0100        	  9637: .long 0x00016DB6
00:000116BC 35650100        	  9638: .long 0x00016535
00:000116C0 175D0100        	  9639: .long 0x00015D17
00:000116C4 55550100        	  9640: .long 0x00015555
00:000116C8 E94D0100        	  9641: .long 0x00014DE9
00:000116CC CE460100        	  9642: .long 0x000146CE
00:000116D0 00400100        	  9643: .long 0x00014000
00:000116D4 78390100        	  9644: .long 0x00013978
00:000116D8 33330100        	  9645: .long 0x00013333
00:000116DC 2D2D0100        	  9646: .long 0x00012D2D
00:000116E0 62270100        	  9647: .long 0x00012762
00:000116E4 CF210100        	  9648: .long 0x000121CF
00:000116E8 711C0100        	  9649: .long 0x00011C71
00:000116EC 45170100        	  9650: .long 0x00011745
00:000116F0 49120100        	  9651: .long 0x00011249
00:000116F4 790D0100        	  9652: .long 0x00010D79
00:000116F8 D3080100        	  9653: .long 0x000108D3
00:000116FC 56040100        	  9654: .long 0x00010456
00:00011700 00000100        	  9655: .long 0x00010000
00:00011704 CDFB0000        	  9656: .long 0x0000FBCD
00:00011708 BDF70000        	  9657: .long 0x0000F7BD
00:0001170C CFF30000        	  9658: .long 0x0000F3CF
00:00011710 FFFFFFFF        	  9659: .long 0xFFFFFFFF
00:00011714 00003D00        	  9660: .long 0x003D0000
00:00011718 00801E00        	  9661: .long 0x001E8000
00:0001171C 55551400        	  9662: .long 0x00145555
00:00011720 00400F00        	  9663: .long 0x000F4000
00:00011724 33330C00        	  9664: .long 0x000C3333
00:00011728 AA2A0A00        	  9665: .long 0x000A2AAA
00:0001172C DBB60800        	  9666: .long 0x0008B6DB
00:00011730 00A00700        	  9667: .long 0x0007A000
00:00011734 1CC70600        	  9668: .long 0x0006C71C
00:00011738 99190600        	  9669: .long 0x00061999
00:0001173C A28B0500        	  9670: .long 0x00058BA2
00:00011740 55150500        	  9671: .long 0x00051555
00:00011744 3BB10400        	  9672: .long 0x0004B13B
00:00011748 6D5B0400        	  9673: .long 0x00045B6D
00:0001174C 11110400        	  9674: .long 0x00041111
00:00011750 00D00300        	  9675: .long 0x0003D000
00:00011754 96960300        	  9676: .long 0x00039696
00:00011758 8E630300        	  9677: .long 0x0003638E
00:0001175C E5350300        	  9678: .long 0x000335E5
00:00011760 CC0C0300        	  9679: .long 0x00030CCC
00:00011764 9EE70200        	  9680: .long 0x0002E79E
00:00011768 D1C50200        	  9681: .long 0x0002C5D1
00:0001176C F4A60200        	  9682: .long 0x0002A6F4
00:00011770 AA8A0200        	  9683: .long 0x00028AAA
00:00011774 A3700200        	  9684: .long 0x000270A3
00:00011778 9D580200        	  9685: .long 0x0002589D
00:0001177C 5E420200        	  9686: .long 0x0002425E
00:00011780 B62D0200        	  9687: .long 0x00022DB6
00:00011784 7B1A0200        	  9688: .long 0x00021A7B
00:00011788 88080200        	  9689: .long 0x00020888
00:0001178C BDF70100        	  9690: .long 0x0001F7BD
00:00011790 00E80100        	  9691: .long 0x0001E800
00:00011794 36D90100        	  9692: .long 0x0001D936
00:00011798 4BCB0100        	  9693: .long 0x0001CB4B
00:0001179C 2BBE0100        	  9694: .long 0x0001BE2B
00:000117A0 C7B10100        	  9695: .long 0x0001B1C7
00:000117A4 0DA60100        	  9696: .long 0x0001A60D
00:000117A8 F29A0100        	  9697: .long 0x00019AF2
00:000117AC 69900100        	  9698: .long 0x00019069
00:000117B0 66860100        	  9699: .long 0x00018666
00:000117B4 E07C0100        	  9700: .long 0x00017CE0
00:000117B8 CF730100        	  9701: .long 0x000173CF
00:000117BC 296B0100        	  9702: .long 0x00016B29
00:000117C0 E8620100        	  9703: .long 0x000162E8
00:000117C4 055B0100        	  9704: .long 0x00015B05
00:000117C8 7A530100        	  9705: .long 0x0001537A
00:000117CC 414C0100        	  9706: .long 0x00014C41
00:000117D0 55450100        	  9707: .long 0x00014555
00:000117D4 B13E0100        	  9708: .long 0x00013EB1
00:000117D8 51380100        	  9709: .long 0x00013851
00:000117DC 32320100        	  9710: .long 0x00013232
00:000117E0 4E2C0100        	  9711: .long 0x00012C4E
00:000117E4 A4260100        	  9712: .long 0x000126A4
00:000117E8 2F210100        	  9713: .long 0x0001212F
00:000117EC ED1B0100        	  9714: .long 0x00011BED
00:000117F0 DB160100        	  9715: .long 0x000116DB
00:000117F4 F7110100        	  9716: .long 0x000111F7
00:000117F8 3D0D0100        	  9717: .long 0x00010D3D
00:000117FC AD080100        	  9718: .long 0x000108AD
00:00011800 44040100        	  9719: .long 0x00010444
00:00011804 00000100        	  9720: .long 0x00010000
00:00011808 DEFB0000        	  9721: .long 0x0000FBDE
00:0001180C DFF70000        	  9722: .long 0x0000F7DF
00:00011810 FFFFFFFF        	  9723: .long 0xFFFFFFFF
00:00011814 00003E00        	  9724: .long 0x003E0000
00:00011818 00001F00        	  9725: .long 0x001F0000
00:0001181C AAAA1400        	  9726: .long 0x0014AAAA
00:00011820 00800F00        	  9727: .long 0x000F8000
00:00011824 66660C00        	  9728: .long 0x000C6666
00:00011828 55550A00        	  9729: .long 0x000A5555
00:0001182C 6DDB0800        	  9730: .long 0x0008DB6D
00:00011830 00C00700        	  9731: .long 0x0007C000
00:00011834 8EE30600        	  9732: .long 0x0006E38E
00:00011838 33330600        	  9733: .long 0x00063333
00:0001183C E8A20500        	  9734: .long 0x0005A2E8
00:00011840 AA2A0500        	  9735: .long 0x00052AAA
00:00011844 ECC40400        	  9736: .long 0x0004C4EC
00:00011848 B66D0400        	  9737: .long 0x00046DB6
00:0001184C 22220400        	  9738: .long 0x00042222
00:00011850 00E00300        	  9739: .long 0x0003E000
00:00011854 A5A50300        	  9740: .long 0x0003A5A5
00:00011858 C7710300        	  9741: .long 0x000371C7
00:0001185C 5E430300        	  9742: .long 0x0003435E
00:00011860 99190300        	  9743: .long 0x00031999
00:00011864 CFF30200        	  9744: .long 0x0002F3CF
00:00011868 74D10200        	  9745: .long 0x0002D174
00:0001186C 16B20200        	  9746: .long 0x0002B216
00:00011870 55950200        	  9747: .long 0x00029555
00:00011874 E17A0200        	  9748: .long 0x00027AE1
00:00011878 76620200        	  9749: .long 0x00026276
00:0001187C DA4B0200        	  9750: .long 0x00024BDA
00:00011880 DB360200        	  9751: .long 0x000236DB
00:00011884 4F230200        	  9752: .long 0x0002234F
00:00011888 11110200        	  9753: .long 0x00021111
00:0001188C 00000200        	  9754: .long 0x00020000
00:00011890 00F00100        	  9755: .long 0x0001F000
00:00011894 F8E00100        	  9756: .long 0x0001E0F8
00:00011898 D2D20100        	  9757: .long 0x0001D2D2
00:0001189C 7CC50100        	  9758: .long 0x0001C57C
00:000118A0 E3B80100        	  9759: .long 0x0001B8E3
00:000118A4 F9AC0100        	  9760: .long 0x0001ACF9
00:000118A8 AFA10100        	  9761: .long 0x0001A1AF
00:000118AC F9960100        	  9762: .long 0x000196F9
00:000118B0 CC8C0100        	  9763: .long 0x00018CCC
00:000118B4 1F830100        	  9764: .long 0x0001831F
00:000118B8 E7790100        	  9765: .long 0x000179E7
00:000118BC 1D710100        	  9766: .long 0x0001711D
00:000118C0 BA680100        	  9767: .long 0x000168BA
00:000118C4 B6600100        	  9768: .long 0x000160B6
00:000118C8 0B590100        	  9769: .long 0x0001590B
00:000118CC B3510100        	  9770: .long 0x000151B3
00:000118D0 AA4A0100        	  9771: .long 0x00014AAA
00:000118D4 EB430100        	  9772: .long 0x000143EB
00:000118D8 703D0100        	  9773: .long 0x00013D70
00:000118DC 37370100        	  9774: .long 0x00013737
00:000118E0 3B310100        	  9775: .long 0x0001313B
00:000118E4 782B0100        	  9776: .long 0x00012B78
00:000118E8 ED250100        	  9777: .long 0x000125ED
00:000118EC 94200100        	  9778: .long 0x00012094
00:000118F0 6D1B0100        	  9779: .long 0x00011B6D
00:000118F4 74160100        	  9780: .long 0x00011674
00:000118F8 A7110100        	  9781: .long 0x000111A7
00:000118FC 040D0100        	  9782: .long 0x00010D04
00:00011900 88080100        	  9783: .long 0x00010888
00:00011904 32040100        	  9784: .long 0x00010432
00:00011908 00000100        	  9785: .long 0x00010000
00:0001190C EFFB0000        	  9786: .long 0x0000FBEF
00:00011910 FFFFFFFF        	  9787: .long 0xFFFFFFFF
00:00011914 00003F00        	  9788: .long 0x003F0000
00:00011918 00801F00        	  9789: .long 0x001F8000
00:0001191C 00001500        	  9790: .long 0x00150000
00:00011920 00C00F00        	  9791: .long 0x000FC000
00:00011924 99990C00        	  9792: .long 0x000C9999
00:00011928 00800A00        	  9793: .long 0x000A8000
00:0001192C 00000900        	  9794: .long 0x00090000
00:00011930 00E00700        	  9795: .long 0x0007E000
00:00011934 00000700        	  9796: .long 0x00070000
00:00011938 CC4C0600        	  9797: .long 0x00064CCC
00:0001193C 2EBA0500        	  9798: .long 0x0005BA2E
00:00011940 00400500        	  9799: .long 0x00054000
00:00011944 9DD80400        	  9800: .long 0x0004D89D
00:00011948 00800400        	  9801: .long 0x00048000
00:0001194C 33330400        	  9802: .long 0x00043333
00:00011950 00F00300        	  9803: .long 0x0003F000
00:00011954 B4B40300        	  9804: .long 0x0003B4B4
00:00011958 00800300        	  9805: .long 0x00038000
00:0001195C D7500300        	  9806: .long 0x000350D7
00:00011960 66260300        	  9807: .long 0x00032666
00:00011964 00000300        	  9808: .long 0x00030000
00:00011968 17DD0200        	  9809: .long 0x0002DD17
00:0001196C 37BD0200        	  9810: .long 0x0002BD37
00:00011970 00A00200        	  9811: .long 0x0002A000
00:00011974 1E850200        	  9812: .long 0x0002851E
00:00011978 4E6C0200        	  9813: .long 0x00026C4E
00:0001197C 55550200        	  9814: .long 0x00025555
00:00011980 00400200        	  9815: .long 0x00024000
00:00011984 232C0200        	  9816: .long 0x00022C23
00:00011988 99190200        	  9817: .long 0x00021999
00:0001198C 42080200        	  9818: .long 0x00020842
00:00011990 00F80100        	  9819: .long 0x0001F800
00:00011994 BAE80100        	  9820: .long 0x0001E8BA
00:00011998 5ADA0100        	  9821: .long 0x0001DA5A
00:0001199C CCCC0100        	  9822: .long 0x0001CCCC
00:000119A0 00C00100        	  9823: .long 0x0001C000
00:000119A4 E4B30100        	  9824: .long 0x0001B3E4
00:000119A8 6BA80100        	  9825: .long 0x0001A86B
00:000119AC 899D0100        	  9826: .long 0x00019D89
00:000119B0 33930100        	  9827: .long 0x00019333
00:000119B4 5D890100        	  9828: .long 0x0001895D
00:000119B8 00800100        	  9829: .long 0x00018000
00:000119BC 11770100        	  9830: .long 0x00017711
00:000119C0 8B6E0100        	  9831: .long 0x00016E8B
00:000119C4 66660100        	  9832: .long 0x00016666
00:000119C8 9B5E0100        	  9833: .long 0x00015E9B
00:000119CC 26570100        	  9834: .long 0x00015726
00:000119D0 00500100        	  9835: .long 0x00015000
00:000119D4 24490100        	  9836: .long 0x00014924
00:000119D8 8F420100        	  9837: .long 0x0001428F
00:000119DC 3C3C0100        	  9838: .long 0x00013C3C
00:000119E0 27360100        	  9839: .long 0x00013627
00:000119E4 4D300100        	  9840: .long 0x0001304D
00:000119E8 AA2A0100        	  9841: .long 0x00012AAA
00:000119EC 3C250100        	  9842: .long 0x0001253C
00:000119F0 00200100        	  9843: .long 0x00012000
00:000119F4 F21A0100        	  9844: .long 0x00011AF2
00:000119F8 11160100        	  9845: .long 0x00011611
00:000119FC 5B110100        	  9846: .long 0x0001115B
00:00011A00 CC0C0100        	  9847: .long 0x00010CCC
00:00011A04 64080100        	  9848: .long 0x00010864
00:00011A08 21040100        	  9849: .long 0x00010421
00:00011A0C 00000100        	  9850: .long 0x00010000
                            	  9851: 


Symbols by name:
Entry                            A:0000A614
OS_WriteS                        S:00000001

Symbols by value:
00000001 OS_WriteS
0000A614 Entry
