Sections:
00: "seg8000" (8000-11A10)


Source: "3-assembled-output/Lander.arm"
                            	     1: .set CODE, 0x00008000
                            	     2: .set TILE_SIZE, 0x01000000
                            	     3: .set TILES_X, 13
                            	     4: .set TILES_Z, 11
                            	     5: .set MAX_PARTICLES, 484
                            	     6: .set LAUNCHPAD_OBJECT, 9
                            	     7: .set LAUNCHPAD_ALTITUDE, 0x03500000
                            	     8: .set SEA_LEVEL, 0x05500000
                            	     9: .set LANDING_SPEED, 0x00200000
                            	    10: .set SMOKE_RISING_SPEED, 0x00080000
                            	    11: .set UNDERCARRIAGE_Y, 0x00640000
                            	    12: .set BUFFER_SIZE, 4308
                            	    13: .set STORE, 256 * (TILES_X / 32)
                            	    14: .set LAUNCHPAD_Y, LAUNCHPAD_ALTITUDE - UNDERCARRIAGE_Y
                            	    15: .set LAUNCHPAD_SIZE, TILE_SIZE * 8
                            	    16: .set HIGHEST_ALTITUDE, TILE_SIZE * 52
                            	    17: .set SPLASH_HEIGHT, TILE_SIZE / 16
                            	    18: .set EXPLODE_Y, TILE_SIZE * 5 / 16
                            	    19: .set SMOKE_HEIGHT, TILE_SIZE * 3 / 4
                            	    20: .set SAFE_HEIGHT, TILE_SIZE * 3 / 2
                            	    21: .set CAMERA_PLAYER_Z, (TILES_Z - 6) * TILE_SIZE
                            	    22: .set LAND_MID_HEIGHT, TILE_SIZE * 5
                            	    23: .set PLAYER_FRONT_Z, (TILES_Z - 5) * TILE_SIZE
                            	    24: .set ROCK_HEIGHT, TILE_SIZE * 32
                            	    25: .set LANDSCAPE_X_WIDTH, TILE_SIZE * (TILES_X - 2)
                            	    26: .set LANDSCAPE_Z_DEPTH, TILE_SIZE * (TILES_Z - 1)
                            	    27: .set LANDSCAPE_X, LANDSCAPE_X_WIDTH / 2
                            	    28: .set LANDSCAPE_Y, 0
                            	    29: .set LANDSCAPE_Z, LANDSCAPE_Z_DEPTH + (10 * TILE_SIZE)
                            	    30: .set HALF_TILES_X, TILES_X / 2
                            	    31: .set LANDSCAPE_X_HALF, TILE_SIZE * HALF_TILES_X
                            	    32: .set LANDSCAPE_Z_BEYOND, LANDSCAPE_Z_DEPTH + TILE_SIZE
                            	    33: .set LANDSCAPE_Z_FRONT, LANDSCAPE_Z - LANDSCAPE_Z_DEPTH
                            	    34: .set LANDSCAPE_Z_MID, LANDSCAPE_Z - CAMERA_PLAYER_Z
                            	    35: .set OS_WriteC, 0x00
                            	    36: .set OS_WriteS, 0x01
                            	    37: .set OS_ReadC, 0x04
                            	    38: .set OS_Byte, 0x06
                            	    39: .set OS_Word, 0x07
                            	    40: .set OS_Mouse, 0x1C
                            	    41: .set OS_BinaryToDecimal, 0x28
                            	    42: .set stack, 0x000121FC
                            	    43: .set workspace, stack + 4
                            	    44: .set xObject, 0x00
                            	    45: .set yObject, 0x04
                            	    46: .set zObject, 0x08
                            	    47: .set rotationMatrix, 0x30
                            	    48: .set xNoseV, 0x30
                            	    49: .set xRoofV, 0x34
                            	    50: .set xSideV, 0x38
                            	    51: .set yNoseV, 0x3C
                            	    52: .set yRoofV, 0x40
                            	    53: .set ySideV, 0x44
                            	    54: .set zNoseV, 0x48
                            	    55: .set zRoofV, 0x4C
                            	    56: .set zSideV, 0x50
                            	    57: .set xVertex, 0x54
                            	    58: .set yVertex, 0x58
                            	    59: .set zVertex, 0x5C
                            	    60: .set xVertexRotated, 0x64
                            	    61: .set yVertexRotated, 0x68
                            	    62: .set zVertexRotated, 0x6C
                            	    63: .set xCoord, 0x74
                            	    64: .set yCoord, 0x78
                            	    65: .set zCoord, 0x7C
                            	    66: .set xObjectScaled, 0x84
                            	    67: .set yObjectScaled, 0x88
                            	    68: .set zObjectScaled, 0x8C
                            	    69: .set xPlayer, 0x94
                            	    70: .set yPlayer, 0x98
                            	    71: .set zPlayer, 0x9C
                            	    72: .set xVelocity, 0xA0
                            	    73: .set yVelocity, 0xA4
                            	    74: .set zVelocity, 0xA8
                            	    75: .set xThrust, 0xAC
                            	    76: .set yThrust, 0xB0
                            	    77: .set zThrust, 0xB4
                            	    78: .set previousColumn, 0xC4
                            	    79: .set tileCornerRow, 0xE4
                            	    80: .set unusedConfig, 0xF0
                            	    81: .set objectType, 0xF4
                            	    82: .set tileRowOddEven, 0xF8
                            	    83: .set altitude, 0x100
                            	    84: .set prevAltitude, 0x104
                            	    85: .set particleEnd, 0x108
                            	    86: .set particleCount, 0x10C
                            	    87: .set objectData, 0x110
                            	    88: .set objectFlags, 0x114
                            	    89: .set mainLoopCount, 0x118
                            	    90: .set crashLoopCount, 0x11C
                            	    91: .set crashedFlag, 0x120
                            	    92: .set currentScore, 0x124
                            	    93: .set fuelLevel, 0x128
                            	    94: .set gravity, 0x12C
                            	    95: .set playingGame, 0x130
                            	    96: .set remainingLives, 0x134
                            	    97: .set highScore, 0x138
                            	    98: .set xCamera, 0x13C
                            	    99: .set yCamera, 0x140
                            	   100: .set zCamera, 0x144
                            	   101: .set xCameraTile, 0x148
                            	   102: .set yCameraTile, 0x14C
                            	   103: .set zCameraTile, 0x150
                            	   104: .set shipDirection, 0x154
                            	   105: .set shipPitch, 0x158
                            	   106: .set fuelBurnRate, 0x15C
                            	   107: .set xLandscapeRow, 0x160
                            	   108: .set yLandscapeRow, 0x164
                            	   109: .set zLandscapeRow, 0x168
                            	   110: .set xLandscapeCol, 0x170
                            	   111: .set yLandscapeCol, 0x174
                            	   112: .set zLandscapeCol, 0x178
                            	   113: .set stringBuffer, 0x200
                            	   114: .set cornerStore1, 0x400
                            	   115: .set cornerStore2, 0x500 + STORE
                            	   116: .set vertexProjected, 0x600 + STORE * 2
                            	   117: .set particleData, 0x700 + STORE * 2
                            	   118: .set objectMap, 0x4400 + STORE * 2
                            	   119: .set buffers, 0x14400 + STORE * 2
                            	   120: .org     CODE
                            	   121: landscapeOffset:
00:00008000 000080FA        	   122: .long    -LANDSCAPE_X
00:00008004 00000000        	   123: .long    LANDSCAPE_Y
00:00008008 00000014        	   124: .long    LANDSCAPE_Z
                            	   125: landscapeOffsetAddr:
00:0000800C 00800000        	   126: .long    landscapeOffset
                            	   127: landscapeConfig:
00:00008010 3A              	   128: .byte    0x3A, TILES_X
00:00008011 0D
                            	   129: .rept (TILES_Z - 1) / 2
                            	   130: .byte   0xE3, TILES_X
                            	   131: .byte   0xE4, TILES_X
                            	   132: .endr
00:00008012 E3              	     1R .byte   0xE3, TILES_X
00:00008013 0D
00:00008014 E4              	     2R .byte   0xE4, TILES_X
00:00008015 0D
00:00008016 E3              	     1R .byte   0xE3, TILES_X
00:00008017 0D
00:00008018 E4              	     2R .byte   0xE4, TILES_X
00:00008019 0D
00:0000801A E3              	     1R .byte   0xE3, TILES_X
00:0000801B 0D
00:0000801C E4              	     2R .byte   0xE4, TILES_X
00:0000801D 0D
00:0000801E E3              	     1R .byte   0xE3, TILES_X
00:0000801F 0D
00:00008020 E4              	     2R .byte   0xE4, TILES_X
00:00008021 0D
00:00008022 E3              	     1R .byte   0xE3, TILES_X
00:00008023 0D
00:00008024 E4              	     2R .byte   0xE4, TILES_X
00:00008025 0D
00:00008026 E3              	   133: .byte    0xE3, TILES_X
00:00008027 0D
                            	   134: .balign 4
                            	   135: landscapeConfigAddr:
00:00008028 10800000        	   136: .long    landscapeConfig
                            	   137: graphicsBuffers:
                            	   138: .set buffer, workspace + buffers
                            	   139: .rept TILES_Z + 1
                            	   140: .long   buffer
                            	   141: .set buffer, buffer + BUFFER_SIZE
                            	   142: .endr
00:0000802C 00660200        	     1R .long   buffer
                            	     2R .set buffer, buffer + BUFFER_SIZE
00:00008030 D4760200        	     1R .long   buffer
                            	     2R .set buffer, buffer + BUFFER_SIZE
00:00008034 A8870200        	     1R .long   buffer
                            	     2R .set buffer, buffer + BUFFER_SIZE
00:00008038 7C980200        	     1R .long   buffer
                            	     2R .set buffer, buffer + BUFFER_SIZE
00:0000803C 50A90200        	     1R .long   buffer
                            	     2R .set buffer, buffer + BUFFER_SIZE
00:00008040 24BA0200        	     1R .long   buffer
                            	     2R .set buffer, buffer + BUFFER_SIZE
00:00008044 F8CA0200        	     1R .long   buffer
                            	     2R .set buffer, buffer + BUFFER_SIZE
00:00008048 CCDB0200        	     1R .long   buffer
                            	     2R .set buffer, buffer + BUFFER_SIZE
00:0000804C A0EC0200        	     1R .long   buffer
                            	     2R .set buffer, buffer + BUFFER_SIZE
00:00008050 74FD0200        	     1R .long   buffer
                            	     2R .set buffer, buffer + BUFFER_SIZE
00:00008054 480E0300        	     1R .long   buffer
                            	     2R .set buffer, buffer + BUFFER_SIZE
00:00008058 1C1F0300        	     1R .long   buffer
                            	     2R .set buffer, buffer + BUFFER_SIZE
                            	   143: graphicsBuffersEnd:
                            	   144: .set buffer, workspace + buffers
                            	   145: .rept TILES_Z + 1
                            	   146: .long   buffer
                            	   147: .set buffer, buffer + BUFFER_SIZE
                            	   148: .endr
00:0000805C 00660200        	     1R .long   buffer
                            	     2R .set buffer, buffer + BUFFER_SIZE
00:00008060 D4760200        	     1R .long   buffer
                            	     2R .set buffer, buffer + BUFFER_SIZE
00:00008064 A8870200        	     1R .long   buffer
                            	     2R .set buffer, buffer + BUFFER_SIZE
00:00008068 7C980200        	     1R .long   buffer
                            	     2R .set buffer, buffer + BUFFER_SIZE
00:0000806C 50A90200        	     1R .long   buffer
                            	     2R .set buffer, buffer + BUFFER_SIZE
00:00008070 24BA0200        	     1R .long   buffer
                            	     2R .set buffer, buffer + BUFFER_SIZE
00:00008074 F8CA0200        	     1R .long   buffer
                            	     2R .set buffer, buffer + BUFFER_SIZE
00:00008078 CCDB0200        	     1R .long   buffer
                            	     2R .set buffer, buffer + BUFFER_SIZE
00:0000807C A0EC0200        	     1R .long   buffer
                            	     2R .set buffer, buffer + BUFFER_SIZE
00:00008080 74FD0200        	     1R .long   buffer
                            	     2R .set buffer, buffer + BUFFER_SIZE
00:00008084 480E0300        	     1R .long   buffer
                            	     2R .set buffer, buffer + BUFFER_SIZE
00:00008088 1C1F0300        	     1R .long   buffer
                            	     2R .set buffer, buffer + BUFFER_SIZE
                            	   149: DrawLandscapeAndBuffers:
00:0000808C E0432DE9        	   150:  STMFD   R13!, {R5-R9, R14}
00:00008090 44319BE5        	   151:  LDR     R3, [R11, #zCamera]
00:00008094 FF9403E2        	   152:  AND     R9, R3, #0xFF000000
00:00008098 093043E0        	   153:  SUB     R3, R3, R9
00:0000809C 50918BE5        	   154:  STR     R9, [R11, #zCameraTile]
00:000080A0 3C419BE5        	   155:  LDR     R4, [R11, #xCamera]
00:000080A4 FF8404E2        	   156:  AND     R8, R4, #0xFF000000
00:000080A8 084044E0        	   157:  SUB     R4, R4, R8
00:000080AC 48818BE5        	   158:  STR     R8, [R11, #xCameraTile]
00:000080B0 165E8BE2        	   159:  ADD     R5, R11, #xLandscapeRow
00:000080B4 B0001FE5        	   160:  LDR     R0, landscapeOffsetAddr
00:000080B8 070090E8        	   161:  LDMFD   R0, {R0-R2}
00:000080BC 040040E0        	   162:  SUB     R0, R0, R4
00:000080C0 032042E0        	   163:  SUB     R2, R2, R3
00:000080C4 070085E8        	   164:  STMIA   R5, {R0-R2}
00:000080C8 0000A0E3        	   165:  MOV     R0, #0
00:000080CC E400CBE5        	   166:  STRB    R0, [R11, #tileCornerRow]
00:000080D0 0060A0E3        	   167:  MOV     R6, #0
00:000080D4 017B8BE2        	   168:  ADD     R7, R11, #cornerStore1
00:000080D8 F860CBE5        	   169:  STRB    R6, [R11, #tileRowOddEven]
                            	   170: land1:
00:000080DC E410DBE5        	   171:  LDRB    R1, [R11, #tileCornerRow]
00:000080E0 C0001FE5        	   172:  LDR     R0, landscapeConfigAddr
00:000080E4 810080E0        	   173:  ADD     R0, R0, R1, LSL #1
00:000080E8 01A0D0E5        	   174:  LDRB    R10, [R0, #1]
00:000080EC 0000D0E5        	   175:  LDRB    R0, [R0]
00:000080F0 F000CBE5        	   176:  STRB    R0, [R11, #unusedConfig]
00:000080F4 160E8BE2        	   177:  ADD     R0, R11, #xLandscapeRow
00:000080F8 070090E8        	   178:  LDMIA   R0, {R0-R2}
00:000080FC 174E8BE2        	   179:  ADD     R4, R11, #xLandscapeCol
00:00008100 070084E8        	   180:  STMIA   R4, {R0-R2}
00:00008104 48819BE5        	   181:  LDR     R8, [R11, #xCameraTile]
00:00008108 168548E2        	   182:  SUB     R8, R8, #LANDSCAPE_X
00:0000810C 0201A0E3        	   183:  MOV     R0, #0x80000000
00:00008110 C4008BE5        	   184:  STR     R0, [R11, #previousColumn]
                            	   185: land2:
00:00008114 360000EB        	   186:  BL      GetLandscapeAltitude
00:00008118 40E19BE5        	   187:  LDR     R14, [R11, #yCamera]
00:0000811C 0E0040E0        	   188:  SUB     R0, R0, R14
00:00008120 74018BE5        	   189:  STR     R0, [R11, #yLandscapeCol]
00:00008124 170E8BE2        	   190:  ADD     R0, R11, #xLandscapeCol
00:00008128 860500EB        	   191:  BL      ProjectVertexOntoScreen
00:0000812C 0F00002A        	   192:  BCS     land4
00:00008130 0300A7E8        	   193:  STMIA   R7!, {R0-R1}
00:00008134 000056E3        	   194:  CMP     R6, #0
00:00008138 0C00000A        	   195:  BEQ     land4
00:0000813C 0C00B6E8        	   196:  LDMIA   R6!, {R2-R3}
00:00008140 020152E3        	   197:  CMP     R2, #0x80000000
00:00008144 0060A003        	   198:  MOVEQ   R6, #0
00:00008148 0800000A        	   199:  BEQ     land4
00:0000814C C0012DE9        	   200:  STMFD   R13!, {R6-R8}
00:00008150 C4E08BE2        	   201:  ADD     R14, R11, #previousColumn
00:00008154 F0009EE8        	   202:  LDMIA   R14, {R4-R7}
00:00008158 0F008EE8        	   203:  STMIA   R14, {R0-R3}
00:0000815C 020154E3        	   204:  CMP     R4, #0x80000000
00:00008160 0100000A        	   205:  BEQ     land3
00:00008164 5C0000EB        	   206:  BL      GetLandscapeTileColour
00:00008168 160700EB        	   207:  BL      DrawQuadrilateral
                            	   208: land3:
00:0000816C C001BDE8        	   209:  LDMFD   R13!, {R6-R8}
                            	   210: land4:
00:00008170 01A05AE2        	   211:  SUBS    R10, R10, #1
00:00008174 70019B15        	   212:  LDRNE   R0, [R11, #xLandscapeCol]
00:00008178 01048012        	   213:  ADDNE   R0, R0, #TILE_SIZE
00:0000817C 70018B15        	   214:  STRNE   R0, [R11, #xLandscapeCol]
00:00008180 01848812        	   215:  ADDNE   R8, R8, #TILE_SIZE
00:00008184 E2FFFF1A        	   216:  BNE     land2
00:00008188 E400DBE5        	   217:  LDRB    R0, [R11, #tileCornerRow]
00:0000818C 020050E2        	   218:  SUBS    R0, R0, #2
00:00008190 D106005B        	   219:  BLPL    DrawGraphicsBuffer
00:00008194 E400DBE5        	   220:  LDRB    R0, [R11, #tileCornerRow]
00:00008198 010090E2        	   221:  ADDS    R0, R0, #1
00:0000819C 0B0050E3        	   222:  CMP     R0, #TILES_Z
00:000081A0 0E00000A        	   223:  BEQ     land5
00:000081A4 E400CBE5        	   224:  STRB    R0, [R11, #tileCornerRow]
00:000081A8 68019BE5        	   225:  LDR     R0, [R11, #zLandscapeRow]
00:000081AC 010440E2        	   226:  SUB     R0, R0, #TILE_SIZE
00:000081B0 68018BE5        	   227:  STR     R0, [R11, #zLandscapeRow]
00:000081B4 019449E2        	   228:  SUB     R9, R9, #TILE_SIZE
00:000081B8 0201A0E3        	   229:  MOV     R0, #0x80000000
00:000081BC 000087E5        	   230:  STR     R0, [R7]
00:000081C0 F800DBE5        	   231:  LDRB    R0, [R11, #tileRowOddEven]
00:000081C4 010030E2        	   232:  EORS    R0, R0, #1
00:000081C8 F800CBE5        	   233:  STRB    R0, [R11, #tileRowOddEven]
00:000081CC 016B8B12        	   234:  ADDNE   R6, R11, #cornerStore1
00:000081D0 056C8B02        	   235:  ADDEQ   R6, R11, #cornerStore2
00:000081D4 017B8B02        	   236:  ADDEQ   R7, R11, #cornerStore1
00:000081D8 057C8B12        	   237:  ADDNE   R7, R11, #cornerStore2
00:000081DC BEFFFFEA        	   238:  B       land1
                            	   239: land5:
00:000081E0 0900A0E3        	   240:  MOV     R0, #TILES_Z - 2
00:000081E4 BC0600EB        	   241:  BL      DrawGraphicsBuffer
00:000081E8 0A00A0E3        	   242:  MOV     R0, #TILES_Z - 1
00:000081EC BA0600EB        	   243:  BL      DrawGraphicsBuffer
00:000081F0 E083BDE8        	   244:  LDMFD   R13!, {R5-R9, PC}
                            	   245: GetLandscapeAltitude:
00:000081F4 00019BE5        	   246:  LDR     R0, [R11, #altitude]
00:000081F8 04018BE5        	   247:  STR     R0, [R11, #prevAltitude]
00:000081FC 890048E0        	   248:  SUB     R0, R8, R9, LSL #1
00:00008200 E82F9FE5        	   249:  LDR     R2, sinTableAddr
00:00008204 0306C0E3        	   250:  BIC     R0, R0, #0x00300000
00:00008208 200A92E7        	   251:  LDR     R0, [R2, R0, LSR #20]
00:0000820C C003A0E1        	   252:  MOV     R0, R0, ASR #7
00:00008210 881089E0        	   253:  ADD     R1, R9, R8, LSL #1
00:00008214 811089E0        	   254:  ADD     R1, R9, R1, LSL #1
00:00008218 083081E0        	   255:  ADD     R3, R1, R8
00:0000821C CC2F9FE5        	   256:  LDR     R2, sinTableAddr
00:00008220 0316C1E3        	   257:  BIC     R1, R1, #0x00300000
00:00008224 211A92E7        	   258:  LDR     R1, [R2, R1, LSR #20]
00:00008228 C10380E0        	   259:  ADD     R0, R0, R1, ASR #7
00:0000822C 881049E0        	   260:  SUB     R1, R9, R8, LSL #1
00:00008230 811068E0        	   261:  RSB     R1, R8, R1, LSL #1
00:00008234 091081E0        	   262:  ADD     R1, R1, R9
00:00008238 B02F9FE5        	   263:  LDR     R2, sinTableAddr
00:0000823C 0316C1E3        	   264:  BIC     R1, R1, #0x00300000
00:00008240 211A92E7        	   265:  LDR     R1, [R2, R1, LSR #20]
00:00008244 C10380E0        	   266:  ADD     R0, R0, R1, ASR #7
00:00008248 881089E0        	   267:  ADD     R1, R9, R8, LSL #1
00:0000824C 011189E0        	   268:  ADD     R1, R9, R1, LSL #2
00:00008250 081041E0        	   269:  SUB     R1, R1, R8
00:00008254 942F9FE5        	   270:  LDR     R2, sinTableAddr
00:00008258 0316C1E3        	   271:  BIC     R1, R1, #0x00300000
00:0000825C 211A92E7        	   272:  LDR     R1, [R2, R1, LSR #20]
00:00008260 C10380E0        	   273:  ADD     R0, R0, R1, ASR #7
00:00008264 891183E0        	   274:  ADD     R1, R3, R9, LSL #3
00:00008268 802F9FE5        	   275:  LDR     R2, sinTableAddr
00:0000826C 0316C1E3        	   276:  BIC     R1, R1, #0x00300000
00:00008270 211A92E7        	   277:  LDR     R1, [R2, R1, LSR #20]
00:00008274 410480E0        	   278:  ADD     R0, R0, R1, ASR #8
00:00008278 831089E0        	   279:  ADD     R1, R9, R3, LSL #1
00:0000827C 6C2F9FE5        	   280:  LDR     R2, sinTableAddr
00:00008280 0316C1E3        	   281:  BIC     R1, R1, #0x00300000
00:00008284 211A92E7        	   282:  LDR     R1, [R2, R1, LSR #20]
00:00008288 410480E0        	   283:  ADD     R0, R0, R1, ASR #8
00:0000828C 050460E2        	   284:  RSB     R0, R0, #LAND_MID_HEIGHT
00:00008290 550650E3        	   285:  CMP     R0, #SEA_LEVEL
00:00008294 5506A0C3        	   286:  MOVGT   R0, #SEA_LEVEL
00:00008298 020358E3        	   287:  CMP     R8, #LAUNCHPAD_SIZE
00:0000829C 02035933        	   288:  CMPLO   R9, #LAUNCHPAD_SIZE
00:000082A0 3506A033        	   289:  MOVLO   R0, #LAUNCHPAD_ALTITUDE
00:000082A4 00018BE5        	   290:  STR     R0, [R11, #altitude]
00:000082A8 0EF0A0E1        	   291:  MOV     PC, R14
                            	   292: GetLandscapeBelowVertex:
00:000082AC 00432DE9        	   293:  STMFD   R13!, {R8-R9, R14}
00:000082B0 008090E5        	   294:  LDR     R8, [R0]
00:000082B4 3C119BE5        	   295:  LDR     R1, [R11, #xCamera]
00:000082B8 018088E0        	   296:  ADD     R8, R8, R1
00:000082BC 089090E5        	   297:  LDR     R9, [R0, #8]
00:000082C0 44119BE5        	   298:  LDR     R1, [R11, #zCamera]
00:000082C4 019089E0        	   299:  ADD     R9, R9, R1
00:000082C8 059349E2        	   300:  SUB     R9, R9, #LANDSCAPE_Z
00:000082CC C8FFFFEB        	   301:  BL      GetLandscapeAltitude
00:000082D0 40E19BE5        	   302:  LDR     R14, [R11, #yCamera]
00:000082D4 0E0040E0        	   303:  SUB     R0, R0, R14
00:000082D8 0083BDE8        	   304:  LDMFD   R13!, {R8-R9, PC}
                            	   305: GetLandscapeTileColour:
00:000082DC 1F402DE9        	   306:  STMFD   R13!, {R0-R4, R14}
00:000082E0 04319BE5        	   307:  LDR     R3, [R11, #prevAltitude]
00:000082E4 00419BE5        	   308:  LDR     R4, [R11, #altitude]
00:000082E8 04E053E0        	   309:  SUBS    R14, R3, R4
00:000082EC 00E0A043        	   310:  MOVMI   R14, #0
00:000082F0 102004E2        	   311:  AND     R2, R4, #0x10
00:000082F4 0020A0E3        	   312:  MOV     R2, #0
00:000082F8 081004E2        	   313:  AND     R1, R4, #0x8
00:000082FC A110A0E1        	   314:  MOV     R1, R1, LSR #1
00:00008300 041081E2        	   315:  ADD     R1, R1, #4
00:00008304 040004E2        	   316:  AND     R0, R4, #0x4
00:00008308 350654E3        	   317:  CMP     R4, #LAUNCHPAD_ALTITUDE
00:0000830C 0400A003        	   318:  MOVEQ   R0, #4
00:00008310 0410A003        	   319:  MOVEQ   R1, #4
00:00008314 0420A003        	   320:  MOVEQ   R2, #4
00:00008318 550654E3        	   321:  CMP     R4, #SEA_LEVEL
00:0000831C 55065303        	   322:  CMPEQ   R3, #SEA_LEVEL
00:00008320 0010A003        	   323:  MOVEQ   R1, #0
00:00008324 0420A003        	   324:  MOVEQ   R2, #4
00:00008328 0000A003        	   325:  MOVEQ   R0, #0
00:0000832C E480DBE5        	   326:  LDRB    R8, [R11, #tileCornerRow]
00:00008330 2E3B88E0        	   327:  ADD     R3, R8, R14, LSR #22
00:00008334 030080E0        	   328:  ADD     R0, R0, R3
00:00008338 031081E0        	   329:  ADD     R1, R1, R3
00:0000833C 032082E0        	   330:  ADD     R2, R2, R3
00:00008340 100050E3        	   331:  CMP     R0, #16
00:00008344 0F00A023        	   332:  MOVHS   R0, #15
00:00008348 100051E3        	   333:  CMP     R1, #16
00:0000834C 0F10A023        	   334:  MOVHS   R1, #15
00:00008350 100052E3        	   335:  CMP     R2, #16
00:00008354 0F20A023        	   336:  MOVHS   R2, #15
00:00008358 028081E1        	   337:  ORR     R8, R1, R2
00:0000835C 038008E2        	   338:  AND     R8, R8, #0x3
00:00008360 008088E1        	   339:  ORR     R8, R8, R0
00:00008364 078008E2        	   340:  AND     R8, R8, #0x7
00:00008368 080010E3        	   341:  TST     R0, #0x8
00:0000836C 10808813        	   342:  ORRNE   R8, R8, #0x10
00:00008370 0C1001E2        	   343:  AND     R1, R1, #0xc
00:00008374 818188E1        	   344:  ORR     R8, R8, R1, LSL #3
00:00008378 040012E3        	   345:  TST     R2, #0x4
00:0000837C 08808813        	   346:  ORRNE   R8, R8, #0x8
00:00008380 080012E3        	   347:  TST     R2, #0x8
00:00008384 80808813        	   348:  ORRNE   R8, R8, #0x80
00:00008388 088488E1        	   349:  ORR     R8, R8, R8, LSL #8
00:0000838C 088888E1        	   350:  ORR     R8, R8, R8, LSL #16
00:00008390 088C88E1        	   351:  ORR     R8, R8, R8, LSL #24
00:00008394 1F80BDE8        	   352:  LDMFD   R13!, {R0-R4, PC}
                            	   353: MoveAndDrawPlayer:
00:00008398 00402DE9        	   354:  STMFD   R13!, {R14}
00:0000839C 1C0000EF        	   355:  SWI     OS_Mouse
00:000083A0 5C21CBE5        	   356:  STRB    R2, [R11, #fuelBurnRate]
00:000083A4 28E19BE5        	   357:  LDR     R14, [R11, #fuelLevel]
00:000083A8 00005EE3        	   358:  CMP     R14, #0
00:000083AC 5CE1CB05        	   359:  STREQB  R14, [R11, #fuelBurnRate]
00:000083B0 010B50E3        	   360:  CMP     R0, #1024
00:000083B4 010BA023        	   361:  MOVHS   R0, #1024
00:000083B8 01004022        	   362:  SUBHS   R0, R0, #1
00:000083BC 020C40E2        	   363:  SUB     R0, R0, #512
00:000083C0 011B61E2        	   364:  RSB     R1, R1, #1024
00:000083C4 021C41E2        	   365:  SUB     R1, R1, #512
00:000083C8 000BA0E1        	   366:  MOV     R0, R0, LSL #22
00:000083CC 011BA0E1        	   367:  MOV     R1, R1, LSL #22
00:000083D0 670400EB        	   368:  BL      GetMouseInPolarCoordinates
00:000083D4 010150E3        	   369:  CMP     R0, #0x40000000
00:000083D8 0101A023        	   370:  MOVHS   R0, #0x40000000
00:000083DC 01004022        	   371:  SUBHS   R0, R0, #1
00:000083E0 8000A0E1        	   372:  MOV     R0, R0, LSL #1
00:000083E4 58219BE5        	   373:  LDR     R2, [R11, #shipPitch]
00:000083E8 54319BE5        	   374:  LDR     R3, [R11, #shipDirection]
00:000083EC 014053E0        	   375:  SUBS    R4, R3, R1
00:000083F0 0200004A        	   376:  BMI     ship1
00:000083F4 030254E3        	   377:  CMP     R4, #0x30000000
00:000083F8 0342A023        	   378:  MOVHS   R4, #0x30000000
00:000083FC 010000EA        	   379:  B       ship2
                            	   380: ship1:
00:00008400 030274E3        	   381:  CMN     R4, #0x30000000
00:00008404 0342E033        	   382:  MVNLO   R4, #0x30000000
                            	   383: ship2:
00:00008408 005052E0        	   384:  SUBS    R5, R2, R0
00:0000840C 020000DA        	   385:  BLE     ship3
00:00008410 030255E3        	   386:  CMP     R5, #0x30000000
00:00008414 0352A023        	   387:  MOVHS   R5, #0x30000000
00:00008418 010000EA        	   388:  B       ship4
                            	   389: ship3:
00:0000841C 030275E3        	   390:  CMN     R5, #0x30000000
00:00008420 0352E033        	   391:  MVNLO   R5, #0x30000000
                            	   392: ship4:
00:00008424 C50042E0        	   393:  SUB     R0, R2, R5, ASR #1
00:00008428 C41043E0        	   394:  SUB     R1, R3, R4, ASR #1
00:0000842C 58018BE5        	   395:  STR     R0, [R11, #shipPitch]
00:00008430 54118BE5        	   396:  STR     R1, [R11, #shipDirection]
00:00008434 EA0300EB        	   397:  BL      CalculateRotationMatrix
00:00008438 94E08BE2        	   398:  ADD     R14, R11, #xPlayer
00:0000843C 3F009EE8        	   399:  LDMIA   R14, {R0-R5}
00:00008440 0D0371E3        	   400:  CMN     R1, #HIGHEST_ALTITUDE
00:00008444 5C91DBB5        	   401:  LDRLTB  R9, [R11, #fuelBurnRate]
00:00008448 0690C9B3        	   402:  BICLT   R9, R9, #0x6
00:0000844C 5C91CBB5        	   403:  STRLTB  R9, [R11, #fuelBurnRate]
00:00008450 34609BE5        	   404:  LDR     R6, [R11, #xRoofV]
00:00008454 40709BE5        	   405:  LDR     R7, [R11, #yRoofV]
00:00008458 4C809BE5        	   406:  LDR     R8, [R11, #zRoofV]
00:0000845C 5C91DBE5        	   407:  LDRB    R9, [R11, #fuelBurnRate]
00:00008460 040019E3        	   408:  TST     R9, #0x4
00:00008464 433343E0        	   409:  SUB     R3, R3, R3, ASR #6
00:00008468 C6354310        	   410:  SUBNE   R3, R3, R6, ASR #11
00:0000846C 030080E0        	   411:  ADD     R0, R0, R3
00:00008470 444344E0        	   412:  SUB     R4, R4, R4, ASR #6
00:00008474 C7454410        	   413:  SUBNE   R4, R4, R7, ASR #11
00:00008478 041081E0        	   414:  ADD     R1, R1, R4
00:0000847C 455345E0        	   415:  SUB     R5, R5, R5, ASR #6
00:00008480 C8554510        	   416:  SUBNE   R5, R5, R8, ASR #11
00:00008484 052082E0        	   417:  ADD     R2, R2, R5
00:00008488 020019E3        	   418:  TST     R9, #0x2
00:0000848C C6364310        	   419:  SUBNE   R3, R3, R6, ASR #13
00:00008490 C7464410        	   420:  SUBNE   R4, R4, R7, ASR #13
00:00008494 C8564510        	   421:  SUBNE   R5, R5, R8, ASR #13
00:00008498 2C919BE5        	   422:  LDR     R9, [R11, #gravity]
00:0000849C 094084E0        	   423:  ADD     R4, R4, R9
00:000084A0 FF018EE8        	   424:  STMIA   R14, {R0-R8}
00:000084A4 000051E3        	   425:  CMP     R1, #0
00:000084A8 0010A053        	   426:  MOVPL   R1, #0
00:000084AC 052482E2        	   427:  ADD     R2, R2, #CAMERA_PLAYER_Z
00:000084B0 4FEF8BE2        	   428:  ADD     R14, R11, #xCamera
00:000084B4 07008EE8        	   429:  STMIA   R14, {R0-R2}
00:000084B8 0080A0E1        	   430:  MOV     R8, R0
00:000084BC 0290A0E1        	   431:  MOV     R9, R2
00:000084C0 059449E2        	   432:  SUB     R9, R9, #CAMERA_PLAYER_Z
00:000084C4 4AFFFFEB        	   433:  BL      GetLandscapeAltitude
00:000084C8 190740E2        	   434:  SUB     R0, R0, #UNDERCARRIAGE_Y
00:000084CC 98109BE5        	   435:  LDR     R1, [R11, #yPlayer]
00:000084D0 01E040E0        	   436:  SUB     R14, R0, R1
00:000084D4 06055EE3        	   437:  CMP     R14, #SAFE_HEIGHT
00:000084D8 0B00002A        	   438:  BHS     ship6
00:000084DC 01002DE9        	   439:  STMFD   R13!, {R0}
00:000084E0 11EB8BE2        	   440:  ADD     R14, R11, #objectMap
00:000084E4 FF9409E2        	   441:  AND     R9, R9, #0xFF000000
00:000084E8 28EC8EE0        	   442:  ADD     R14, R14, R8, LSR #24
00:000084EC 29E88EE0        	   443:  ADD     R14, R14, R9, LSR #16
00:000084F0 0000DEE5        	   444:  LDRB    R0, [R14]
00:000084F4 000050E3        	   445:  CMP     R0, #0
00:000084F8 0200000A        	   446:  BEQ     ship5
00:000084FC 0C0050E3        	   447:  CMP     R0, #12
00:00008500 04D08D32        	   448:  ADDLO   R13, R13, #4
00:00008504 6F00003A        	   449:  BLO     LoseLife
                            	   450: ship5:
00:00008508 0100BDE8        	   451:  LDMFD   R13!, {R0}
                            	   452: ship6:
00:0000850C 000051E1        	   453:  CMP     R1, R0
00:00008510 4F0000CB        	   454:  BLGT    LandOnLaunchpad
00:00008514 000051E3        	   455:  CMP     R1, #0
00:00008518 0010A043        	   456:  MOVMI   R1, #0
00:0000851C 30308BE2        	   457:  ADD     R3, R11, #rotationMatrix
00:00008520 94E99FE5        	   458:  LDR     R14, objectPlayerAddr
00:00008524 10E18BE5        	   459:  STR     R14, [R11, #objectData]
00:00008528 0000A0E3        	   460:  MOV     R0, #0
00:0000852C 0F24A0E3        	   461:  MOV     R2, #LANDSCAPE_Z_MID
00:00008530 630200EB        	   462:  BL      DrawObject
00:00008534 20A1DBE5        	   463:  LDRB    R10, [R11, #crashedFlag]
00:00008538 00005AE3        	   464:  CMP     R10, #0
00:0000853C 6100001B        	   465:  BLNE    LoseLife
00:00008540 5CA1DBE5        	   466:  LDRB    R10, [R11, #fuelBurnRate]
00:00008544 06001AE3        	   467:  TST     R10, #0x6
00:00008548 2900000A        	   468:  BEQ     ship7
00:0000854C A0E08BE2        	   469:  ADD     R14, R11, #xVelocity
00:00008550 C7019EE8        	   470:  LDMIA   R14, {R0-R2, R6-R8}
00:00008554 C63380E0        	   471:  ADD     R3, R0, R6, ASR #7
00:00008558 C74381E0        	   472:  ADD     R4, R1, R7, ASR #7
00:0000855C C85382E0        	   473:  ADD     R5, R2, R8, ASR #7
00:00008560 C330A0E1        	   474:  MOV     R3, R3, ASR #1
00:00008564 C440A0E1        	   475:  MOV     R4, R4, ASR #1
00:00008568 C550A0E1        	   476:  MOV     R5, R5, ASR #1
00:0000856C 94008BE2        	   477:  ADD     R0, R11, #xPlayer
00:00008570 070090E8        	   478:  LDMIA   R0, {R0-R2}
00:00008574 030040E0        	   479:  SUB     R0, R0, R3
00:00008578 041041E0        	   480:  SUB     R1, R1, R4
00:0000857C 052042E0        	   481:  SUB     R2, R2, R5
00:00008580 C60380E0        	   482:  ADD     R0, R0, R6, ASR #7
00:00008584 C71381E0        	   483:  ADD     R1, R1, R7, ASR #7
00:00008588 C82382E0        	   484:  ADD     R2, R2, R8, ASR #7
00:0000858C 1D78A0E3        	   485:  MOV     R7, #0x001D0000
00:00008590 0860A0E3        	   486:  MOV     R6, #8
00:00008594 0A80A0E3        	   487:  MOV     R8, #10
00:00008598 1D90A0E3        	   488:  MOV     R9, #29
00:0000859C FF032DE9        	   489:  STMFD   R13!, {R0-R9}
00:000085A0 390100EB        	   490:  BL      AddExhaustParticleToBuffer
00:000085A4 04001AE3        	   491:  TST     R10, #0x4
00:000085A8 FF039D18        	   492:  LDMNEIA R13, {R0-R9}
00:000085AC 3601001B        	   493:  BLNE    AddExhaustParticleToBuffer
00:000085B0 04001AE3        	   494:  TST     R10, #0x4
00:000085B4 FF039D18        	   495:  LDMNEIA R13, {R0-R9}
00:000085B8 3301001B        	   496:  BLNE    AddExhaustParticleToBuffer
00:000085BC 04001AE3        	   497:  TST     R10, #0x4
00:000085C0 FF039D18        	   498:  LDMNEIA R13, {R0-R9}
00:000085C4 3001001B        	   499:  BLNE    AddExhaustParticleToBuffer
00:000085C8 04001AE3        	   500:  TST     R10, #0x4
00:000085CC FF039D18        	   501:  LDMNEIA R13, {R0-R9}
00:000085D0 2D01001B        	   502:  BLNE    AddExhaustParticleToBuffer
00:000085D4 04001AE3        	   503:  TST     R10, #0x4
00:000085D8 FF039D18        	   504:  LDMNEIA R13, {R0-R9}
00:000085DC 2A01001B        	   505:  BLNE    AddExhaustParticleToBuffer
00:000085E0 04001AE3        	   506:  TST     R10, #0x4
00:000085E4 FF039D18        	   507:  LDMNEIA R13, {R0-R9}
00:000085E8 2701001B        	   508:  BLNE    AddExhaustParticleToBuffer
00:000085EC FF03BDE8        	   509:  LDMFD   R13!, {R0-R9}
00:000085F0 250100EB        	   510:  BL      AddExhaustParticleToBuffer
                            	   511: ship7:
00:000085F4 01001AE3        	   512:  TST     R10, #0x1
00:000085F8 1400000A        	   513:  BEQ     ship8
00:000085FC 24819BE5        	   514:  LDR     R8, [R11, #currentScore]
00:00008600 018048E2        	   515:  SUB     R8, R8, #1
00:00008604 24818BE5        	   516:  STR     R8, [R11, #currentScore]
00:00008608 94E08BE2        	   517:  ADD     R14, R11, #xPlayer
00:0000860C 3F009EE8        	   518:  LDMIA   R14, {R0-R5}
00:00008610 30609BE5        	   519:  LDR     R6, [R11, #xNoseV]
00:00008614 3C709BE5        	   520:  LDR     R7, [R11, #yNoseV]
00:00008618 48809BE5        	   521:  LDR     R8, [R11, #zNoseV]
00:0000861C 463483E0        	   522:  ADD     R3, R3, R6, ASR #8
00:00008620 474484E0        	   523:  ADD     R4, R4, R7, ASR #8
00:00008624 485485E0        	   524:  ADD     R5, R5, R8, ASR #8
00:00008628 030040E0        	   525:  SUB     R0, R0, R3
00:0000862C 041041E0        	   526:  SUB     R1, R1, R4
00:00008630 052042E0        	   527:  SUB     R2, R2, R5
00:00008634 C60380E0        	   528:  ADD     R0, R0, R6, ASR #7
00:00008638 C71381E0        	   529:  ADD     R1, R1, R7, ASR #7
00:0000863C C82382E0        	   530:  ADD     R2, R2, R8, ASR #7
00:00008640 1460A0E3        	   531:  MOV     R6, #20
00:00008644 6F77A0E3        	   532:  MOV     R7, #0x01BC0000
00:00008648 FF7087E3        	   533:  ORR     R7, R7, #0xFF
00:0000864C 0C0100EB        	   534:  BL      AddBulletParticleToBuffer
                            	   535: ship8:
00:00008650 0080BDE8        	   536:  LDMFD   R13!, {PC}
                            	   537: LandOnLaunchpad:
00:00008654 94308BE2        	   538:  ADD     R3, R11, #xPlayer
00:00008658 3F0093E8        	   539:  LDMIA   R3, {R0-R5}
00:0000865C 020350E3        	   540:  CMP     R0, #LAUNCHPAD_SIZE
00:00008660 02035233        	   541:  CMPLO   R2, #LAUNCHPAD_SIZE
00:00008664 1700002A        	   542:  BHS     LoseLife
00:00008668 000053E3        	   543:  CMP     R3, #0
00:0000866C 00306342        	   544:  RSBMI   R3, R3, #0
00:00008670 000054E3        	   545:  CMP     R4, #0
00:00008674 00406442        	   546:  RSBMI   R4, R4, #0
00:00008678 000055E3        	   547:  CMP     R5, #0
00:0000867C 00506542        	   548:  RSBMI   R5, R5, #0
00:00008680 043083E0        	   549:  ADD     R3, R3, R4
00:00008684 053083E0        	   550:  ADD     R3, R3, R5
00:00008688 020653E3        	   551:  CMP     R3, #LANDING_SPEED
00:0000868C 0EF0A021        	   552:  MOVHS   PC, R14
00:00008690 BB17A0E3        	   553:  MOV     R1, #LAUNCHPAD_Y
00:00008694 28319BE5        	   554:  LDR     R3, [R11, #fuelLevel]
00:00008698 203083E2        	   555:  ADD     R3, R3, #0x20
00:0000869C 050B53E3        	   556:  CMP     R3, #0x1400
00:000086A0 28318B35        	   557:  STRLO   R3, [R11, #fuelLevel]
00:000086A4 0030A0E3        	   558:  MOV     R3, #0
00:000086A8 0040A0E3        	   559:  MOV     R4, #0
00:000086AC 0050A0E3        	   560:  MOV     R5, #0
00:000086B0 A0308BE5        	   561:  STR     R3, [R11, #xVelocity]
00:000086B4 A4408BE5        	   562:  STR     R4, [R11, #yVelocity]
00:000086B8 A8508BE5        	   563:  STR     R5, [R11, #zVelocity]
00:000086BC 98108BE5        	   564:  STR     R1, [R11, #yPlayer]
00:000086C0 0EF0A0E1        	   565:  MOV     PC, R14
                            	   566: LoseLifeFromParticleLoop:
00:000086C4 0014BDE8        	   567:  LDMFD   R13!, {R10, R12}
                            	   568: LoseLife:
00:000086C8 0000A0E3        	   569:  MOV     R0, #0
00:000086CC 30018BE5        	   570:  STR     R0, [R11, #playingGame]
00:000086D0 1E00A0E3        	   571:  MOV     R0, #30
00:000086D4 1C018BE5        	   572:  STR     R0, [R11, #crashLoopCount]
00:000086D8 5180A0E3        	   573:  MOV     R8, #81
00:000086DC 94008BE2        	   574:  ADD     R0, R11, #xPlayer
00:000086E0 070090E8        	   575:  LDMIA   R0, {R0-R2}
00:000086E4 051641E2        	   576:  SUB     R1, R1, #EXPLODE_Y
00:000086E8 730100EB        	   577:  BL      AddExplosionToBuffer
                            	   578: lose1:
00:000086EC 18019BE5        	   579:  LDR     R0, [R11, #mainLoopCount]
00:000086F0 000CA0E1        	   580:  MOV     R0, R0, LSL #24
00:000086F4 8010A0E1        	   581:  MOV     R1, R0, LSL #1
00:000086F8 390300EB        	   582:  BL      CalculateRotationMatrix
00:000086FC 3C0000EB        	   583:  BL      MoveAndDrawParticles
00:00008700 B50100EB        	   584:  BL      DrawObjects
00:00008704 7C0500EB        	   585:  BL      AddTerminatorsToBuffers
00:00008708 5FFEFFEB        	   586:  BL      DrawLandscapeAndBuffers
00:0000870C 7D0200EB        	   587:  BL      PrintCurrentScore
00:00008710 890500EB        	   588:  BL      SwitchScreenBank
00:00008714 18019BE5        	   589:  LDR     R0, [R11, #mainLoopCount]
00:00008718 010080E2        	   590:  ADD     R0, R0, #1
00:0000871C 18018BE5        	   591:  STR     R0, [R11, #mainLoopCount]
00:00008720 1C019BE5        	   592:  LDR     R0, [R11, #crashLoopCount]
00:00008724 010050E2        	   593:  SUBS    R0, R0, #1
00:00008728 1C018BE5        	   594:  STR     R0, [R11, #crashLoopCount]
00:0000872C EEFFFF5A        	   595:  BPL     lose1
00:00008730 34019BE5        	   596:  LDR     R0, [R11, #remainingLives]
00:00008734 010050E2        	   597:  SUBS    R0, R0, #1
00:00008738 34018BE5        	   598:  STR     R0, [R11, #remainingLives]
00:0000873C 04D08DE2        	   599:  ADD     R13, R13, #4
00:00008740 2C08001A        	   600:  BNE     PlacePlayerOnLaunchpad
                            	   601: GameOver:
00:00008744 7000A0E3        	   602:  MOV     R0, #112
00:00008748 0110A0E3        	   603:  MOV     R1, #1
00:0000874C 060000EF        	   604:  SWI     OS_Byte
00:00008750 1F00A0E3        	   605:  MOV     R0, #31
00:00008754 000000EF        	   606:  SWI     OS_WriteC
00:00008758 0100A0E3        	   607:  MOV     R0, #1
00:0000875C 000000EF        	   608:  SWI     OS_WriteC
00:00008760 1000A0E3        	   609:  MOV     R0, #16
00:00008764 000000EF        	   610:  SWI     OS_WriteC
00:00008768 010000EF        	   611:  SWI     OS_WriteS
00:0000876C 47414D45204F5645	   612: .byte    "GAME OVER - press a "
00:00008774 52202D2070726573
00:0000877C 73206120
00:00008780 6B657920746F2073	   613: .byte    "key to start again"
00:00008788 7461727420616761
00:00008790 696E
00:00008792 00              	   614: .byte    0
                            	   615: .balign 4
00:00008794 7000A0E3        	   616:  MOV     R0, #112
00:00008798 0210A0E3        	   617:  MOV     R1, #2
00:0000879C 060000EF        	   618:  SWI     OS_Byte
00:000087A0 1F00A0E3        	   619:  MOV     R0, #31
00:000087A4 000000EF        	   620:  SWI     OS_WriteC
00:000087A8 0100A0E3        	   621:  MOV     R0, #1
00:000087AC 000000EF        	   622:  SWI     OS_WriteC
00:000087B0 1000A0E3        	   623:  MOV     R0, #16
00:000087B4 000000EF        	   624:  SWI     OS_WriteC
00:000087B8 010000EF        	   625:  SWI     OS_WriteS
00:000087BC 47414D45204F5645	   626: .byte    "GAME OVER - press a "
00:000087C4 52202D2070726573
00:000087CC 73206120
00:000087D0 6B657920746F2073	   627: .byte    "key to start again"
00:000087D8 7461727420616761
00:000087E0 696E
00:000087E2 00              	   628: .byte    0
                            	   629: .balign 4
00:000087E4 040000EF        	   630:  SWI     OS_ReadC
00:000087E8 D10700EA        	   631:  B       StartNewGame
                            	   632: graphicsBuffEndAddr2:
00:000087EC 5C800000        	   633: .long    graphicsBuffersEnd
00:000087F0 2C800000        	   634: .long    graphicsBuffers
                            	   635: MoveAndDrawParticles:
00:000087F4 00542DE9        	   636:  STMFD   R13!, {R10, R12, R14}
00:000087F8 07AC8BE2        	   637:  ADD     R10, R11, #particleData
00:000087FC 18C01FE5        	   638:  LDR     R12, graphicsBuffEndAddr2
                            	   639: dpar1:
00:00008800 FF009AE8        	   640:  LDMIA   R10, {R0-R7}
00:00008804 000057E3        	   641:  CMP     R7, #0
00:00008808 0094BD08        	   642:  LDMEQFD R13!, {R10, R12, PC}
                            	   643: dpar2:
00:0000880C 016056E2        	   644:  SUBS    R6, R6, #1
00:00008810 9000000A        	   645:  BEQ     DeleteParticleData
00:00008814 030080E0        	   646:  ADD     R0, R0, R3
00:00008818 041081E0        	   647:  ADD     R1, R1, R4
00:0000881C 052082E0        	   648:  ADD     R2, R2, R5
00:00008820 010617E3        	   649:  TST     R7, #0x00100000
00:00008824 2CE19B15        	   650:  LDRNE   R14, [R11, #gravity]
00:00008828 0E408410        	   651:  ADDNE   R4, R4, R14
00:0000882C 010817E3        	   652:  TST     R7, #0x00010000
00:00008830 4100001B        	   653:  BLNE    SetParticleColourToFade
00:00008834 0080A0E1        	   654:  MOV     R8, R0
00:00008838 0290A0E1        	   655:  MOV     R9, R2
00:0000883C 0F002DE9        	   656:  STMFD   R13!, {R0-R3}
00:00008840 6BFEFFEB        	   657:  BL      GetLandscapeAltitude
00:00008844 0090A0E1        	   658:  MOV     R9, R0
00:00008848 0F00BDE8        	   659:  LDMFD   R13!, {R0-R3}
00:0000884C 020617E3        	   660:  TST     R7, #0x00200000
00:00008850 5C00001B        	   661:  BLNE    ProcessObjectDestruction
00:00008854 090051E1        	   662:  CMP     R1, R9
00:00008858 4E0000CB        	   663:  BLGT    BounceParticle
00:0000885C FF00AAE8        	   664:  STMIA   R10!, {R0-R7}
00:00008860 3C819BE5        	   665:  LDR     R8, [R11, #xCamera]
00:00008864 080040E0        	   666:  SUB     R0, R0, R8
00:00008868 44819BE5        	   667:  LDR     R8, [R11, #zCamera]
00:0000886C 082042E0        	   668:  SUB     R2, R2, R8
00:00008870 052382E2        	   669:  ADD     R2, R2, #LANDSCAPE_Z
00:00008874 40819BE5        	   670:  LDR     R8, [R11, #yCamera]
00:00008878 081041E0        	   671:  SUB     R1, R1, R8
00:0000887C 050352E3        	   672:  CMP     R2, #LANDSCAPE_Z
00:00008880 DEFFFF2A        	   673:  BHS     dpar1
00:00008884 0A0452E3        	   674:  CMP     R2, #LANDSCAPE_Z_FRONT
00:00008888 DCFFFF3A        	   675:  BLO     dpar1
00:0000888C 00E0B0E1        	   676:  MOVS    R14, R0
00:00008890 00E06042        	   677:  RSBMI   R14, R0, #0
00:00008894 06045EE3        	   678:  CMP     R14, #LANDSCAPE_X_HALF
00:00008898 D8FFFF2A        	   679:  BHS     dpar1
00:0000889C 020817E3        	   680:  TST     R7, #0x00020000
00:000088A0 1700000A        	   681:  BEQ     dpar4
00:000088A4 07002DE9        	   682:  STMFD   R13!, {R0-R2}
00:000088A8 30E19BE5        	   683:  LDR     R14, [R11, #playingGame]
00:000088AC 00005EE3        	   684:  CMP     R14, #0
00:000088B0 0C00000A        	   685:  BEQ     dpar3
00:000088B4 000050E3        	   686:  CMP     R0, #0
00:000088B8 00006042        	   687:  RSBMI   R0, R0, #0
00:000088BC 0F2452E2        	   688:  SUBS    R2, R2, #LANDSCAPE_Z_MID
00:000088C0 00206242        	   689:  RSBMI   R2, R2, #0
00:000088C4 010450E3        	   690:  CMP     R0, #TILE_SIZE
00:000088C8 01045233        	   691:  CMPLO   R2, #TILE_SIZE
00:000088CC 0500002A        	   692:  BHS     dpar3
00:000088D0 40019BE5        	   693:  LDR     R0, [R11, #yCamera]
00:000088D4 001081E0        	   694:  ADD     R1, R1, R0
00:000088D8 98009BE5        	   695:  LDR     R0, [R11, #yPlayer]
00:000088DC 001051E0        	   696:  SUBS    R1, R1, R0
00:000088E0 00106142        	   697:  RSBMI   R1, R1, #0
00:000088E4 010451E3        	   698:  CMP     R1, #TILE_SIZE
                            	   699: dpar3:
00:000088E8 0700BDE8        	   700:  LDMFD   R13!, {R0-R2}
00:000088EC 74FFFF3A        	   701:  BLO     LoseLifeFromParticleLoop
00:000088F0 C8E59FE5        	   702:  LDR     R14, objectRockAddr
00:000088F4 10E18BE5        	   703:  STR     R14, [R11, #objectData]
00:000088F8 30308BE2        	   704:  ADD     R3, R11, #rotationMatrix
00:000088FC 700100EB        	   705:  BL      DrawObject
00:00008900 BEFFFFEA        	   706:  B       dpar1
                            	   707: dpar4:
00:00008904 87002DE9        	   708:  STMFD   R13!, {R0-R2, R7}
00:00008908 40E19BE5        	   709:  LDR     R14, [R11, #yCamera]
00:0000890C 0E1049E0        	   710:  SUB     R1, R9, R14
00:00008910 0280A0E1        	   711:  MOV     R8, R2
00:00008914 550300EB        	   712:  BL      ProjectParticleOntoScreen
00:00008918 B504003B        	   713:  BLCC    DrawParticleShadowToBuffer
00:0000891C 8700BDE8        	   714:  LDMFD   R13!, {R0-R2, R7}
00:00008920 0280A0E1        	   715:  MOV     R8, R2
00:00008924 510300EB        	   716:  BL      ProjectParticleOntoScreen
00:00008928 A204003B        	   717:  BLCC    DrawParticleToBuffer
00:0000892C FF009AE8        	   718:  LDMIA   R10, {R0-R7}
00:00008930 000057E3        	   719:  CMP     R7, #0
00:00008934 B4FFFF1A        	   720:  BNE     dpar2
00:00008938 0094BDE8        	   721:  LDMFD   R13!, {R10, R12, PC}
                            	   722: SetParticleColourToFade:
00:0000893C 47002DE9        	   723:  STMFD   R13!, {R0-R2, R6}
00:00008940 0F00A0E3        	   724:  MOV     R0, #15
00:00008944 080056E3        	   725:  CMP     R6, #8
00:00008948 0F10A023        	   726:  MOVHS   R1, #15
00:0000894C 8610A031        	   727:  MOVLO   R1, R6, LSL #1
00:00008950 08204622        	   728:  SUBHS   R2, R6, #8
00:00008954 8220A021        	   729:  MOVHS   R2, R2, LSL #1
00:00008958 0020A033        	   730:  MOVLO   R2, #0
00:0000895C 027081E1        	   731:  ORR     R7, R1, R2
00:00008960 037007E2        	   732:  AND     R7, R7, #0x3
00:00008964 007087E1        	   733:  ORR     R7, R7, R0
00:00008968 077007E2        	   734:  AND     R7, R7, #7
00:0000896C 080010E3        	   735:  TST     R0, #0x8
00:00008970 10708713        	   736:  ORRNE   R7, R7, #0x10
00:00008974 0C1001E2        	   737:  AND     R1, R1, #0xc
00:00008978 817187E1        	   738:  ORR     R7, R7, R1, LSL #3
00:0000897C 040012E3        	   739:  TST     R2, #0x4
00:00008980 08708713        	   740:  ORRNE   R7, R7, #0x8
00:00008984 080012E3        	   741:  TST     R2, #0x8
00:00008988 80708713        	   742:  ORRNE   R7, R7, #0x80
00:0000898C 1D7887E3        	   743:  ORR     R7, R7, #0x001D0000
00:00008990 4700BDE8        	   744:  LDMFD   R13!, {R0-R2, R6}
00:00008994 0EF0A0E1        	   745:  MOV     PC, R14
                            	   746: BounceParticle:
00:00008998 0910A0E1        	   747:  MOV     R1, R9
00:0000899C 550659E3        	   748:  CMP     R9, #SEA_LEVEL
00:000089A0 2300000A        	   749:  BEQ     SplashParticleIntoSea
00:000089A4 020717E3        	   750:  TST     R7, #0x00080000
00:000089A8 2A00000A        	   751:  BEQ     DeleteParticleData
00:000089AC 010417E3        	   752:  TST     R7, #0x01000000
00:000089B0 1C00001A        	   753:  BNE     AddSmallExplosionToBuffer
00:000089B4 C330A0E1        	   754:  MOV     R3, R3, ASR #1
00:000089B8 C440A0E1        	   755:  MOV     R4, R4, ASR #1
00:000089BC C550A0E1        	   756:  MOV     R5, R5, ASR #1
00:000089C0 004064E2        	   757:  RSB     R4, R4, #0
00:000089C4 0EF0A0E1        	   758:  MOV     PC, R14
                            	   759: ProcessObjectDestruction:
00:000089C8 018049E0        	   760:  SUB     R8, R9, R1
00:000089CC 060558E3        	   761:  CMP     R8, #SAFE_HEIGHT
00:000089D0 0EF0A021        	   762:  MOVHS   PC, R14
00:000089D4 04002DE9        	   763:  STMFD   R13!, {R2}
00:000089D8 F4E08BE5        	   764:  STR     R14, [R11, #objectType]
00:000089DC 11EB8BE2        	   765:  ADD     R14, R11, #objectMap
00:000089E0 FF2402E2        	   766:  AND     R2, R2, #0xFF000000
00:000089E4 20EC8EE0        	   767:  ADD     R14, R14, R0, LSR #24
00:000089E8 22E88EE0        	   768:  ADD     R14, R14, R2, LSR #16
00:000089EC 0400BDE8        	   769:  LDMFD   R13!, {R2}
00:000089F0 0080DEE5        	   770:  LDRB    R8, [R14]
00:000089F4 FF0058E3        	   771:  CMP     R8, #0xFF
00:000089F8 F4F09B05        	   772:  LDREQ   PC, [R11, #objectType]
00:000089FC 0C0058E3        	   773:  CMP     R8, #12
00:00008A00 0800002A        	   774:  BHS     AddSmallExplosionToBuffer
00:00008A04 0C8088E2        	   775:  ADD     R8, R8, #12
00:00008A08 0080CEE5        	   776:  STRB    R8, [R14]
00:00008A0C 020817E3        	   777:  TST     R7, #0x00020000
00:00008A10 24819B05        	   778:  LDREQ   R8, [R11, #currentScore]
00:00008A14 14808802        	   779:  ADDEQ   R8, R8, #20
00:00008A18 24818B05        	   780:  STREQ   R8, [R11, #currentScore]
00:00008A1C 1480A0E3        	   781:  MOV     R8, #20
00:00008A20 A50000EB        	   782:  BL      AddExplosionToBuffer
00:00008A24 0B0000EA        	   783:  B       DeleteParticleData
                            	   784: AddSmallExplosionToBuffer:
00:00008A28 0380A0E3        	   785:  MOV     R8, #3
00:00008A2C A20000EB        	   786:  BL      AddExplosionToBuffer
00:00008A30 080000EA        	   787:  B       DeleteParticleData
                            	   788: SplashParticleIntoSea:
00:00008A34 010717E3        	   789:  TST     R7, #0x00040000
00:00008A38 0600000A        	   790:  BEQ     DeleteParticleData
00:00008A3C 020517E3        	   791:  TST     R7, #0x00800000
00:00008A40 4180A013        	   792:  MOVNE   R8, #65
00:00008A44 0480A003        	   793:  MOVEQ   R8, #4
00:00008A48 011641E2        	   794:  SUB     R1, R1, #SPLASH_HEIGHT
                            	   795: psea1:
00:00008A4C 810000EB        	   796:  BL      AddSprayParticleToBuffer
00:00008A50 018058E2        	   797:  SUBS    R8, R8, #1
00:00008A54 FCFFFF1A        	   798:  BNE     psea1
                            	   799: DeleteParticleData:
00:00008A58 08819BE5        	   800:  LDR     R8, [R11, #particleEnd]
00:00008A5C 208048E2        	   801:  SUB     R8, R8, #8*4
00:00008A60 08818BE5        	   802:  STR     R8, [R11, #particleEnd]
00:00008A64 FF0098E8        	   803:  LDMIA   R8, {R0-R7}
00:00008A68 FF008AE8        	   804:  STMIA   R10, {R0-R7}
00:00008A6C 0070A0E3        	   805:  MOV     R7, #0
00:00008A70 1C7088E5        	   806:  STR     R7, [R8, #7*4]
00:00008A74 0C819BE5        	   807:  LDR     R8, [R11, #particleCount]
00:00008A78 018048E2        	   808:  SUB     R8, R8, #1
00:00008A7C 0C818BE5        	   809:  STR     R8, [R11, #particleCount]
00:00008A80 5EFFFFEA        	   810:  B       dpar1
                            	   811: AddBulletParticleToBuffer:
00:00008A84 00412DE9        	   812:  STMFD   R13!, {R8, R14}
00:00008A88 0E0000EA        	   813:  B       StoreParticleData
                            	   814: AddExhaustParticleToBuffer:
00:00008A8C 00412DE9        	   815:  STMFD   R13!, {R8, R14}
00:00008A90 020000EA        	   816:  B       AddMovingParticleToBuffer
                            	   817: AddStaticParticleToBuffer:
00:00008A94 0040A0E3        	   818:  MOV     R4, #0
                            	   819: AddRisingParticleToBuffer:
00:00008A98 0030A0E3        	   820:  MOV     R3, #0
00:00008A9C 0050A0E3        	   821:  MOV     R5, #0
                            	   822: AddMovingParticleToBuffer:
00:00008AA0 03002DE9        	   823:  STMFD   R13!, {R0-R1}
00:00008AA4 E50300EB        	   824:  BL      GetRandomNumbers
00:00008AA8 503883E0        	   825:  ADD     R3, R3, R0, ASR R8
00:00008AAC E30300EB        	   826:  BL      GetRandomNumbers
00:00008AB0 504884E0        	   827:  ADD     R4, R4, R0, ASR R8
00:00008AB4 E10300EB        	   828:  BL      GetRandomNumbers
00:00008AB8 505885E0        	   829:  ADD     R5, R5, R0, ASR R8
00:00008ABC DF0300EB        	   830:  BL      GetRandomNumbers
00:00008AC0 306986E0        	   831:  ADD     R6, R6, R0, LSR R9
00:00008AC4 0300BDE8        	   832:  LDMFD   R13!, {R0-R1}
                            	   833: StoreParticleData:
00:00008AC8 0C819BE5        	   834:  LDR     R8, [R11, #particleCount]
00:00008ACC 790F58E3        	   835:  CMP     R8, #MAX_PARTICLES
00:00008AD0 0081BD28        	   836:  LDMHSFD R13!, {R8, PC}
00:00008AD4 018088E2        	   837:  ADD     R8, R8, #1
00:00008AD8 0C818BE5        	   838:  STR     R8, [R11, #particleCount]
00:00008ADC 08819BE5        	   839:  LDR     R8, [R11, #particleEnd]
00:00008AE0 FF00A8E8        	   840:  STMIA   R8!, {R0-R7}
00:00008AE4 08818BE5        	   841:  STR     R8, [R11, #particleEnd]
00:00008AE8 0090A0E3        	   842:  MOV     R9, #0
00:00008AEC 1C9088E5        	   843:  STR     R9, [R8, #7*4]
00:00008AF0 0081BDE8        	   844:  LDMFD   R13!, {R8, PC}
                            	   845: InitialiseParticleData:
00:00008AF4 070C8BE2        	   846:  ADD     R0, R11, #particleData
00:00008AF8 08018BE5        	   847:  STR     R0, [R11, #particleEnd]
00:00008AFC 0010A0E3        	   848:  MOV     R1, #0
00:00008B00 1C1080E5        	   849:  STR     R1, [R0, #7*4]
00:00008B04 0C118BE5        	   850:  STR     R1, [R11, #particleCount]
00:00008B08 0EF0A0E1        	   851:  MOV     PC, R14
                            	   852: AddSmokeParticleToBuffer:
00:00008B0C 07412DE9        	   853:  STMFD   R13!, {R0-R2, R8, R14}
00:00008B10 CA0300EB        	   854:  BL      GetRandomNumbers
00:00008B14 070000E2        	   855:  AND     R0, R0, #7
00:00008B18 030080E2        	   856:  ADD     R0, R0, #3
00:00008B1C 0010A0E1        	   857:  MOV     R1, R0
00:00008B20 0020A0E1        	   858:  MOV     R2, R0
00:00008B24 027081E1        	   859:  ORR     R7, R1, R2
00:00008B28 037007E2        	   860:  AND     R7, R7, #0x3
00:00008B2C 007087E1        	   861:  ORR     R7, R7, R0
00:00008B30 077007E2        	   862:  AND     R7, R7, #7
00:00008B34 080010E3        	   863:  TST     R0, #0x8
00:00008B38 10708713        	   864:  ORRNE   R7, R7, #0x10
00:00008B3C 0C1001E2        	   865:  AND     R1, R1, #0xc
00:00008B40 817187E1        	   866:  ORR     R7, R7, R1, LSL #3
00:00008B44 040012E3        	   867:  TST     R2, #0x4
00:00008B48 08708713        	   868:  ORRNE   R7, R7, #0x8
00:00008B4C 080012E3        	   869:  TST     R2, #0x8
00:00008B50 80708713        	   870:  ORRNE   R7, R7, #0x80
00:00008B54 027787E3        	   871:  ORR     R7, R7, #0x00080000
00:00008B58 0247E0E3        	   872:  MVN     R4, #SMOKE_RISING_SPEED
00:00008B5C 0700BDE8        	   873:  LDMFD   R13!, {R0-R2}
00:00008B60 1990A0E3        	   874:  MOV     R9, #25
00:00008B64 0D80A0E3        	   875:  MOV     R8, #13
00:00008B68 0F60A0E3        	   876:  MOV     R6, #15
00:00008B6C C9FFFFEA        	   877:  B       AddRisingParticleToBuffer
                            	   878: AddDebrisParticleToBuffer:
00:00008B70 07412DE9        	   879:  STMFD   R13!, {R0-R2, R8, R14}
00:00008B74 B10300EB        	   880:  BL      GetRandomNumbers
00:00008B78 A11EA0E1        	   881:  MOV     R1, R1, LSR #29
00:00008B7C 202FA0E1        	   882:  MOV     R2, R0, LSR #30
00:00008B80 070000E2        	   883:  AND     R0, R0, #7
00:00008B84 040080E2        	   884:  ADD     R0, R0, #4
00:00008B88 021081E2        	   885:  ADD     R1, R1, #2
00:00008B8C 042082E2        	   886:  ADD     R2, R2, #4
00:00008B90 027081E1        	   887:  ORR     R7, R1, R2
00:00008B94 037007E2        	   888:  AND     R7, R7, #0x3
00:00008B98 007087E1        	   889:  ORR     R7, R7, R0
00:00008B9C 077007E2        	   890:  AND     R7, R7, #7
00:00008BA0 080010E3        	   891:  TST     R0, #0x8
00:00008BA4 10708713        	   892:  ORRNE   R7, R7, #0x10
00:00008BA8 0C1001E2        	   893:  AND     R1, R1, #0xc
00:00008BAC 817187E1        	   894:  ORR     R7, R7, R1, LSL #3
00:00008BB0 040012E3        	   895:  TST     R2, #0x4
00:00008BB4 08708713        	   896:  ORRNE   R7, R7, #0x8
00:00008BB8 080012E3        	   897:  TST     R2, #0x8
00:00008BBC 80708713        	   898:  ORRNE   R7, R7, #0x80
00:00008BC0 077787E3        	   899:  ORR     R7, R7, #0x001C0000
00:00008BC4 0700BDE8        	   900:  LDMFD   R13!, {R0-R2}
00:00008BC8 1A90A0E3        	   901:  MOV     R9, #26
00:00008BCC 0A80A0E3        	   902:  MOV     R8, #10
00:00008BD0 0F60A0E3        	   903:  MOV     R6, #15
00:00008BD4 AEFFFFEA        	   904:  B       AddStaticParticleToBuffer
                            	   905: DropARockFromTheSky:
00:00008BD8 07412DE9        	   906:  STMFD   R13!, {R0-R2, R8, R14}
00:00008BDC 970300EB        	   907:  BL      GetRandomNumbers
00:00008BE0 A11EA0E1        	   908:  MOV     R1, R1, LSR #29
00:00008BE4 202FA0E1        	   909:  MOV     R2, R0, LSR #30
00:00008BE8 070000E2        	   910:  AND     R0, R0, #7
00:00008BEC 040080E2        	   911:  ADD     R0, R0, #4
00:00008BF0 021081E2        	   912:  ADD     R1, R1, #2
00:00008BF4 042082E2        	   913:  ADD     R2, R2, #4
00:00008BF8 027081E1        	   914:  ORR     R7, R1, R2
00:00008BFC 037007E2        	   915:  AND     R7, R7, #0x3
00:00008C00 007087E1        	   916:  ORR     R7, R7, R0
00:00008C04 077007E2        	   917:  AND     R7, R7, #7
00:00008C08 080010E3        	   918:  TST     R0, #0x8
00:00008C0C 10708713        	   919:  ORRNE   R7, R7, #0x10
00:00008C10 0C1001E2        	   920:  AND     R1, R1, #0xc
00:00008C14 817187E1        	   921:  ORR     R7, R7, R1, LSL #3
00:00008C18 040012E3        	   922:  TST     R2, #0x4
00:00008C1C 08708713        	   923:  ORRNE   R7, R7, #0x8
00:00008C20 080012E3        	   924:  TST     R2, #0x8
00:00008C24 80708713        	   925:  ORRNE   R7, R7, #0x80
00:00008C28 FE7887E3        	   926:  ORR     R7, R7, #0x00FE0000
00:00008C2C 0700BDE8        	   927:  LDMFD   R13!, {R0-R2}
00:00008C30 1B90A0E3        	   928:  MOV     R9, #27
00:00008C34 0A80A0E3        	   929:  MOV     R8, #10
00:00008C38 AA60A0E3        	   930:  MOV     R6, #170
00:00008C3C 94FFFFEA        	   931:  B       AddStaticParticleToBuffer
                            	   932: AddSparkParticleToBuffer:
00:00008C40 00412DE9        	   933:  STMFD   R13!, {R8, R14}
00:00008C44 1D78A0E3        	   934:  MOV     R7, #0x001D0000
00:00008C48 1D90A0E3        	   935:  MOV     R9, #29
00:00008C4C 0880A0E3        	   936:  MOV     R8, #8
00:00008C50 0860A0E3        	   937:  MOV     R6, #8
00:00008C54 8EFFFFEA        	   938:  B       AddStaticParticleToBuffer
                            	   939: AddSprayParticleToBuffer:
00:00008C58 07412DE9        	   940:  STMFD   R13!, {R0-R2, R8, R14}
00:00008C5C 770300EB        	   941:  BL      GetRandomNumbers
00:00008C60 032000E2        	   942:  AND     R2, R0, #3
00:00008C64 0C2082E2        	   943:  ADD     R2, R2, #12
00:00008C68 040000E2        	   944:  AND     R0, R0, #4
00:00008C6C 080080E2        	   945:  ADD     R0, R0, #8
00:00008C70 0010A0E1        	   946:  MOV     R1, R0
00:00008C74 027081E1        	   947:  ORR     R7, R1, R2
00:00008C78 037007E2        	   948:  AND     R7, R7, #0x3
00:00008C7C 007087E1        	   949:  ORR     R7, R7, R0
00:00008C80 077007E2        	   950:  AND     R7, R7, #7
00:00008C84 080010E3        	   951:  TST     R0, #0x8
00:00008C88 10708713        	   952:  ORRNE   R7, R7, #0x10
00:00008C8C 0C1001E2        	   953:  AND     R1, R1, #0xc
00:00008C90 817187E1        	   954:  ORR     R7, R7, R1, LSL #3
00:00008C94 040012E3        	   955:  TST     R2, #0x4
00:00008C98 08708713        	   956:  ORRNE   R7, R7, #0x8
00:00008C9C 080012E3        	   957:  TST     R2, #0x8
00:00008CA0 80708713        	   958:  ORRNE   R7, R7, #0x80
00:00008CA4 017687E3        	   959:  ORR     R7, R7, #0x00100000
00:00008CA8 0700BDE8        	   960:  LDMFD   R13!, {R0-R2}
00:00008CAC 1A90A0E3        	   961:  MOV     R9, #26
00:00008CB0 0A80A0E3        	   962:  MOV     R8, #10
00:00008CB4 1460A0E3        	   963:  MOV     R6, #20
00:00008CB8 75FFFFEA        	   964:  B       AddStaticParticleToBuffer
                            	   965: AddExplosionToBuffer:
00:00008CBC F8432DE9        	   966:  STMFD   R13!, {R3-R9, R14}
                            	   967: expl1:
00:00008CC0 DEFFFFEB        	   968:  BL      AddSparkParticleToBuffer
00:00008CC4 A9FFFFEB        	   969:  BL      AddDebrisParticleToBuffer
00:00008CC8 8FFFFFEB        	   970:  BL      AddSmokeParticleToBuffer
00:00008CCC DBFFFFEB        	   971:  BL      AddSparkParticleToBuffer
00:00008CD0 018058E2        	   972:  SUBS    R8, R8, #1
00:00008CD4 F9FFFF5A        	   973:  BPL     expl1
00:00008CD8 F883BDE8        	   974:  LDMFD   R13!, {R3-R9, PC}
                            	   975: AddShipExplosionToBuffer:
00:00008CDC 00402DE9        	   976:  STMFD   R13!, {R14}
00:00008CE0 3280A0E3        	   977:  MOV     R8, #50
00:00008CE4 3C019BE5        	   978:  LDR     R0, [R11, #xCamera]
00:00008CE8 0010A0E3        	   979:  MOV     R1, #0
00:00008CEC 44219BE5        	   980:  LDR     R2, [R11, #zCamera]
00:00008CF0 062442E2        	   981:  SUB     R2, R2, #PLAYER_FRONT_Z
00:00008CF4 F0FFFFEB        	   982:  BL      AddExplosionToBuffer
00:00008CF8 0080BDE8        	   983:  LDMFD   R13!, {PC}
                            	   984: AddSparkCloudToBuffer:
00:00008CFC C0432DE9        	   985:  STMFD   R13!, {R6-R9, R14}
00:00008D00 9680A0E3        	   986:  MOV     R8, #150
00:00008D04 3C019BE5        	   987:  LDR     R0, [R11, #xCamera]
00:00008D08 0010A0E3        	   988:  MOV     R1, #0
00:00008D0C 44219BE5        	   989:  LDR     R2, [R11, #zCamera]
00:00008D10 062442E2        	   990:  SUB     R2, R2, #PLAYER_FRONT_Z
                            	   991: spcl1:
00:00008D14 C9FFFFEB        	   992:  BL      AddSparkParticleToBuffer
00:00008D18 018058E2        	   993:  SUBS    R8, R8, #1
00:00008D1C FCFFFF5A        	   994:  BPL     spcl1
00:00008D20 C083BDE8        	   995:  LDMFD   R13!, {R6-R9, PC}
                            	   996: SpawnRock:
00:00008D24 C0432DE9        	   997:  STMFD   R13!, {R6-R9, R14}
00:00008D28 3C019BE5        	   998:  LDR     R0, [R11, #xCamera]
00:00008D2C 0112E0E3        	   999:  MVN     R1, #ROCK_HEIGHT / 2
00:00008D30 44219BE5        	  1000:  LDR     R2, [R11, #zCamera]
00:00008D34 062442E2        	  1001:  SUB     R2, R2, #PLAYER_FRONT_Z
00:00008D38 A6FFFFEB        	  1002:  BL      DropARockFromTheSky
00:00008D3C C083BDE8        	  1003:  LDMFD   R13!, {R6-R9, PC}
                            	  1004: DropRocksFromTheSky:
00:00008D40 24419BE5        	  1005:  LDR     R4, [R11, #currentScore]
00:00008D44 324E54E2        	  1006:  SUBS    R4, R4, #800
00:00008D48 0EF0A041        	  1007:  MOVMI   PC, R14
00:00008D4C 00402DE9        	  1008:  STMFD   R13!, {R14}
00:00008D50 3A0300EB        	  1009:  BL      GetRandomNumbers
00:00008D54 2009A0E1        	  1010:  MOV     R0, R0, LSR #18
00:00008D58 040050E1        	  1011:  CMP     R0, R4
00:00008D5C 0080BD28        	  1012:  LDMHSIA R13!, {PC}
00:00008D60 3C019BE5        	  1013:  LDR     R0, [R11, #xCamera]
00:00008D64 0212E0E3        	  1014:  MVN     R1, #ROCK_HEIGHT
00:00008D68 44219BE5        	  1015:  LDR     R2, [R11, #zCamera]
00:00008D6C 062442E2        	  1016:  SUB     R2, R2, #PLAYER_FRONT_Z
00:00008D70 98FFFFEB        	  1017:  BL      DropARockFromTheSky
00:00008D74 0080BDE8        	  1018:  LDMFD   R13!, {PC}
                            	  1019: objectTypes:
00:00008D78 98AA0000        	  1020: .long    objectPyramid
00:00008D7C 04AD0000        	  1021: .long    objectSmallLeafyTree
00:00008D80 24AE0000        	  1022: .long    objectTallLeafyTree
00:00008D84 04AD0000        	  1023: .long    objectSmallLeafyTree
00:00008D88 04AD0000        	  1024: .long    objectSmallLeafyTree
00:00008D8C 10B10000        	  1025: .long    objectGazebo
00:00008D90 24AE0000        	  1026: .long    objectTallLeafyTree
00:00008D94 8CB00000        	  1027: .long    objectFirTree
00:00008D98 9CB20000        	  1028: .long    objectBuilding
00:00008D9C 84B60000        	  1029: .long    objectRocket
00:00008DA0 84B60000        	  1030: .long    objectRocket
00:00008DA4 84B60000        	  1031: .long    objectRocket
00:00008DA8 84B60000        	  1032: .long    objectRocket
00:00008DAC 08B00000        	  1033: .long    objectSmokingRemainsRight
00:00008DB0 84AF0000        	  1034: .long    objectSmokingRemainsLeft
00:00008DB4 84AF0000        	  1035: .long    objectSmokingRemainsLeft
00:00008DB8 84AF0000        	  1036: .long    objectSmokingRemainsLeft
00:00008DBC BCB50000        	  1037: .long    objectSmokingGazebo
00:00008DC0 08B00000        	  1038: .long    objectSmokingRemainsRight
00:00008DC4 08B00000        	  1039: .long    objectSmokingRemainsRight
00:00008DC8 BCB40000        	  1040: .long    objectSmokingBuilding
00:00008DCC 08B00000        	  1041: .long    objectSmokingRemainsRight
00:00008DD0 84AF0000        	  1042: .long    objectSmokingRemainsLeft
00:00008DD4 84AF0000        	  1043: .long    objectSmokingRemainsLeft
00:00008DD8 84AF0000        	  1044: .long    objectSmokingRemainsLeft
                            	  1045: DrawObjects:
00:00008DDC E05F2DE9        	  1046:  STMFD   R13!, {R5-R12, R14}
00:00008DE0 3C019BE5        	  1047:  LDR     R0, [R11, #xCamera]
00:00008DE4 FF8400E2        	  1048:  AND     R8, R0, #0xFF000000
00:00008DE8 44119BE5        	  1049:  LDR     R1, [R11, #zCamera]
00:00008DEC FF9401E2        	  1050:  AND     R9, R1, #0xFF000000
00:00008DF0 168548E2        	  1051:  SUB     R8, R8, #LANDSCAPE_X
00:00008DF4 48818BE5        	  1052:  STR     R8, [R11, #xCameraTile]
00:00008DF8 0B70A0E3        	  1053:  MOV     R7, #TILES_Z
                            	  1054: dobs1:
00:00008DFC 0D60A0E3        	  1055:  MOV     R6, #TILES_X
00:00008E00 48819BE5        	  1056:  LDR     R8, [R11, #xCameraTile]
                            	  1057: dobs2:
00:00008E04 11EB8BE2        	  1058:  ADD     R14, R11, #objectMap
00:00008E08 28EC8EE0        	  1059:  ADD     R14, R14, R8, LSR #24
00:00008E0C 29E88EE0        	  1060:  ADD     R14, R14, R9, LSR #16
00:00008E10 0000DEE5        	  1061:  LDRB    R0, [R14]
00:00008E14 FF0050E3        	  1062:  CMP     R0, #0xFF
00:00008E18 0600001A        	  1063:  BNE     dobs4
                            	  1064: dobs3:
00:00008E1C 018488E2        	  1065:  ADD     R8, R8, #TILE_SIZE
00:00008E20 016056E2        	  1066:  SUBS    R6, R6, #1
00:00008E24 F6FFFF1A        	  1067:  BNE     dobs2
00:00008E28 019449E2        	  1068:  SUB     R9, R9, #TILE_SIZE
00:00008E2C 017057E2        	  1069:  SUBS    R7, R7, #1
00:00008E30 F1FFFF1A        	  1070:  BNE     dobs1
00:00008E34 E09FBDE8        	  1071:  LDMFD   R13!, {R5-R12, PC}
                            	  1072: dobs4:
00:00008E38 F400CBE5        	  1073:  STRB    R0, [R11, #objectType]
                            	  1074: .set typeOffset, $ + 8 - objectTypes
00:00008E3C 00018FE0        	  1075:  ADD     R0, PC, R0, LSL #2
00:00008E40 CCE010E5        	  1076:  LDR     R14, [R0, #-typeOffset]
00:00008E44 10E18BE5        	  1077:  STR     R14, [R11, #objectData]
00:00008E48 E9FCFFEB        	  1078:  BL      GetLandscapeAltitude
00:00008E4C 0010A0E1        	  1079:  MOV     R1, R0
00:00008E50 550650E3        	  1080:  CMP     R0, #SEA_LEVEL
00:00008E54 F0FFFF0A        	  1081:  BEQ     dobs3
00:00008E58 3CE19BE5        	  1082:  LDR     R14, [R11, #xCamera]
00:00008E5C 0E0048E0        	  1083:  SUB     R0, R8, R14
00:00008E60 44E19BE5        	  1084:  LDR     R14, [R11, #zCamera]
00:00008E64 0E2049E0        	  1085:  SUB     R2, R9, R14
00:00008E68 052382E2        	  1086:  ADD     R2, R2, #LANDSCAPE_Z
00:00008E6C 40E19BE5        	  1087:  LDR     R14, [R11, #yCamera]
00:00008E70 0E1041E0        	  1088:  SUB     R1, R1, R14
00:00008E74 F4E0DBE5        	  1089:  LDRB    R14, [R11, #objectType]
00:00008E78 0C005EE3        	  1090:  CMP     R14, #12
00:00008E7C 0200002A        	  1091:  BHS     dobs6
                            	  1092: dobs5:
00:00008E80 30308BE2        	  1093:  ADD     R3, R11, #rotationMatrix
00:00008E84 0E0000EB        	  1094:  BL      DrawObject
00:00008E88 E3FFFFEA        	  1095:  B       dobs3
                            	  1096: dobs6:
00:00008E8C 18E19BE5        	  1097:  LDR     R14, [R11, #mainLoopCount]
00:00008E90 03001EE3        	  1098:  TST     R14, #0x3
00:00008E94 F9FFFF1A        	  1099:  BNE     dobs5
00:00008E98 FF022DE9        	  1100:  STMFD   R13!, {R0-R7, R9}
00:00008E9C 40E19BE5        	  1101:  LDR     R14, [R11, #yCamera]
00:00008EA0 0E1081E0        	  1102:  ADD     R1, R1, R14
00:00008EA4 0800A0E1        	  1103:  MOV     R0, R8
00:00008EA8 0920A0E1        	  1104:  MOV     R2, R9
00:00008EAC 031541E2        	  1105:  SUB     R1, R1, #SMOKE_HEIGHT
00:00008EB0 15FFFFEB        	  1106:  BL      AddSmokeParticleToBuffer
00:00008EB4 FF02BDE8        	  1107:  LDMFD   R13!, {R0-R7, R9}
00:00008EB8 F0FFFFEA        	  1108:  B       dobs5
                            	  1109: objectPlayerAddr:
00:00008EBC 8CAB0000        	  1110: .long    objectPlayer
                            	  1111: objectRockAddr:
00:00008EC0 60A90000        	  1112: .long    objectRock
                            	  1113: DrawObject:
00:00008EC4 C05F2DE9        	  1114:  STMFD   R13!, {R6-R12, R14}
00:00008EC8 7CC39FE5        	  1115:  LDR     R12, graphicsBufferEndAddr
00:00008ECC 00408BE2        	  1116:  ADD     R4, R11, #xObject
00:00008ED0 070084E8        	  1117:  STMIA   R4, {R0-R2}
00:00008ED4 0040B0E1        	  1118:  MOVS    R4, R0
00:00008ED8 0440E041        	  1119:  MVNMI   R4, R4
00:00008EDC 0150B0E1        	  1120:  MOVS    R5, R1
00:00008EE0 0550E041        	  1121:  MVNMI   R5, R5
00:00008EE4 054084E1        	  1122:  ORR     R4, R4, R5
00:00008EE8 024084E1        	  1123:  ORR     R4, R4, R2
00:00008EEC 014094E3        	  1124:  ORRS    R4, R4, #1
00:00008EF0 8440A051        	  1125:  MOVPL   R4, R4, LSL #1
00:00008EF4 0050A0E3        	  1126:  MOV     R5, #0
00:00008EF8 2051CBE5        	  1127:  STRB    R5, [R11, #crashedFlag]
                            	  1128: dobj1:
00:00008EFC 8440B0E1        	  1129:  MOVS    R4, R4, LSL #1
00:00008F00 01508552        	  1130:  ADDPL   R5, R5, #1
00:00008F04 FCFFFF5A        	  1131:  BPL     dobj1
00:00008F08 1005A0E1        	  1132:  MOV     R0, R0, LSL R5
00:00008F0C 1115A0E1        	  1133:  MOV     R1, R1, LSL R5
00:00008F10 1225A0E1        	  1134:  MOV     R2, R2, LSL R5
00:00008F14 84408BE2        	  1135:  ADD     R4, R11, #xObjectScaled
00:00008F18 070084E8        	  1136:  STMIA   R4, {R0-R2}
00:00008F1C 30408BE2        	  1137:  ADD     R4, R11, #rotationMatrix
00:00008F20 040053E1        	  1138:  CMP     R3, R4
00:00008F24 0700B318        	  1139:  LDMNEIA R3!, {R0-R2}
00:00008F28 0700A418        	  1140:  STMNEIA R4!, {R0-R2}
00:00008F2C 0700B318        	  1141:  LDMNEIA R3!, {R0-R2}
00:00008F30 0700A418        	  1142:  STMNEIA R4!, {R0-R2}
00:00008F34 0700B318        	  1143:  LDMNEIA R3!, {R0-R2}
00:00008F38 0700A418        	  1144:  STMNEIA R4!, {R0-R2}
00:00008F3C 10019BE5        	  1145:  LDR     R0, [R11, #objectData]
00:00008F40 008090E5        	  1146:  LDR     R8, [R0]
00:00008F44 109080E2        	  1147:  ADD     R9, R0, #16
00:00008F48 06AC8BE2        	  1148:  ADD     R10, R11, #vertexProjected
00:00008F4C 0C10D0E5        	  1149:  LDRB    R1, [R0, #12]
00:00008F50 1411CBE5        	  1150:  STRB    R1, [R11, #objectFlags]
                            	  1151: dobj2:
00:00008F54 1C00B9E8        	  1152:  LDMIA   R9!, {R2-R4}
00:00008F58 54008BE2        	  1153:  ADD     R0, R11, #xVertex
00:00008F5C 64108BE2        	  1154:  ADD     R1, R11, #xVertexRotated
00:00008F60 1C0080E8        	  1155:  STMIA   R0, {R2-R4}
00:00008F64 BA0000EB        	  1156:  BL      MultiplyVectorByMatrix
00:00008F68 00008BE2        	  1157:  ADD     R0, R11, #xObject
00:00008F6C 6A0200EB        	  1158:  BL      AddVectorToVertices
00:00008F70 74008BE2        	  1159:  ADD     R0, R11, #xCoord
00:00008F74 F30100EB        	  1160:  BL      ProjectVertexOntoScreen
00:00008F78 0300AAE8        	  1161:  STMIA   R10!, {R0-R1}
00:00008F7C 74008BE2        	  1162:  ADD     R0, R11, #xCoord
00:00008F80 C9FCFFEB        	  1163:  BL      GetLandscapeBelowVertex
00:00008F84 78008BE5        	  1164:  STR     R0, [R11, #yCoord]
00:00008F88 74008BE2        	  1165:  ADD     R0, R11, #xCoord
00:00008F8C ED0100EB        	  1166:  BL      ProjectVertexOntoScreen
00:00008F90 0300AAE8        	  1167:  STMIA   R10!, {R0-R1}
00:00008F94 0CE01AE5        	  1168:  LDR     R14, [R10, #-12]
00:00008F98 01005EE1        	  1169:  CMP     R14, R1
00:00008F9C 00E0E023        	  1170:  MVNHS   R14, #0
00:00008FA0 20E1CB25        	  1171:  STRHSB  R14, [R11, #crashedFlag]
00:00008FA4 018058E2        	  1172:  SUBS    R8, R8, #1
00:00008FA8 E9FFFF1A        	  1173:  BNE     dobj2
00:00008FAC 10119BE5        	  1174:  LDR     R1, [R11, #objectData]
00:00008FB0 080091E5        	  1175:  LDR     R0, [R1, #8]
00:00008FB4 009081E0        	  1176:  ADD     R9, R1, R0
00:00008FB8 048091E5        	  1177:  LDR     R8, [R1, #4]
                            	  1178: dobj3:
00:00008FBC 0900A0E1        	  1179:  MOV     R0, R9
00:00008FC0 0C9089E2        	  1180:  ADD     R9, R9, #12
00:00008FC4 54108BE2        	  1181:  ADD     R1, R11, #xVertex
00:00008FC8 A10000EB        	  1182:  BL      MultiplyVectorByMatrix
00:00008FCC 58109BE5        	  1183:  LDR     R1, [R11, #yVertex]
00:00008FD0 14E1DBE5        	  1184:  LDRB    R14, [R11, #objectFlags]
00:00008FD4 01001EE3        	  1185:  TST     R14, #0x1
00:00008FD8 0030E003        	  1186:  MVNEQ   R3, #0
00:00008FDC 0010E003        	  1187:  MVNEQ   R1, #0
00:00008FE0 84208B12        	  1188:  ADDNE   R2, R11, #xObjectScaled
00:00008FE4 54008B12        	  1189:  ADDNE   R0, R11, #xVertex
00:00008FE8 A700001B        	  1190:  BLNE    GetDotProduct
00:00008FEC 001B2DE9        	  1191:  STMFD   R13!, {R8-R9, R11-R12}
00:00008FF0 000051E3        	  1192:  CMP     R1, #0
00:00008FF4 0F00005A        	  1193:  BPL     dobj4
00:00008FF8 14E1DBE5        	  1194:  LDRB    R14, [R11, #objectFlags]
00:00008FFC 02001EE3        	  1195:  TST     R14, #0x2
00:00009000 0C00000A        	  1196:  BEQ     dobj4
00:00009004 080A2DE9        	  1197:  STMFD   R13!, {R3, R9, R11}
00:00009008 E00099E8        	  1198:  LDMIA   R9, {R5-R7}
00:0000900C 0080A0E3        	  1199:  MOV     R8, #0
00:00009010 06AC8BE2        	  1200:  ADD     R10, R11, #vertexProjected
00:00009014 08A08AE2        	  1201:  ADD     R10, R10, #8
00:00009018 05528AE0        	  1202:  ADD     R5, R10, R5, LSL #4
00:0000901C 030095E8        	  1203:  LDMIA   R5, {R0-R1}
00:00009020 06628AE0        	  1204:  ADD     R6, R10, R6, LSL #4
00:00009024 0C0096E8        	  1205:  LDMIA   R6, {R2-R3}
00:00009028 07728AE0        	  1206:  ADD     R7, R10, R7, LSL #4
00:0000902C 300097E8        	  1207:  LDMIA   R7, {R4-R5}
00:00009030 FC0200EB        	  1208:  BL      DrawTriangleShadowToBuffer
00:00009034 080ABDE8        	  1209:  LDMFD   R13!, {R3, R9, R11}
                            	  1210: dobj4:
00:00009038 000053E3        	  1211:  CMP     R3, #0
00:0000903C 2C00005A        	  1212:  BPL     dobj5
00:00009040 F00099E8        	  1213:  LDMIA   R9, {R4-R7}
00:00009044 06AC8BE2        	  1214:  ADD     R10, R11, #vertexProjected
00:00009048 58109BE5        	  1215:  LDR     R1, [R11, #yVertex]
00:0000904C 54009BE5        	  1216:  LDR     R0, [R11, #xVertex]
00:00009050 021161E2        	  1217:  RSB     R1, R1, #0x80000000
00:00009054 211EA0E1        	  1218:  MOV     R1, R1, LSR #28
00:00009058 000050E3        	  1219:  CMP     R0, #0
00:0000905C 01108142        	  1220:  ADDMI   R1, R1, #1
00:00009060 051051E2        	  1221:  SUBS    R1, R1, #5
00:00009064 0010A043        	  1222:  MOVMI   R1, #0
00:00009068 0F80A0E3        	  1223:  MOV     R8, #0xf
00:0000906C 270408E0        	  1224:  AND     R0, R8, R7, LSR #8
00:00009070 272208E0        	  1225:  AND     R2, R8, R7, LSR #4
00:00009074 087007E0        	  1226:  AND     R7, R7, R8
00:00009078 010080E0        	  1227:  ADD     R0, R0, R1
00:0000907C 100050E3        	  1228:  CMP     R0, #16
00:00009080 0F00A023        	  1229:  MOVHS   R0, #15
00:00009084 012082E0        	  1230:  ADD     R2, R2, R1
00:00009088 100052E3        	  1231:  CMP     R2, #16
00:0000908C 0F20A023        	  1232:  MOVHS   R2, #15
00:00009090 017087E0        	  1233:  ADD     R7, R7, R1
00:00009094 100057E3        	  1234:  CMP     R7, #16
00:00009098 0F70A023        	  1235:  MOVHS   R7, #15
00:0000909C 078082E1        	  1236:  ORR     R8, R2, R7
00:000090A0 038008E2        	  1237:  AND     R8, R8, #0x3
00:000090A4 008088E1        	  1238:  ORR     R8, R8, R0
00:000090A8 078008E2        	  1239:  AND     R8, R8, #0x7
00:000090AC 080010E3        	  1240:  TST     R0, #0x8
00:000090B0 10808813        	  1241:  ORRNE   R8, R8, #0x10
00:000090B4 0C2002E2        	  1242:  AND     R2, R2, #0xc
00:000090B8 828188E1        	  1243:  ORR     R8, R8, R2, LSL #3
00:000090BC 040017E3        	  1244:  TST     R7, #0x4
00:000090C0 08808813        	  1245:  ORRNE   R8, R8, #0x8
00:000090C4 080017E3        	  1246:  TST     R7, #0x8
00:000090C8 80808813        	  1247:  ORRNE   R8, R8, #0x80
00:000090CC 088488E1        	  1248:  ORR     R8, R8, R8, LSL #8
00:000090D0 088888E1        	  1249:  ORR     R8, R8, R8, LSL #16
00:000090D4 088C88E1        	  1250:  ORR     R8, R8, R8, LSL #24
00:000090D8 04428AE0        	  1251:  ADD     R4, R10, R4, LSL #4
00:000090DC 030094E8        	  1252:  LDMIA   R4, {R0-R1}
00:000090E0 05528AE0        	  1253:  ADD     R5, R10, R5, LSL #4
00:000090E4 0C0095E8        	  1254:  LDMIA   R5, {R2-R3}
00:000090E8 06628AE0        	  1255:  ADD     R6, R10, R6, LSL #4
00:000090EC 300096E8        	  1256:  LDMIA   R6, {R4-R5}
00:000090F0 D80200EB        	  1257:  BL      DrawTriangleToBuffer
                            	  1258: dobj5:
00:000090F4 001BBDE8        	  1259:  LDMFD   R13!, {R8-R9, R11-R12}
00:000090F8 109089E2        	  1260:  ADD     R9, R9, #16
00:000090FC 018058E2        	  1261:  SUBS    R8, R8, #1
00:00009100 ADFFFF1A        	  1262:  BNE     dobj3
00:00009104 C09FBDE8        	  1263:  LDMFD   R13!, {R6-R12, PC}
                            	  1264: PrintCurrentScore:
00:00009108 24019BE5        	  1265:  LDR     R0, [R11, #currentScore]
00:0000910C 021C8BE2        	  1266:  ADD     R1, R11, #stringBuffer
00:00009110 1320A0E3        	  1267:  MOV     R2, #19
00:00009114 010B50E3        	  1268:  CMP     R0, #1024
00:00009118 0548A023        	  1269:  MOVHS   R4, #0x50000
00:0000911C 2C418B25        	  1270:  STRHS   R4, [R11, #gravity]
00:00009120 5D0E50E3        	  1271:  CMP     R0, #1488
00:00009124 0748A023        	  1272:  MOVHS   R4, #0x70000
00:00009128 2C418B25        	  1273:  STRHS   R4, [R11, #gravity]
00:0000912C 280000EF        	  1274:  SWI     OS_BinaryToDecimal
00:00009130 1E00A0E3        	  1275:  MOV     R0, #30
00:00009134 000000EF        	  1276:  SWI     OS_WriteC
00:00009138 0A00A0E3        	  1277:  MOV     R0, #0x0A
00:0000913C 000000EF        	  1278:  SWI     OS_WriteC
                            	  1279: prsc1:
00:00009140 0100D1E4        	  1280:  LDRB    R0, [R1], #1
00:00009144 000000EF        	  1281:  SWI     OS_WriteC
00:00009148 012052E2        	  1282:  SUBS    R2, R2, #1
00:0000914C FBFFFF1A        	  1283:  BNE     prsc1
00:00009150 2000A0E3        	  1284:  MOV     R0, #0x20
00:00009154 000000EF        	  1285:  SWI     OS_WriteC
00:00009158 000000EF        	  1286:  SWI     OS_WriteC
00:0000915C 0EF0A0E1        	  1287:  MOV     PC, R14
                            	  1288: PrintScoreInBothBanks:
00:00009160 06002DE9        	  1289:  STMFD   R13!, {R1-R2}
00:00009164 021C8BE2        	  1290:  ADD     R1, R11, #stringBuffer
00:00009168 1320A0E3        	  1291:  MOV     R2, #19
00:0000916C 280000EF        	  1292:  SWI     OS_BinaryToDecimal
00:00009170 1F00A0E3        	  1293:  MOV     R0, #31
00:00009174 000000EF        	  1294:  SWI     OS_WriteC
00:00009178 1800BDE8        	  1295:  LDMFD   R13!, {R3-R4}
00:0000917C 0300A0E1        	  1296:  MOV     R0, R3
00:00009180 000000EF        	  1297:  SWI     OS_WriteC
00:00009184 0400A0E1        	  1298:  MOV     R0, R4
00:00009188 000000EF        	  1299:  SWI     OS_WriteC
00:0000918C 06002DE9        	  1300:  STMFD   R13!, {R1-R2}
00:00009190 7000A0E3        	  1301:  MOV     R0, #112
00:00009194 0110A0E3        	  1302:  MOV     R1, #1
00:00009198 060000EF        	  1303:  SWI     OS_Byte
00:0000919C 06009DE8        	  1304:  LDMFD   R13, {R1-R2}
                            	  1305: prsb1:
00:000091A0 0100D1E4        	  1306:  LDRB    R0, [R1], #1
00:000091A4 000000EF        	  1307:  SWI     OS_WriteC
00:000091A8 012052E2        	  1308:  SUBS    R2, R2, #1
00:000091AC FBFFFF1A        	  1309:  BNE     prsb1
00:000091B0 7000A0E3        	  1310:  MOV     R0, #112
00:000091B4 0210A0E3        	  1311:  MOV     R1, #2
00:000091B8 060000EF        	  1312:  SWI     OS_Byte
00:000091BC 1F00A0E3        	  1313:  MOV     R0, #31
00:000091C0 000000EF        	  1314:  SWI     OS_WriteC
00:000091C4 0300A0E1        	  1315:  MOV     R0, R3
00:000091C8 000000EF        	  1316:  SWI     OS_WriteC
00:000091CC 0400A0E1        	  1317:  MOV     R0, R4
00:000091D0 000000EF        	  1318:  SWI     OS_WriteC
00:000091D4 0600BDE8        	  1319:  LDMFD   R13!, {R1-R2}
                            	  1320: prsb2:
00:000091D8 0100D1E4        	  1321:  LDRB    R0, [R1], #1
00:000091DC 000000EF        	  1322:  SWI     OS_WriteC
00:000091E0 012052E2        	  1323:  SUBS    R2, R2, #1
00:000091E4 FBFFFF1A        	  1324:  BNE     prsb2
00:000091E8 0EF0A0E1        	  1325:  MOV     PC, R14
                            	  1326: fuelBarColour:
00:000091EC 37373737        	  1327: .long    0x37373737
                            	  1328: sinTableAddr: 
00:000091F0 10B80000        	  1329: .long    sinTable
                            	  1330: arctanTableAddr:
00:000091F4 10C80000        	  1331: .long    arctanTable
                            	  1332: squareRootTableAddr:
00:000091F8 10CA0000        	  1333: .long    squareRootTable
                            	  1334: DrawFuelLevel:
00:000091FC 005C2DE9        	  1335:  STMFD   R13!, {R10-R12, R14}
00:00009200 28119BE5        	  1336:  LDR     R1, [R11, #fuelLevel]
00:00009204 5C21DBE5        	  1337:  LDRB    R2, [R11, #fuelBurnRate]
00:00009208 021051E0        	  1338:  SUBS    R1, R1, R2
00:0000920C 0010A043        	  1339:  MOVMI   R1, #0
00:00009210 28118BE5        	  1340:  STR     R1, [R11, #fuelLevel]
00:00009214 50789FE5        	  1341:  LDR     R7, screenAddr
00:00009218 05BD87E2        	  1342:  ADD     R11, R7, #320
00:0000921C 38801FE5        	  1343:  LDR     R8, fuelBarColour
00:00009220 21A2A0E1        	  1344:  MOV     R10, R1, LSR #4
00:00009224 A70400EB        	  1345:  BL      DrawHorizontalLine
00:00009228 0ABD87E2        	  1346:  ADD     R11, R7, #2*320
00:0000922C 48801FE5        	  1347:  LDR     R8, fuelBarColour
00:00009230 21A2A0E1        	  1348:  MOV     R10, R1, LSR #4
00:00009234 A30400EB        	  1349:  BL      DrawHorizontalLine
00:00009238 0FBD87E2        	  1350:  ADD     R11, R7, #3*320
00:0000923C 58801FE5        	  1351:  LDR     R8, fuelBarColour
00:00009240 21A2A0E1        	  1352:  MOV     R10, R1, LSR #4
00:00009244 9F0400EB        	  1353:  BL      DrawHorizontalLine
00:00009248 009CBDE8        	  1354:  LDMFD   R13!, {R10-R12, PC}
                            	  1355: graphicsBufferEndAddr:
00:0000924C 5C800000        	  1356: .long    graphicsBuffersEnd
                            	  1357: graphicsBufferAddr:
00:00009250 2C800000        	  1358: .long    graphicsBuffers
                            	  1359: MultiplyVectorByMatrix:
00:00009254 1421DBE5        	  1360:  LDRB    R2, [R11, #objectFlags]
00:00009258 010012E3        	  1361:  TST     R2, #0x1
00:0000925C 1C009008        	  1362:  LDMEQIA R0, {R2-R4}
00:00009260 1C008108        	  1363:  STMEQIA R1, {R2-R4}
00:00009264 0EF0A001        	  1364:  MOVEQ   PC, R14
00:00009268 C0402DE9        	  1365:  STMFD   R13!, {R6-R7, R14}
00:0000926C 30208BE2        	  1366:  ADD     R2, R11, #rotationMatrix
00:00009270 050000EB        	  1367:  BL      GetDotProduct
00:00009274 003081E5        	  1368:  STR     R3, [R1]
00:00009278 030000EB        	  1369:  BL      GetDotProduct
00:0000927C 043081E5        	  1370:  STR     R3, [R1, #4]
00:00009280 010000EB        	  1371:  BL      GetDotProduct
00:00009284 083081E5        	  1372:  STR     R3, [R1, #8]
00:00009288 C080BDE8        	  1373:  LDMFD   R13!, {R6-R7, PC}
                            	  1374: GetDotProduct:
00:0000928C 044092E4        	  1375:  LDR     R4, [R2], #4
00:00009290 005090E5        	  1376:  LDR     R5, [R0]
00:00009294 057024E0        	  1377:  EOR     R7, R4, R5
00:00009298 000034E3        	  1378:  TEQ     R4, #0
00:0000929C 00406442        	  1379:  RSBMI   R4, R4, #0
00:000092A0 0441B0E1        	  1380:  MOVS    R4, R4, LSL #2
00:000092A4 000035E3        	  1381:  TEQ     R5, #0
00:000092A8 00506542        	  1382:  RSBMI   R5, R5, #0
00:000092AC 8550A0E1        	  1383:  MOV     R5, R5, LSL #1
00:000092B0 FE4404E2        	  1384:  AND     R4, R4, #0xFE000000
00:000092B4 014484E3        	  1385:  ORR     R4, R4, #0x01000000
00:000092B8 0030A0E3        	  1386:  MOV     R3, #0
                            	  1387: dotp1:
00:000092BC A550A0E1        	  1388:  MOV     R5, R5, LSR #1
00:000092C0 05308320        	  1389:  ADDCS   R3, R3, R5
00:000092C4 8440B0E1        	  1390:  MOVS    R4, R4, LSL #1
00:000092C8 FBFFFF1A        	  1391:  BNE     dotp1
00:000092CC A330A0E1        	  1392:  MOV     R3, R3, LSR #1
00:000092D0 000037E3        	  1393:  TEQ     R7, #0
00:000092D4 00306342        	  1394:  RSBMI   R3, R3, #0
00:000092D8 044092E4        	  1395:  LDR     R4, [R2], #4
00:000092DC 045090E5        	  1396:  LDR     R5, [R0, #4]
00:000092E0 057024E0        	  1397:  EOR     R7, R4, R5
00:000092E4 000034E3        	  1398:  TEQ     R4, #0
00:000092E8 00406442        	  1399:  RSBMI   R4, R4, #0
00:000092EC 0441B0E1        	  1400:  MOVS    R4, R4, LSL #2
00:000092F0 000035E3        	  1401:  TEQ     R5, #0
00:000092F4 00506542        	  1402:  RSBMI   R5, R5, #0
00:000092F8 8550A0E1        	  1403:  MOV     R5, R5, LSL #1
00:000092FC FE4404E2        	  1404:  AND     R4, R4, #0xFE000000
00:00009300 014484E3        	  1405:  ORR     R4, R4, #0x01000000
00:00009304 0060A0E3        	  1406:  MOV     R6, #0
                            	  1407: dotp2:
00:00009308 A550A0E1        	  1408:  MOV     R5, R5, LSR #1
00:0000930C 05608620        	  1409:  ADDHS   R6, R6, R5
00:00009310 8440B0E1        	  1410:  MOVS    R4, R4, LSL #1
00:00009314 FBFFFF1A        	  1411:  BNE     dotp2
00:00009318 A660A0E1        	  1412:  MOV     R6, R6, LSR #1
00:0000931C 000037E3        	  1413:  TEQ     R7, #0
00:00009320 00606642        	  1414:  RSBMI   R6, R6, #0
00:00009324 063083E0        	  1415:  ADD     R3, R3, R6
00:00009328 044092E4        	  1416:  LDR     R4, [R2], #4
00:0000932C 085090E5        	  1417:  LDR     R5, [R0, #8]
00:00009330 057024E0        	  1418:  EOR     R7, R4, R5
00:00009334 000034E3        	  1419:  TEQ     R4, #0
00:00009338 00406442        	  1420:  RSBMI   R4, R4, #0
00:0000933C 0441B0E1        	  1421:  MOVS    R4, R4, LSL #2
00:00009340 000035E3        	  1422:  TEQ     R5, #0
00:00009344 00506542        	  1423:  RSBMI   R5, R5, #0
00:00009348 8550A0E1        	  1424:  MOV     R5, R5, LSL #1
00:0000934C FE4404E2        	  1425:  AND     R4, R4, #0xFE000000
00:00009350 014484E3        	  1426:  ORR     R4, R4, #0x01000000
00:00009354 0060A0E3        	  1427:  MOV     R6, #0
                            	  1428: dotp3:
00:00009358 A550A0E1        	  1429:  MOV     R5, R5, LSR #1
00:0000935C 05608620        	  1430:  ADDHS   R6, R6, R5
00:00009360 8440B0E1        	  1431:  MOVS    R4, R4, LSL #1
00:00009364 FBFFFF1A        	  1432:  BNE     dotp3
00:00009368 A660A0E1        	  1433:  MOV     R6, R6, LSR #1
00:0000936C 000037E3        	  1434:  TEQ     R7, #0
00:00009370 00606642        	  1435:  RSBMI   R6, R6, #0
00:00009374 063093E0        	  1436:  ADDS    R3, R3, R6
00:00009378 0EF0A0E1        	  1437:  MOV     PC, R14
                            	  1438: TransposeRotationMatrix:
00:0000937C 30208BE2        	  1439:  ADD     R2, R11, #rotationMatrix
00:00009380 040092E5        	  1440:  LDR     R0, [R2, #4]
00:00009384 0C1092E5        	  1441:  LDR     R1, [R2, #12]
00:00009388 0C0082E5        	  1442:  STR     R0, [R2, #12]
00:0000938C 041082E5        	  1443:  STR     R1, [R2, #4]
00:00009390 080092E5        	  1444:  LDR     R0, [R2, #8]
00:00009394 181092E5        	  1445:  LDR     R1, [R2, #24]
00:00009398 180082E5        	  1446:  STR     R0, [R2, #24]
00:0000939C 081082E5        	  1447:  STR     R1, [R2, #8]
00:000093A0 140092E5        	  1448:  LDR     R0, [R2, #20]
00:000093A4 1C1092E5        	  1449:  LDR     R1, [R2, #28]
00:000093A8 1C0082E5        	  1450:  STR     R0, [R2, #28]
00:000093AC 141082E5        	  1451:  STR     R1, [R2, #20]
00:000093B0 0EF0A0E1        	  1452:  MOV     PC, R14
                            	  1453: AddVectorsWithFeedback:
00:000093B4 60402DE9        	  1454:  STMFD   R13!, {R5-R6, R14}
00:000093B8 1C0090E8        	  1455:  LDMIA   R0, {R2-R4}
00:000093BC 604091E8        	  1456:  LDMIA   R1, {R5-R6, R14}
00:000093C0 452282E0        	  1457:  ADD     R2, R2, R5, ASR #4
00:000093C4 425245E0        	  1458:  SUB     R5, R5, R2, ASR #4
00:000093C8 463283E0        	  1459:  ADD     R3, R3, R6, ASR #4
00:000093CC 436246E0        	  1460:  SUB     R6, R6, R3, ASR #4
00:000093D0 4E4284E0        	  1461:  ADD     R4, R4, R14, ASR #4
00:000093D4 44E24EE0        	  1462:  SUB     R14, R14, R4, ASR #4
00:000093D8 1C0080E8        	  1463:  STMIA   R0, {R2-R4}
00:000093DC 604081E8        	  1464:  STMIA   R1, {R5-R6, R14}
00:000093E0 6080BDE8        	  1465:  LDMFD   R13!, {R5-R6, PC}
                            	  1466: CalculateRotationMatrix:
00:000093E4 03402DE9        	  1467:  STMFD   R13!, {R0-R1, R14}
00:000093E8 010180E2        	  1468:  ADD     R0, R0, #0x40000000
00:000093EC 04E21FE5        	  1469:  LDR     R14, sinTableAddr
00:000093F0 0306C0E3        	  1470:  BIC     R0, R0, #0x00300000
00:000093F4 202A9EE7        	  1471:  LDR     R2, [R14, R0, LSR #20]
00:000093F8 011181E2        	  1472:  ADD     R1, R1, #0x40000000
00:000093FC 14E21FE5        	  1473:  LDR     R14, sinTableAddr
00:00009400 0316C1E3        	  1474:  BIC     R1, R1, #0x00300000
00:00009404 213A9EE7        	  1475:  LDR     R3, [R14, R1, LSR #20]
00:00009408 3000BDE8        	  1476:  LDMFD   R13!, {R4-R5}
00:0000940C 24E21FE5        	  1477:  LDR     R14, sinTableAddr
00:00009410 0346C4E3        	  1478:  BIC     R4, R4, #0x00300000
00:00009414 240A9EE7        	  1479:  LDR     R0, [R14, R4, LSR #20]
00:00009418 30E21FE5        	  1480:  LDR     R14, sinTableAddr
00:0000941C 0356C5E3        	  1481:  BIC     R5, R5, #0x00300000
00:00009420 251A9EE7        	  1482:  LDR     R1, [R14, R5, LSR #20]
00:00009424 0F002DE9        	  1483:  STMFD   R13!, {R0-R3}
00:00009428 03E022E0        	  1484:  EOR     R14, R2, R3
00:0000942C 000032E3        	  1485:  TEQ     R2, #0
00:00009430 00206242        	  1486:  RSBMI   R2, R2, #0
00:00009434 0221B0E1        	  1487:  MOVS    R2, R2, LSL #2
00:00009438 000033E3        	  1488:  TEQ     R3, #0
00:0000943C 00306342        	  1489:  RSBMI   R3, R3, #0
00:00009440 8330A0E1        	  1490:  MOV     R3, R3, LSL #1
00:00009444 FE2402E2        	  1491:  AND     R2, R2, #0xFE000000
00:00009448 012482E3        	  1492:  ORR     R2, R2, #0x01000000
00:0000944C 0040A0E3        	  1493:  MOV     R4, #0
                            	  1494: rmat1:
00:00009450 A330A0E1        	  1495:  MOV     R3, R3, LSR #1
00:00009454 03408420        	  1496:  ADDHS   R4, R4, R3
00:00009458 8220B0E1        	  1497:  MOVS    R2, R2, LSL #1
00:0000945C FBFFFF1A        	  1498:  BNE     rmat1
00:00009460 A440A0E1        	  1499:  MOV     R4, R4, LSR #1
00:00009464 00003EE3        	  1500:  TEQ     R14, #0
00:00009468 00406442        	  1501:  RSBMI   R4, R4, #0
00:0000946C 30408BE5        	  1502:  STR     R4, [R11, #xNoseV]
00:00009470 01E020E0        	  1503:  EOR     R14, R0, R1
00:00009474 000030E3        	  1504:  TEQ     R0, #0
00:00009478 00006042        	  1505:  RSBMI   R0, R0, #0
00:0000947C 0001B0E1        	  1506:  MOVS    R0, R0, LSL #2
00:00009480 000031E3        	  1507:  TEQ     R1, #0
00:00009484 00106142        	  1508:  RSBMI   R1, R1, #0
00:00009488 8110A0E1        	  1509:  MOV     R1, R1, LSL #1
00:0000948C FE0400E2        	  1510:  AND     R0, R0, #0xFE000000
00:00009490 010480E3        	  1511:  ORR     R0, R0, #0x01000000
00:00009494 0040A0E3        	  1512:  MOV     R4, #0
                            	  1513: rmat2:
00:00009498 A110A0E1        	  1514:  MOV     R1, R1, LSR #1
00:0000949C 01408420        	  1515:  ADDHS   R4, R4, R1
00:000094A0 8000B0E1        	  1516:  MOVS    R0, R0, LSL #1
00:000094A4 FBFFFF1A        	  1517:  BNE     rmat2
00:000094A8 A440A0E1        	  1518:  MOV     R4, R4, LSR #1
00:000094AC 00003EE3        	  1519:  TEQ     R14, #0
00:000094B0 00406442        	  1520:  RSBMI   R4, R4, #0
00:000094B4 4C408BE5        	  1521:  STR     R4, [R11, #zRoofV]
00:000094B8 0F009DE8        	  1522:  LDMFD   R13, {R0-R3}
00:000094BC 02E021E0        	  1523:  EOR     R14, R1, R2
00:000094C0 000031E3        	  1524:  TEQ     R1, #0
00:000094C4 00106142        	  1525:  RSBMI   R1, R1, #0
00:000094C8 0111B0E1        	  1526:  MOVS    R1, R1, LSL #2
00:000094CC 000032E3        	  1527:  TEQ     R2, #0
00:000094D0 00206242        	  1528:  RSBMI   R2, R2, #0
00:000094D4 8220A0E1        	  1529:  MOV     R2, R2, LSL #1
00:000094D8 FE1401E2        	  1530:  AND     R1, R1, #0xFE000000
00:000094DC 011481E3        	  1531:  ORR     R1, R1, #0x01000000
00:000094E0 0040A0E3        	  1532:  MOV     R4, #0
                            	  1533: rmat3:
00:000094E4 A220A0E1        	  1534:  MOV     R2, R2, LSR #1
00:000094E8 02408420        	  1535:  ADDHS   R4, R4, R2
00:000094EC 8110B0E1        	  1536:  MOVS    R1, R1, LSL #1
00:000094F0 FBFFFF1A        	  1537:  BNE     rmat3
00:000094F4 A440A0E1        	  1538:  MOV     R4, R4, LSR #1
00:000094F8 00003EE3        	  1539:  TEQ     R14, #0
00:000094FC 00406442        	  1540:  RSBMI   R4, R4, #0
00:00009500 004064E2        	  1541:  RSB     R4, R4, #0
00:00009504 48408BE5        	  1542:  STR     R4, [R11, #zNoseV]
00:00009508 03E020E0        	  1543:  EOR     R14, R0, R3
00:0000950C 000030E3        	  1544:  TEQ     R0, #0
00:00009510 00006042        	  1545:  RSBMI   R0, R0, #0
00:00009514 0001B0E1        	  1546:  MOVS    R0, R0, LSL #2
00:00009518 000033E3        	  1547:  TEQ     R3, #0
00:0000951C 00306342        	  1548:  RSBMI   R3, R3, #0
00:00009520 8330A0E1        	  1549:  MOV     R3, R3, LSL #1
00:00009524 FE0400E2        	  1550:  AND     R0, R0, #0xFE000000
00:00009528 010480E3        	  1551:  ORR     R0, R0, #0x01000000
00:0000952C 0040A0E3        	  1552:  MOV     R4, #0
                            	  1553: rmat4:
00:00009530 A330A0E1        	  1554:  MOV     R3, R3, LSR #1
00:00009534 03408420        	  1555:  ADDHS   R4, R4, R3
00:00009538 8000B0E1        	  1556:  MOVS    R0, R0, LSL #1
00:0000953C FBFFFF1A        	  1557:  BNE     rmat4
00:00009540 A440A0E1        	  1558:  MOV     R4, R4, LSR #1
00:00009544 00003EE3        	  1559:  TEQ     R14, #0
00:00009548 00406442        	  1560:  RSBMI   R4, R4, #0
00:0000954C 004064E2        	  1561:  RSB     R4, R4, #0
00:00009550 34408BE5        	  1562:  STR     R4, [R11, #xRoofV]
00:00009554 0F40BDE8        	  1563:  LDMFD   R13!, {R0-R3, R14}
00:00009558 3C008BE5        	  1564:  STR     R0, [R11, #yNoseV]
00:0000955C 38108BE5        	  1565:  STR     R1, [R11, #xSideV]
00:00009560 40208BE5        	  1566:  STR     R2, [R11, #yRoofV]
00:00009564 50308BE5        	  1567:  STR     R3, [R11, #zSideV]
00:00009568 0000A0E3        	  1568:  MOV     R0, #0
00:0000956C 44008BE5        	  1569:  STR     R0, [R11, #ySideV]
00:00009570 0EF0A0E1        	  1570:  MOV     PC, R14
                            	  1571: GetMouseInPolarCoordinates:
00:00009574 00402DE9        	  1572:  STMFD   R13!, {R14}
00:00009578 0030A0E3        	  1573:  MOV     R3, #0
00:0000957C 000050E3        	  1574:  CMP     R0, #0
00:00009580 03302342        	  1575:  EORMI   R3, R3, #0x3
00:00009584 00006042        	  1576:  RSBMI   R0, R0, #0
00:00009588 000051E3        	  1577:  CMP     R1, #0
00:0000958C 07302342        	  1578:  EORMI   R3, R3, #0x7
00:00009590 00106142        	  1579:  RSBMI   R1, R1, #0
00:00009594 03002DE9        	  1580:  STMFD   R13!, {R0-R1}
00:00009598 010050E1        	  1581:  CMP     R0, R1
00:0000959C 01302332        	  1582:  EORLO   R3, R3, #0x1
00:000095A0 0900002A        	  1583:  BHS     pole2
00:000095A4 0020A0E3        	  1584:  MOV     R2, #0
00:000095A8 80E0A0E3        	  1585:  MOV     R14, #0x80
                            	  1586: pole1:
00:000095AC 8000B0E1        	  1587:  MOVS    R0, R0, LSL #1
00:000095B0 01005031        	  1588:  CMPCC   R0, R1
00:000095B4 01004020        	  1589:  SUBCS   R0, R0, R1
00:000095B8 0E208221        	  1590:  ORRCS   R2, R2, R14
00:000095BC AEE0B0E1        	  1591:  MOVS    R14, R14, LSR #1
00:000095C0 F9FFFF3A        	  1592:  BCC     pole1
00:000095C4 022CB0E1        	  1593:  MOVS    R2, R2, LSL #24
00:000095C8 080000EA        	  1594:  B       pole4
                            	  1595: pole2:
00:000095CC 0020A0E3        	  1596:  MOV     R2, #0
00:000095D0 80E0A0E3        	  1597:  MOV     R14, #0x80
                            	  1598: pole3:
00:000095D4 8110B0E1        	  1599:  MOVS    R1, R1, LSL #1
00:000095D8 00005131        	  1600:  CMPLO   R1, R0
00:000095DC 00104120        	  1601:  SUBHS   R1, R1, R0
00:000095E0 0E208221        	  1602:  ORRHS   R2, R2, R14
00:000095E4 AEE0B0E1        	  1603:  MOVS    R14, R14, LSR #1
00:000095E8 F9FFFF3A        	  1604:  BLO     pole3
00:000095EC 022CB0E1        	  1605:  MOVS    R2, R2, LSL #24
                            	  1606: pole4:
00:000095F0 04E41FE5        	  1607:  LDR     R14, arctanTableAddr
00:000095F4 0625C2E3        	  1608:  BIC     R2, R2, #0x01800000
00:000095F8 A21B9EE7        	  1609:  LDR     R1, [R14, R2, LSR #23]
00:000095FC 010013E3        	  1610:  TST     R3, #0x1
00:00009600 831E8100        	  1611:  ADDEQ   R1, R1, R3, LSL #29
00:00009604 01308312        	  1612:  ADDNE   R3, R3, #1
00:00009608 831E6110        	  1613:  RSBNE   R1, R1, R3, LSL #29
00:0000960C 0500BDE8        	  1614:  LDMFD   R13!, {R0, R2}
00:00009610 0030A0E1        	  1615:  MOV     R3, R0
00:00009614 8330B0E1        	  1616:  MOVS    R3, R3, LSL #1
00:00009618 FE3403E2        	  1617:  AND     R3, R3, #0xFE000000
00:0000961C 013483E3        	  1618:  ORR     R3, R3, #0x01000000
00:00009620 0040A0E3        	  1619:  MOV     R4, #0
                            	  1620: pole5:
00:00009624 A000A0E1        	  1621:  MOV     R0, R0, LSR #1
00:00009628 00408420        	  1622:  ADDHS   R4, R4, R0
00:0000962C 8330B0E1        	  1623:  MOVS    R3, R3, LSL #1
00:00009630 FBFFFF1A        	  1624:  BNE     pole5
00:00009634 0230A0E1        	  1625:  MOV     R3, R2
00:00009638 8330B0E1        	  1626:  MOVS    R3, R3, LSL #1
00:0000963C FE3403E2        	  1627:  AND     R3, R3, #0xFE000000
00:00009640 013483E3        	  1628:  ORR     R3, R3, #0x01000000
00:00009644 00E0A0E3        	  1629:  MOV     R14, #0
                            	  1630: pole6:
00:00009648 A220A0E1        	  1631:  MOV     R2, R2, LSR #1
00:0000964C 02E08E20        	  1632:  ADDHS   R14, R14, R2
00:00009650 8330B0E1        	  1633:  MOVS    R3, R3, LSL #1
00:00009654 FBFFFF1A        	  1634:  BNE     pole6
00:00009658 04208EE0        	  1635:  ADD     R2, R14, R4
00:0000965C 6CE41FE5        	  1636:  LDR     R14, squareRootTableAddr
00:00009660 0326C2E3        	  1637:  BIC     R2, R2, #0x00300000
00:00009664 220A9EE7        	  1638:  LDR     R0, [R14, R2, LSR #20]
00:00009668 0080BDE8        	  1639:  LDMFD   R13!, {PC}
00:0000966C 070090E8        	  1640:  LDMIA   R0, {R0-R2}
                            	  1641: ProjectParticleOntoScreen:
00:00009670 020172E3        	  1642:  CMN     R2, #0x80000000
00:00009674 0EF0A021        	  1643:  MOVHS   PC, R14
00:00009678 0030B0E1        	  1644:  MOVS    R3, R0
00:0000967C 00306342        	  1645:  RSBMI   R3, R3, #0
00:00009680 0350E041        	  1646:  MVNMI   R5, R3
00:00009684 0350A051        	  1647:  MOVPL   R5, R3
00:00009688 0140B0E1        	  1648:  MOVS    R4, R1
00:0000968C 00406442        	  1649:  RSBMI   R4, R4, #0
00:00009690 0460E041        	  1650:  MVNMI   R6, R4
00:00009694 0460A051        	  1651:  MOVPL   R6, R4
00:00009698 065085E1        	  1652:  ORR     R5, R5, R6
00:0000969C 025085E1        	  1653:  ORR     R5, R5, R2
00:000096A0 015085E3        	  1654:  ORR     R5, R5, #1
00:000096A4 0060A0E3        	  1655:  MOV     R6, #0
                            	  1656: ppar1:
00:000096A8 8550B0E1        	  1657:  MOVS    R5, R5, LSL #1
00:000096AC 01608652        	  1658:  ADDPL   R6, R6, #1
00:000096B0 FCFFFF5A        	  1659:  BPL     ppar1
00:000096B4 1226A0E1        	  1660:  MOV     R2, R2, LSL R6
00:000096B8 1336A0E1        	  1661:  MOV     R3, R3, LSL R6
00:000096BC 1446A0E1        	  1662:  MOV     R4, R4, LSL R6
00:000096C0 020053E1        	  1663:  CMP     R3, R2
00:000096C4 02005431        	  1664:  CMPCC   R4, R2
00:000096C8 0EF0A021        	  1665:  MOVCS   PC, R14
00:000096CC 80402DE9        	  1666:  STMFD   R13!, {R7, R14}
00:000096D0 0270A0E1        	  1667:  MOV     R7, R2
00:000096D4 0060A0E3        	  1668:  MOV     R6, #0
00:000096D8 02ECA0E3        	  1669:  MOV     R14, #0x200
                            	  1670: ppar2:
00:000096DC 8440B0E1        	  1671:  MOVS    R4, R4, LSL #1
00:000096E0 07005431        	  1672:  CMPCC   R4, R7
00:000096E4 07404420        	  1673:  SUBCS   R4, R4, R7
00:000096E8 0E608621        	  1674:  ORRCS   R6, R6, R14
00:000096EC AEE0B0E1        	  1675:  MOVS    R14, R14, LSR #1
00:000096F0 F9FFFF3A        	  1676:  BCC     ppar2
00:000096F4 066BB0E1        	  1677:  MOVS    R6, R6, LSL #22
00:000096F8 0050A0E3        	  1678:  MOV     R5, #0
00:000096FC 02ECA0E3        	  1679:  MOV     R14, #0x200
                            	  1680: ppar3:
00:00009700 8330B0E1        	  1681:  MOVS    R3, R3, LSL #1
00:00009704 02005331        	  1682:  CMPCC   R3, R2
00:00009708 02304320        	  1683:  SUBCS   R3, R3, R2
00:0000970C 0E508521        	  1684:  ORRCS   R5, R5, R14
00:00009710 AEE0B0E1        	  1685:  MOVS    R14, R14, LSR #1
00:00009714 F9FFFF3A        	  1686:  BCC     ppar3
00:00009718 055BB0E1        	  1687:  MOVS    R5, R5, LSL #22
00:0000971C 255CA0E1        	  1688:  MOV     R5, R5, LSR #24
00:00009720 266CA0E1        	  1689:  MOV     R6, R6, LSR #24
00:00009724 000030E3        	  1690:  TEQ     R0, #0
00:00009728 A0008552        	  1691:  ADDPL   R0, R5, #160
00:0000972C A0006542        	  1692:  RSBMI   R0, R5, #160
00:00009730 000031E3        	  1693:  TEQ     R1, #0
00:00009734 40108652        	  1694:  ADDPL   R1, R6, #64
00:00009738 40106642        	  1695:  RSBMI   R1, R6, #64
00:0000973C 050D50E3        	  1696:  CMP     R0, #320
00:00009740 EF005133        	  1697:  CMPCC   R1, #239
00:00009744 8080BDE8        	  1698:  LDMFD   R13!, {R7, PC}
                            	  1699: ProjectVertexOntoScreen:
00:00009748 070090E8        	  1700:  LDMIA   R0, {R0-R2}
00:0000974C 020172E3        	  1701:  CMN     R2, #0x80000000
00:00009750 0EF0A021        	  1702:  MOVHS   PC, R14
00:00009754 E0402DE9        	  1703:  STMFD   R13!, {R5-R7, R14}
00:00009758 0030B0E1        	  1704:  MOVS    R3, R0
00:0000975C 00306342        	  1705:  RSBMI   R3, R3, #0
00:00009760 0350E041        	  1706:  MVNMI   R5, R3
00:00009764 0350A051        	  1707:  MOVPL   R5, R3
00:00009768 0140B0E1        	  1708:  MOVS    R4, R1
00:0000976C 00406442        	  1709:  RSBMI   R4, R4, #0
00:00009770 0460E041        	  1710:  MVNMI   R6, R4
00:00009774 0460A051        	  1711:  MOVPL   R6, R4
00:00009778 065085E1        	  1712:  ORR     R5, R5, R6
00:0000977C 025085E1        	  1713:  ORR     R5, R5, R2
00:00009780 015085E3        	  1714:  ORR     R5, R5, #1
00:00009784 0060A0E3        	  1715:  MOV     R6, #0
                            	  1716: pver1:
00:00009788 8550B0E1        	  1717:  MOVS    R5, R5, LSL #1
00:0000978C 01608652        	  1718:  ADDPL   R6, R6, #1
00:00009790 FCFFFF5A        	  1719:  BPL     pver1
00:00009794 1226A0E1        	  1720:  MOV     R2, R2, LSL R6
00:00009798 1336A0E1        	  1721:  MOV     R3, R3, LSL R6
00:0000979C 1446A0E1        	  1722:  MOV     R4, R4, LSL R6
00:000097A0 030052E1        	  1723:  CMP     R2, R3
00:000097A4 04005221        	  1724:  CMPHS   R2, R4
00:000097A8 1C00003A        	  1725:  BLO     pver4
00:000097AC 0270A0E1        	  1726:  MOV     R7, R2
00:000097B0 0060A0E3        	  1727:  MOV     R6, #0
00:000097B4 01ECA0E3        	  1728:  MOV     R14, #0x100
                            	  1729: pver2:
00:000097B8 8440B0E1        	  1730:  MOVS    R4, R4, LSL #1
00:000097BC 07005431        	  1731:  CMPCC   R4, R7
00:000097C0 07404420        	  1732:  SUBCS   R4, R4, R7
00:000097C4 0E608621        	  1733:  ORRCS   R6, R6, R14
00:000097C8 AEE0B0E1        	  1734:  MOVS    R14, R14, LSR #1
00:000097CC F9FFFF3A        	  1735:  BCC     pver2
00:000097D0 866BB0E1        	  1736:  MOVS    R6, R6, LSL #23
00:000097D4 0050A0E3        	  1737:  MOV     R5, #0
00:000097D8 02ECA0E3        	  1738:  MOV     R14, #0x200
                            	  1739: pver3:
00:000097DC 8330B0E1        	  1740:  MOVS    R3, R3, LSL #1
00:000097E0 02005331        	  1741:  CMPCC   R3, R2
00:000097E4 02304320        	  1742:  SUBCS   R3, R3, R2
00:000097E8 0E508521        	  1743:  ORRCS   R5, R5, R14
00:000097EC AEE0B0E1        	  1744:  MOVS    R14, R14, LSR #1
00:000097F0 F9FFFF3A        	  1745:  BCC     pver3
00:000097F4 055BB0E1        	  1746:  MOVS    R5, R5, LSL #22
00:000097F8 255CA0E1        	  1747:  MOV     R5, R5, LSR #24
00:000097FC 266CA0E1        	  1748:  MOV     R6, R6, LSR #24
00:00009800 000030E3        	  1749:  TEQ     R0, #0
00:00009804 A0008552        	  1750:  ADDPL   R0, R5, #160
00:00009808 A0006542        	  1751:  RSBMI   R0, R5, #160
00:0000980C 000031E3        	  1752:  TEQ     R1, #0
00:00009810 40108652        	  1753:  ADDPL   R1, R6, #64
00:00009814 40106642        	  1754:  RSBMI   R1, R6, #64
00:00009818 000070E3        	  1755:  CMN     R0, #0
00:0000981C E080BDE8        	  1756:  LDMFD   R13!, {R5-R7, PC}
                            	  1757: pver4:
00:00009820 1850A0E3        	  1758:  MOV     R5, #24
00:00009824 040053E1        	  1759:  CMP     R3, R4
00:00009828 A360A021        	  1760:  MOVHS   R6, R3, LSR #1
00:0000982C A360A031        	  1761:  MOVLO   R6, R3, LSR #1
                            	  1762: pver5:
00:00009830 060052E1        	  1763:  CMP     R2, R6
00:00009834 01508532        	  1764:  ADDLO   R5, R5, #1
00:00009838 A660A0E1        	  1765:  MOV     R6, R6, LSR #1
00:0000983C FBFFFF3A        	  1766:  BLO     pver5
00:00009840 A22BA0E1        	  1767:  MOV     R2, R2, LSR #23
00:00009844 3335A0E1        	  1768:  MOV     R3, R3, LSR R5
00:00009848 3445A0E1        	  1769:  MOV     R4, R4, LSR R5
00:0000984C 0270A0E1        	  1770:  MOV     R7, R2
00:00009850 20002DE9        	  1771:  STMFD   R13!, {R5}
00:00009854 0060A0E3        	  1772:  MOV     R6, #0
00:00009858 80E0A0E3        	  1773:  MOV     R14, #0x80
00:0000985C 044CA0E1        	  1774:  MOV     R4, R4, LSL #24
00:00009860 077CA0E1        	  1775:  MOV     R7, R7, LSL #24
                            	  1776: pver6:
00:00009864 8440B0E1        	  1777:  MOVS    R4, R4, LSL #1
00:00009868 07005431        	  1778:  CMPCC   R4, R7
00:0000986C 07404420        	  1779:  SUBCS   R4, R4, R7
00:00009870 0E608621        	  1780:  ORRCS   R6, R6, R14
00:00009874 AEE0B0E1        	  1781:  MOVS    R14, R14, LSR #1
00:00009878 F9FFFF3A        	  1782:  BCC     pver6
00:0000987C 066CB0E1        	  1783:  MOVS    R6, R6, LSL #24
00:00009880 0050A0E3        	  1784:  MOV     R5, #0
00:00009884 02ECA0E3        	  1785:  MOV     R14, #0x200
00:00009888 033BA0E1        	  1786:  MOV     R3, R3, LSL #22
00:0000988C 022BA0E1        	  1787:  MOV     R2, R2, LSL #22
                            	  1788: pver7:
00:00009890 8330B0E1        	  1789:  MOVS    R3, R3, LSL #1
00:00009894 02005331        	  1790:  CMPCC   R3, R2
00:00009898 02304320        	  1791:  SUBCS   R3, R3, R2
00:0000989C 0E508521        	  1792:  ORRCS   R5, R5, R14
00:000098A0 AEE0B0E1        	  1793:  MOVS    R14, R14, LSR #1
00:000098A4 F9FFFF3A        	  1794:  BCC     pver7
00:000098A8 055BB0E1        	  1795:  MOVS    R5, R5, LSL #22
00:000098AC 0040BDE8        	  1796:  LDMFD   R13!, {R14}
00:000098B0 17E04EE2        	  1797:  SUB     R14, R14, #23
00:000098B4 17E06EE2        	  1798:  RSB     R14, R14, #23
00:000098B8 355EA0E1        	  1799:  MOV     R5, R5, LSR R14
00:000098BC 366EA0E1        	  1800:  MOV     R6, R6, LSR R14
00:000098C0 A660A0E1        	  1801:  MOV     R6, R6, LSR #1
00:000098C4 000030E3        	  1802:  TEQ     R0, #0
00:000098C8 A0008552        	  1803:  ADDPL   R0, R5, #160
00:000098CC A0006542        	  1804:  RSBMI   R0, R5, #160
00:000098D0 000031E3        	  1805:  TEQ     R1, #0
00:000098D4 40108652        	  1806:  ADDPL   R1, R6, #64
00:000098D8 40106642        	  1807:  RSBMI   R1, R6, #64
00:000098DC 000070E3        	  1808:  CMN     R0, #0
00:000098E0 E080BDE8        	  1809:  LDMFD   R13!, {R5-R7, PC}
                            	  1810: vmod1:
00:000098E4 64408BE2        	  1811:  ADD     R4, R11, #xVertexRotated
                            	  1812: vmod2:
00:000098E8 74408BE2        	  1813:  ADD     R4, R11, #xCoord
                            	  1814: vmod3:
00:000098EC 0C40A0E1        	  1815:  MOV     R4, R12
                            	  1816: vmod4:
00:000098F0 174E8BE2        	  1817:  ADD     R4, R11, #xLandscapeCol
                            	  1818: vmod5:
00:000098F4 164E8BE2        	  1819:  ADD     R4, R11, #xLandscapeRow
                            	  1820: AddVectors:
00:000098F8 00402DE9        	  1821:  STMFD   R13!, {R14}
00:000098FC 18101FE5        	  1822:  LDR     R1, vmod3
00:00009900 30108FE5        	  1823:  STR     R1, AddVectorToVertices+28
00:00009904 070090E8        	  1824:  LDMIA   R0, {R0-R2}
00:00009908 0C30A0E1        	  1825:  MOV     R3, R12
00:0000990C 040000EB        	  1826:  BL      AddVectorToVertices+8
00:00009910 30101FE5        	  1827:  LDR     R1, vmod2
00:00009914 1C108FE5        	  1828:  STR     R1, AddVectorToVertices+28
00:00009918 0080BDE8        	  1829:  LDMFD   R13!, {PC}
                            	  1830: AddVectorToVertices:
00:0000991C 070090E8        	  1831:  LDMIA   R0, {R0-R2}
00:00009920 64308BE2        	  1832:  ADD     R3, R11, #xVertexRotated
00:00009924 60002DE9        	  1833:  STMFD   R13!, {R5-R6}
00:00009928 380093E8        	  1834:  LDMIA   R3, {R3-R5}
00:0000992C 030080E0        	  1835:  ADD     R0, R0, R3
00:00009930 041081E0        	  1836:  ADD     R1, R1, R4
00:00009934 052082E0        	  1837:  ADD     R2, R2, R5
00:00009938 74308BE2        	  1838:  ADD     R3, R11, #xCoord
00:0000993C 070083E8        	  1839:  STMIA   R3, {R0-R2}
00:00009940 6000BDE8        	  1840:  LDMFD   R13!, {R5-R6}
00:00009944 0EF0A0E1        	  1841:  MOV     PC, R14
                            	  1842: MultiplyVectorByConstant:
00:00009948 E0412DE9        	  1843:  STMFD   R13!, {R5-R8, R14}
00:0000994C 0E4091E8        	  1844:  LDMIA   R1, {R1-R3, R14}
00:00009950 0080A0E1        	  1845:  MOV     R8, R0
00:00009954 014028E0        	  1846:  EOR     R4, R8, R1
00:00009958 000038E3        	  1847:  TEQ     R8, #0
00:0000995C 00806842        	  1848:  RSBMI   R8, R8, #0
00:00009960 0881B0E1        	  1849:  MOVS    R8, R8, LSL #2
00:00009964 000031E3        	  1850:  TEQ     R1, #0
00:00009968 00106142        	  1851:  RSBMI   R1, R1, #0
00:0000996C 8110A0E1        	  1852:  MOV     R1, R1, LSL #1
00:00009970 FE8408E2        	  1853:  AND     R8, R8, #0xFE000000
00:00009974 018488E3        	  1854:  ORR     R8, R8, #0x01000000
00:00009978 0050A0E3        	  1855:  MOV     R5, #0
                            	  1856: vcon1:
00:0000997C A110A0E1        	  1857:  MOV     R1, R1, LSR #1
00:00009980 01508520        	  1858:  ADDCS   R5, R5, R1
00:00009984 8880B0E1        	  1859:  MOVS    R8, R8, LSL #1
00:00009988 FBFFFF1A        	  1860:  BNE     vcon1
00:0000998C A550A0E1        	  1861:  MOV     R5, R5, LSR #1
00:00009990 000034E3        	  1862:  TEQ     R4, #0
00:00009994 00506542        	  1863:  RSBMI   R5, R5, #0
00:00009998 0080A0E1        	  1864:  MOV     R8, R0
00:0000999C 024028E0        	  1865:  EOR     R4, R8, R2
00:000099A0 000038E3        	  1866:  TEQ     R8, #0
00:000099A4 00806842        	  1867:  RSBMI   R8, R8, #0
00:000099A8 0881B0E1        	  1868:  MOVS    R8, R8, LSL #2
00:000099AC 000032E3        	  1869:  TEQ     R2, #0
00:000099B0 00206242        	  1870:  RSBMI   R2, R2, #0
00:000099B4 8220A0E1        	  1871:  MOV     R2, R2, LSL #1
00:000099B8 FE8408E2        	  1872:  AND     R8, R8, #0xFE000000
00:000099BC 018488E3        	  1873:  ORR     R8, R8, #0x01000000
00:000099C0 0060A0E3        	  1874:  MOV     R6, #0
                            	  1875: vcon2:
00:000099C4 A220A0E1        	  1876:  MOV     R2, R2, LSR #1
00:000099C8 02608620        	  1877:  ADDCS   R6, R6, R2
00:000099CC 8880B0E1        	  1878:  MOVS    R8, R8, LSL #1
00:000099D0 FBFFFF1A        	  1879:  BNE     vcon2
00:000099D4 A660A0E1        	  1880:  MOV     R6, R6, LSR #1
00:000099D8 000034E3        	  1881:  TEQ     R4, #0
00:000099DC 00606642        	  1882:  RSBMI   R6, R6, #0
00:000099E0 0080A0E1        	  1883:  MOV     R8, R0
00:000099E4 034028E0        	  1884:  EOR     R4, R8, R3
00:000099E8 000038E3        	  1885:  TEQ     R8, #0
00:000099EC 00806842        	  1886:  RSBMI   R8, R8, #0
00:000099F0 0881B0E1        	  1887:  MOVS    R8, R8, LSL #2
00:000099F4 000033E3        	  1888:  TEQ     R3, #0
00:000099F8 00306342        	  1889:  RSBMI   R3, R3, #0
00:000099FC 8330A0E1        	  1890:  MOV     R3, R3, LSL #1
00:00009A00 FE8408E2        	  1891:  AND     R8, R8, #0xFE000000
00:00009A04 018488E3        	  1892:  ORR     R8, R8, #0x01000000
00:00009A08 0070A0E3        	  1893:  MOV     R7, #0
                            	  1894: vcon3:
00:00009A0C A330A0E1        	  1895:  MOV     R3, R3, LSR #1
00:00009A10 03708720        	  1896:  ADDCS   R7, R7, R3
00:00009A14 8880B0E1        	  1897:  MOVS    R8, R8, LSL #1
00:00009A18 FBFFFF1A        	  1898:  BNE     vcon3
00:00009A1C A770A0E1        	  1899:  MOV     R7, R7, LSR #1
00:00009A20 000034E3        	  1900:  TEQ     R4, #0
00:00009A24 00706742        	  1901:  RSBMI   R7, R7, #0
00:00009A28 02E08EE2        	  1902:  ADD     R14, R14, #2
00:00009A2C 64808BE2        	  1903:  ADD     R8, R11, #xVertexRotated
00:00009A30 E04088E8        	  1904:  STMIA   R8, {R5-R7, R14}
00:00009A34 E081BDE8        	  1905:  LDMFD   R13!, {R5-R8, PC}
                            	  1906: randomSeed1:
00:00009A38 90349C4F        	  1907: .long    0x4F9C3490
                            	  1908: randomSeed2:
00:00009A3C CF8303DA        	  1909: .long    0xDA0383CF
                            	  1910: GetRandomNumbers:
00:00009A40 00402DE9        	  1911:  STMFD   R13!, {R14}
00:00009A44 14001FE5        	  1912:  LDR     R0, randomSeed1
00:00009A48 14101FE5        	  1913:  LDR     R1, randomSeed2
00:00009A4C A10011E1        	  1914:  TST     R1, R1, LSR #1
00:00009A50 60E0B0E1        	  1915:  MOVS    R14, R0, RRX
00:00009A54 0110A1E0        	  1916:  ADC     R1, R1, R1
00:00009A58 00E62EE0        	  1917:  EOR     R14, R14, R0, LSL #12
00:00009A5C 2E0A2EE0        	  1918:  EOR     R0, R14, R14, LSR #20
00:00009A60 30100FE5        	  1919:  STR     R1, randomSeed1
00:00009A64 30000FE5        	  1920:  STR     R0, randomSeed2
00:00009A68 0080BDE8        	  1921:  LDMFD   R13!, {PC}
                            	  1922: screenAddr:
00:00009A6C 0094FD01        	  1923: .long    0x01FD8000 + 16 * 320
                            	  1924: greyColourWords:
00:00009A70 00000000        	  1925: .long    0x00000000
00:00009A74 01010101        	  1926: .long    0x01010101
00:00009A78 02020202        	  1927: .long    0x02020202
00:00009A7C 03030303        	  1928: .long    0x03030303
00:00009A80 2C2C2C2C        	  1929: .long    0x2C2C2C2C
00:00009A84 2D2D2D2D        	  1930: .long    0x2D2D2D2D
00:00009A88 2E2E2E2E        	  1931: .long    0x2E2E2E2E
00:00009A8C 2F2F2F2F        	  1932: .long    0x2F2F2F2F
00:00009A90 D0D0D0D0        	  1933: .long    0xD0D0D0D0
00:00009A94 D1D1D1D1        	  1934: .long    0xD1D1D1D1
00:00009A98 D2D2D2D2        	  1935: .long    0xD2D2D2D2
00:00009A9C D3D3D3D3        	  1936: .long    0xD3D3D3D3
00:00009AA0 FCFCFCFC        	  1937: .long    0xFCFCFCFC
00:00009AA4 FDFDFDFD        	  1938: .long    0xFDFDFDFD
00:00009AA8 FEFEFEFE        	  1939: .long    0xFEFEFEFE
00:00009AAC FFFFFFFF        	  1940: .long    0xFFFFFFFF
00:00009AB0 FFFFFFFF        	  1941: .long    0xFFFFFFFF
00:00009AB4 FFFFFFFF        	  1942: .long    0xFFFFFFFF
00:00009AB8 FFFFFFFF        	  1943: .long    0xFFFFFFFF
00:00009ABC FFFFFFFF        	  1944: .long    0xFFFFFFFF
                            	  1945: greyColourWordsAddr:
00:00009AC0 709A0000        	  1946: .long    greyColourWords
                            	  1947: Draw1x1ParticleFromBuffer:
00:00009AC4 041099E4        	  1948:  LDR     R1, [R9], #4
00:00009AC8 210AA0E1        	  1949:  MOV     R0, R1, LSR #20
00:00009ACC 2176A0E1        	  1950:  MOV     R7, R1, LSR #12
00:00009AD0 FF1001E2        	  1951:  AND     R1, R1, #0xFF
00:00009AD4 00308CE0        	  1952:  ADD     R3, R12, R0
00:00009AD8 011181E0        	  1953:  ADD     R1, R1, R1, LSL #2
00:00009ADC 013383E0        	  1954:  ADD     R3, R3, R1, LSL #6
00:00009AE0 0070C3E5        	  1955:  STRB    R7, [R3]
00:00009AE4 800000EA        	  1956:  B       DrawNextFromGraphicsBuffer
                            	  1957: Draw2x1ParticleFromBuffer:
00:00009AE8 041099E4        	  1958:  LDR     R1, [R9], #4
00:00009AEC 210AA0E1        	  1959:  MOV     R0, R1, LSR #20
00:00009AF0 2176A0E1        	  1960:  MOV     R7, R1, LSR #12
00:00009AF4 FF1001E2        	  1961:  AND     R1, R1, #0xFF
00:00009AF8 00308CE0        	  1962:  ADD     R3, R12, R0
00:00009AFC 011181E0        	  1963:  ADD     R1, R1, R1, LSL #2
00:00009B00 013383E0        	  1964:  ADD     R3, R3, R1, LSL #6
00:00009B04 0070C3E5        	  1965:  STRB    R7, [R3]
00:00009B08 0170C3E5        	  1966:  STRB    R7, [R3, #1]
00:00009B0C 760000EA        	  1967:  B       DrawNextFromGraphicsBuffer
                            	  1968: Draw2x2ParticleFromBuffer:
00:00009B10 041099E4        	  1969:  LDR     R1, [R9], #4
00:00009B14 210AA0E1        	  1970:  MOV     R0, R1, LSR #20
00:00009B18 2176A0E1        	  1971:  MOV     R7, R1, LSR #12
00:00009B1C FF1001E2        	  1972:  AND     R1, R1, #0xFF
00:00009B20 00308CE0        	  1973:  ADD     R3, R12, R0
00:00009B24 011181E0        	  1974:  ADD     R1, R1, R1, LSL #2
00:00009B28 013383E0        	  1975:  ADD     R3, R3, R1, LSL #6
00:00009B2C 0070C3E5        	  1976:  STRB    R7, [R3]
00:00009B30 0170C3E5        	  1977:  STRB    R7, [R3, #1]
00:00009B34 4071C3E5        	  1978:  STRB    R7, [R3, #320]
00:00009B38 4171C3E5        	  1979:  STRB    R7, [R3, #320+1]
00:00009B3C 6A0000EA        	  1980:  B       DrawNextFromGraphicsBuffer
                            	  1981: Draw3x2ParticleFromBuffer:
00:00009B40 041099E4        	  1982:  LDR     R1, [R9], #4
00:00009B44 210AA0E1        	  1983:  MOV     R0, R1, LSR #20
00:00009B48 2176A0E1        	  1984:  MOV     R7, R1, LSR #12
00:00009B4C FF1001E2        	  1985:  AND     R1, R1, #0xFF
00:00009B50 00308CE0        	  1986:  ADD     R3, R12, R0
00:00009B54 011181E0        	  1987:  ADD     R1, R1, R1, LSL #2
00:00009B58 013383E0        	  1988:  ADD     R3, R3, R1, LSL #6
00:00009B5C 017043E5        	  1989:  STRB    R7, [R3, #-1]
00:00009B60 0070C3E5        	  1990:  STRB    R7, [R3]
00:00009B64 0170C3E5        	  1991:  STRB    R7, [R3, #1]
00:00009B68 3F71C3E5        	  1992:  STRB    R7, [R3, #320-1]
00:00009B6C 4071C3E5        	  1993:  STRB    R7, [R3, #320]
00:00009B70 4171C3E5        	  1994:  STRB    R7, [R3, #320+1]
00:00009B74 5C0000EA        	  1995:  B       DrawNextFromGraphicsBuffer
                            	  1996: Draw3x1ParticleFromBuffer:
00:00009B78 041099E4        	  1997:  LDR     R1, [R9], #4
00:00009B7C 210AA0E1        	  1998:  MOV     R0, R1, LSR #20
00:00009B80 2176A0E1        	  1999:  MOV     R7, R1, LSR #12
00:00009B84 FF1001E2        	  2000:  AND     R1, R1, #0xFF
00:00009B88 00308CE0        	  2001:  ADD     R3, R12, R0
00:00009B8C 011181E0        	  2002:  ADD     R1, R1, R1, LSL #2
00:00009B90 013383E0        	  2003:  ADD     R3, R3, R1, LSL #6
00:00009B94 017043E5        	  2004:  STRB    R7, [R3, #-1]
00:00009B98 0070C3E5        	  2005:  STRB    R7, [R3]
00:00009B9C 0170C3E5        	  2006:  STRB    R7, [R3, #1]
00:00009BA0 510000EA        	  2007:  B       DrawNextFromGraphicsBuffer
                            	  2008: DrawTriangleFromBuffer:
00:00009BA4 3F01B9E8        	  2009:  LDMIA   R9!, {R0-R5, R8}
00:00009BA8 00122DE9        	  2010:  STMFD   R13!, {R9, R12}
00:00009BAC 8A0000EB        	  2011:  BL      DrawTriangle
00:00009BB0 0012BDE8        	  2012:  LDMFD   R13!, {R9, R12}
00:00009BB4 4C0000EA        	  2013:  B       DrawNextFromGraphicsBuffer
                            	  2014: DrawParticleToBuffer:
00:00009BB8 00422DE9        	  2015:  STMFD   R13!, {R9, R14}
00:00009BBC 05E368E2        	  2016:  RSB     R14, R8, #LANDSCAPE_Z
00:00009BC0 01E48EE2        	  2017:  ADD     R14, R14, #TILE_SIZE
00:00009BC4 03E5CEE3        	  2018:  BIC     R14, R14, #0x00C00000
00:00009BC8 2E9B9CE7        	  2019:  LDR     R9, [R12, R14, LSR #22]
00:00009BCC A88CA0E1        	  2020:  MOV     R8, R8, LSR #25
00:00009BD0 080058E3        	  2021:  CMP     R8, #8
00:00009BD4 0880A023        	  2022:  MOVHS   R8, #8
00:00009BD8 FF7007E2        	  2023:  AND     R7, R7, #0xFF
00:00009BDC 071681E0        	  2024:  ADD     R1, R1, R7, LSL #12
00:00009BE0 001A81E0        	  2025:  ADD     R1, R1, R0, LSL #20
00:00009BE4 048089E4        	  2026:  STR     R8, [R9], #4
00:00009BE8 041089E4        	  2027:  STR     R1, [R9], #4
00:00009BEC 2E9B8CE7        	  2028:  STR     R9, [R12, R14, LSR #22]
00:00009BF0 0082BDE8        	  2029:  LDMFD   R13!, {R9, PC}
                            	  2030: DrawParticleShadowToBuffer:
00:00009BF4 00422DE9        	  2031:  STMFD   R13!, {R9, R14}
00:00009BF8 05E368E2        	  2032:  RSB     R14, R8, #LANDSCAPE_Z
00:00009BFC 03E5CEE3        	  2033:  BIC     R14, R14, #0x00C00000
00:00009C00 2E9B9CE7        	  2034:  LDR     R9, [R12, R14, LSR #22]
00:00009C04 A88CA0E1        	  2035:  MOV     R8, R8, LSR #25
00:00009C08 080058E3        	  2036:  CMP     R8, #8
00:00009C0C 0880A023        	  2037:  MOVHS   R8, #8
00:00009C10 098088E2        	  2038:  ADD     R8, R8, #9
00:00009C14 001A81E0        	  2039:  ADD     R1, R1, R0, LSL #20
00:00009C18 048089E4        	  2040:  STR     R8, [R9], #4
00:00009C1C 041089E4        	  2041:  STR     R1, [R9], #4
00:00009C20 2E9B8CE7        	  2042:  STR     R9, [R12, R14, LSR #22]
00:00009C24 0082BDE8        	  2043:  LDMFD   R13!, {R9, PC}
                            	  2044: DrawTriangleShadowToBuffer:
00:00009C28 00422DE9        	  2045:  STMFD   R13!, {R9, R14}
00:00009C2C 08E09BE5        	  2046:  LDR     R14, [R11, #zObject]
00:00009C30 05E36EE2        	  2047:  RSB     R14, R14, #LANDSCAPE_Z
00:00009C34 0B045EE3        	  2048:  CMP     R14, #LANDSCAPE_Z_BEYOND
00:00009C38 0AE4A023        	  2049:  MOVHS   R14, #LANDSCAPE_Z_DEPTH
00:00009C3C 03E5CEE3        	  2050:  BIC     R14, R14, #0x00C00000
00:00009C40 2E9B9CE7        	  2051:  LDR     R9, [R12, R14, LSR #22]
00:00009C44 1270A0E3        	  2052:  MOV     R7, #18
00:00009C48 047089E4        	  2053:  STR     R7, [R9], #4
00:00009C4C 3F01A9E8        	  2054:  STMIA   R9!, {R0-R5, R8}
00:00009C50 2E9B8CE7        	  2055:  STR     R9, [R12, R14, LSR #22]
00:00009C54 0082BDE8        	  2056:  LDMFD   R13!, {R9, PC}
                            	  2057: DrawTriangleToBuffer:
00:00009C58 00422DE9        	  2058:  STMFD   R13!, {R9, R14}
00:00009C5C 08E09BE5        	  2059:  LDR     R14, [R11, #zObject]
00:00009C60 05E36EE2        	  2060:  RSB     R14, R14, #LANDSCAPE_Z
00:00009C64 01E48EE2        	  2061:  ADD     R14, R14, #TILE_SIZE
00:00009C68 0B045EE3        	  2062:  CMP     R14, #LANDSCAPE_Z_BEYOND
00:00009C6C 0AE4A023        	  2063:  MOVHS   R14, #LANDSCAPE_Z_DEPTH
00:00009C70 03E5CEE3        	  2064:  BIC     R14, R14, #0x00C00000
00:00009C74 2E9B9CE7        	  2065:  LDR     R9, [R12, R14, LSR #22]
00:00009C78 1270A0E3        	  2066:  MOV     R7, #18
00:00009C7C 047089E4        	  2067:  STR     R7, [R9], #4
00:00009C80 3F01A9E8        	  2068:  STMIA   R9!, {R0-R5, R8}
00:00009C84 2E9B8CE7        	  2069:  STR     R9, [R12, R14, LSR #22]
00:00009C88 0082BDE8        	  2070:  LDMFD   R13!, {R9, PC}
                            	  2071: bufferJump:
00:00009C8C 409B0000        	  2072: .long    Draw3x2ParticleFromBuffer
00:00009C90 409B0000        	  2073: .long    Draw3x2ParticleFromBuffer
00:00009C94 409B0000        	  2074: .long    Draw3x2ParticleFromBuffer
00:00009C98 409B0000        	  2075: .long    Draw3x2ParticleFromBuffer
00:00009C9C 409B0000        	  2076: .long    Draw3x2ParticleFromBuffer
00:00009CA0 409B0000        	  2077: .long    Draw3x2ParticleFromBuffer
00:00009CA4 109B0000        	  2078: .long    Draw2x2ParticleFromBuffer
00:00009CA8 E89A0000        	  2079: .long    Draw2x1ParticleFromBuffer
00:00009CAC C49A0000        	  2080: .long    Draw1x1ParticleFromBuffer
00:00009CB0 789B0000        	  2081: .long    Draw3x1ParticleFromBuffer
00:00009CB4 789B0000        	  2082: .long    Draw3x1ParticleFromBuffer
00:00009CB8 789B0000        	  2083: .long    Draw3x1ParticleFromBuffer
00:00009CBC 789B0000        	  2084: .long    Draw3x1ParticleFromBuffer
00:00009CC0 789B0000        	  2085: .long    Draw3x1ParticleFromBuffer
00:00009CC4 789B0000        	  2086: .long    Draw3x1ParticleFromBuffer
00:00009CC8 E89A0000        	  2087: .long    Draw2x1ParticleFromBuffer
00:00009CCC E89A0000        	  2088: .long    Draw2x1ParticleFromBuffer
00:00009CD0 C49A0000        	  2089: .long    Draw1x1ParticleFromBuffer
00:00009CD4 A49B0000        	  2090: .long    DrawTriangleFromBuffer
00:00009CD8 F89C0000        	  2091: .long    TerminateGraphicsBuffer
                            	  2092: DrawGraphicsBuffer:
00:00009CDC C05F2DE9        	  2093:  STMFD   R13!, {R6-R12, R14}
00:00009CE0 9C1A1FE5        	  2094:  LDR     R1, graphicsBufferEndAddr
00:00009CE4 009191E7        	  2095:  LDR     R9, [R1, R0, LSL #2]
00:00009CE8 84C21FE5        	  2096:  LDR     R12, screenAddr
                            	  2097: DrawNextFromGraphicsBuffer:
00:00009CEC 040099E4        	  2098:  LDR     R0, [R9], #4
                            	  2099: .set labOffset, $ + 8 - bufferJump
00:00009CF0 00018FE0        	  2100:  ADD     R0, PC, R0, LSL #2
00:00009CF4 6CF010E5        	  2101:  LDR     PC, [R0, #-labOffset]
                            	  2102: TerminateGraphicsBuffer:
00:00009CF8 C09FBDE8        	  2103:  LDMFD   R13!, {R6-R12, PC}
                            	  2104: AddTerminatorsToBuffers:
00:00009CFC 00502DE9        	  2105:  STMFD   R13!, {R12, R14}
00:00009D00 BCCA1FE5        	  2106:  LDR     R12, graphicsBufferEndAddr
00:00009D04 BCEA1FE5        	  2107:  LDR     R14, graphicsBufferAddr
00:00009D08 0B00A0E3        	  2108:  MOV     R0, #TILES_Z
00:00009D0C 1310A0E3        	  2109:  MOV     R1, #19
                            	  2110: term1:
00:00009D10 00219CE7        	  2111:  LDR     R2, [R12, R0, LSL #2]
00:00009D14 001082E5        	  2112:  STR     R1, [R2]
00:00009D18 00219EE7        	  2113:  LDR     R2, [R14, R0, LSL #2]
00:00009D1C 00218CE7        	  2114:  STR     R2, [R12, R0, LSL #2]
00:00009D20 010050E2        	  2115:  SUBS    R0, R0, #1
00:00009D24 F9FFFF5A        	  2116:  BPL     term1
00:00009D28 0090BDE8        	  2117:  LDMFD   R13!, {R12, PC}
                            	  2118: screenBank2Addr:
00:00009D2C 0094FD01        	  2119: .long    0x01FD8000 + 320 * 16
                            	  2120: screenBank1Addr:
00:00009D30 00D4FE01        	  2121: .long    0x01FEC000 + 320 * 16
                            	  2122: screenBankNumber:
00:00009D34 00000000        	  2123: .long    0
                            	  2124: divisionTableAddr:
00:00009D38 10DA0000        	  2125: .long    divisionTable
                            	  2126: SwitchScreenBank:
00:00009D3C 10005FE5        	  2127:  LDRB    R0, screenBankNumber
00:00009D40 010030E2        	  2128:  EORS    R0, R0, #1
00:00009D44 18004FE5        	  2129:  STRB    R0, screenBankNumber
00:00009D48 24101F15        	  2130:  LDRNE   R1, screenBank2Addr
00:00009D4C 24101F05        	  2131:  LDREQ   R1, screenBank1Addr
00:00009D50 EC120FE5        	  2132:  STR     R1, screenAddr
00:00009D54 000030E3        	  2133:  TEQ     R0, #0
00:00009D58 0110A003        	  2134:  MOVEQ   R1, #1
00:00009D5C 0210A013        	  2135:  MOVNE   R1, #2
00:00009D60 7100A0E3        	  2136:  MOV     R0, #113
00:00009D64 060000EF        	  2137:  SWI     OS_Byte
00:00009D68 7000A0E3        	  2138:  MOV     R0, #112
00:00009D6C 060000EF        	  2139:  SWI     OS_Byte
00:00009D70 1300A0E3        	  2140:  MOV     R0, #19
00:00009D74 060000EF        	  2141:  SWI     OS_Byte
00:00009D78 005A2DE9        	  2142:  STMFD   R13!, {R9, R11-R12, R14}
00:00009D7C 0000A0E3        	  2143:  MOV     R0, #0
00:00009D80 0010A0E3        	  2144:  MOV     R1, #0
00:00009D84 0020A0E3        	  2145:  MOV     R2, #0
00:00009D88 0030A0E3        	  2146:  MOV     R3, #0
00:00009D8C 0040A0E3        	  2147:  MOV     R4, #0
00:00009D90 0050A0E3        	  2148:  MOV     R5, #0
00:00009D94 0060A0E3        	  2149:  MOV     R6, #0
00:00009D98 0070A0E3        	  2150:  MOV     R7, #0
00:00009D9C 0080A0E3        	  2151:  MOV     R8, #0
00:00009DA0 0090A0E3        	  2152:  MOV     R9, #0
00:00009DA4 40B31FE5        	  2153:  LDR     R11, screenAddr
00:00009DA8 4BCB8BE2        	  2154:  ADD     R12, R11, #0x12C00
                            	  2155: bank1:
00:00009DAC FF032CE9        	  2156:  STMDB   R12!, {R0-R9}
00:00009DB0 FF032CE9        	  2157:  STMDB   R12!, {R0-R9}
00:00009DB4 FF032CE9        	  2158:  STMDB   R12!, {R0-R9}
00:00009DB8 FF032CE9        	  2159:  STMDB   R12!, {R0-R9}
00:00009DBC 0B005CE1        	  2160:  CMP     R12, R11
00:00009DC0 F9FFFF1A        	  2161:  BNE     bank1
00:00009DC4 009ABDE8        	  2162:  LDMFD   R13!, {R9, R11-R12, PC}
                            	  2163: DrawQuadrilateral:
00:00009DC8 FC5E2DE9        	  2164:  STMFD   R13!, {R2-R7, R9-R12, R14}
00:00009DCC 020000EB        	  2165:  BL      DrawTriangle
00:00009DD0 3F00BDE8        	  2166:  LDMFD   R13!, {R0-R5}
00:00009DD4 000000EB        	  2167:  BL      DrawTriangle
00:00009DD8 009EBDE8        	  2168:  LDMFD   R13!, {R9-R12, PC}
                            	  2169: DrawTriangle:
00:00009DDC 050D50E3        	  2170:  CMP     R0, #320
00:00009DE0 EF005133        	  2171:  CMPLO   R1, #239
00:00009DE4 050D5233        	  2172:  CMPLO   R2, #320
00:00009DE8 EF005333        	  2173:  CMPLO   R3, #239
00:00009DEC 050D5433        	  2174:  CMPLO   R4, #320
00:00009DF0 EF005533        	  2175:  CMPLO   R5, #239
00:00009DF4 C500002A        	  2176:  BHS     trin23
00:00009DF8 00402DE9        	  2177:  STMFD   R13!, {R14}
00:00009DFC 98C31FE5        	  2178:  LDR     R12, screenAddr
00:00009E00 030051E1        	  2179:  CMP     R1, R3
00:00009E04 0500002A        	  2180:  BHS     trin1
00:00009E08 0060A0E1        	  2181:  MOV     R6, R0
00:00009E0C 0200A0E1        	  2182:  MOV     R0, R2
00:00009E10 0620A0E1        	  2183:  MOV     R2, R6
00:00009E14 0160A0E1        	  2184:  MOV     R6, R1
00:00009E18 0310A0E1        	  2185:  MOV     R1, R3
00:00009E1C 0630A0E1        	  2186:  MOV     R3, R6
                            	  2187: trin1:
00:00009E20 050051E1        	  2188:  CMP     R1, R5
00:00009E24 0500002A        	  2189:  BHS     trin2
00:00009E28 0060A0E1        	  2190:  MOV     R6, R0
00:00009E2C 0400A0E1        	  2191:  MOV     R0, R4
00:00009E30 0640A0E1        	  2192:  MOV     R4, R6
00:00009E34 0160A0E1        	  2193:  MOV     R6, R1
00:00009E38 0510A0E1        	  2194:  MOV     R1, R5
00:00009E3C 0650A0E1        	  2195:  MOV     R5, R6
                            	  2196: trin2:
00:00009E40 050053E1        	  2197:  CMP     R3, R5
00:00009E44 0500002A        	  2198:  BHS     trin3
00:00009E48 0260A0E1        	  2199:  MOV     R6, R2
00:00009E4C 0420A0E1        	  2200:  MOV     R2, R4
00:00009E50 0640A0E1        	  2201:  MOV     R4, R6
00:00009E54 0360A0E1        	  2202:  MOV     R6, R3
00:00009E58 0530A0E1        	  2203:  MOV     R3, R5
00:00009E5C 0650A0E1        	  2204:  MOV     R5, R6
                            	  2205: trin3:
00:00009E60 01B181E0        	  2206:  ADD     R11, R1, R1, LSL #2
00:00009E64 0BC38CE0        	  2207:  ADD     R12, R12, R11, LSL #6
00:00009E68 039051E0        	  2208:  SUBS    R9, R1, R3
00:00009E6C 6F00000A        	  2209:  BEQ     trin16
00:00009E70 30002DE9        	  2210:  STMFD   R13!, {R4-R5}
00:00009E74 00E052E0        	  2211:  SUBS    R14, R2, R0
00:00009E78 00E06240        	  2212:  RSBMI   R14, R2, R0
00:00009E7C 40005EE3        	  2213:  CMP     R14, #64
00:00009E80 40005933        	  2214:  CMPLO   R9, #64
00:00009E84 0300002A        	  2215:  BHS     trin4
00:00009E88 58A11FE5        	  2216:  LDR     R10, divisionTableAddr
00:00009E8C 0EA48AE0        	  2217:  ADD     R10, R10, R14, LSL #8
00:00009E90 09619AE7        	  2218:  LDR     R6, [R10, R9, LSL #2]
00:00009E94 080000EA        	  2219:  B       trin6
                            	  2220: trin4:
00:00009E98 0998A0E1        	  2221:  MOV     R9, R9, LSL #16
00:00009E9C 0060A0E3        	  2222:  MOV     R6, #0
00:00009EA0 02A1A0E3        	  2223:  MOV     R10, #0x80000000
                            	  2224: trin5:
00:00009EA4 8EE0B0E1        	  2225:  MOVS    R14, R14, LSL #1
00:00009EA8 09005E31        	  2226:  CMPCC   R14, R9
00:00009EAC 09E04E20        	  2227:  SUBCS   R14, R14, R9
00:00009EB0 0A608621        	  2228:  ORRCS   R6, R6, R10
00:00009EB4 AAA0B0E1        	  2229:  MOVS    R10, R10, LSR #1
00:00009EB8 F9FFFF3A        	  2230:  BCC     trin5
                            	  2231: trin6:
00:00009EBC 000052E1        	  2232:  CMP     R2, R0
00:00009EC0 00606642        	  2233:  RSBMI   R6, R6, #0
00:00009EC4 059051E0        	  2234:  SUBS    R9, R1, R5
00:00009EC8 00E054E0        	  2235:  SUBS    R14, R4, R0
00:00009ECC 00E06440        	  2236:  RSBMI   R14, R4, R0
00:00009ED0 40005EE3        	  2237:  CMP     R14, #64
00:00009ED4 40005933        	  2238:  CMPLO   R9, #64
00:00009ED8 0300002A        	  2239:  BHS     trin7
00:00009EDC ACA11FE5        	  2240:  LDR     R10, divisionTableAddr
00:00009EE0 0EA48AE0        	  2241:  ADD     R10, R10, R14, LSL #8
00:00009EE4 09719AE7        	  2242:  LDR     R7, [R10, R9, LSL #2]
00:00009EE8 080000EA        	  2243:  B       trin9
                            	  2244: trin7:
00:00009EEC 0998A0E1        	  2245:  MOV     R9, R9, LSL #16
00:00009EF0 0070A0E3        	  2246:  MOV     R7, #0
00:00009EF4 02A1A0E3        	  2247:  MOV     R10, #0x80000000
                            	  2248: trin8:
00:00009EF8 8EE0B0E1        	  2249:  MOVS    R14, R14, LSL #1
00:00009EFC 09005E31        	  2250:  CMPCC   R14, R9
00:00009F00 09E04E20        	  2251:  SUBCS   R14, R14, R9
00:00009F04 0A708721        	  2252:  ORRCS   R7, R7, R10
00:00009F08 AAA0B0E1        	  2253:  MOVS    R10, R10, LSR #1
00:00009F0C F9FFFF3A        	  2254:  BCC     trin8
                            	  2255: trin9:
00:00009F10 000054E1        	  2256:  CMP     R4, R0
00:00009F14 00706742        	  2257:  RSBMI   R7, R7, #0
00:00009F18 039051E0        	  2258:  SUBS    R9, R1, R3
00:00009F1C 0048A0E1        	  2259:  MOV     R4, R0, LSL #16
00:00009F20 024984E3        	  2260:  ORR     R4, R4, #0x8000
00:00009F24 0450A0E1        	  2261:  MOV     R5, R4
00:00009F28 070056E1        	  2262:  CMP     R6, R7
00:00009F2C 06E0A0C1        	  2263:  MOVGT   R14, R6
00:00009F30 0760A0C1        	  2264:  MOVGT   R6, R7
00:00009F34 0E70A0C1        	  2265:  MOVGT   R7, R14
                            	  2266: trin10:
00:00009F38 064084E0        	  2267:  ADD     R4, R4, R6
00:00009F3C 075085E0        	  2268:  ADD     R5, R5, R7
00:00009F40 24B88CE0        	  2269:  ADD     R11, R12, R4, LSR #16
00:00009F44 25A8A0E1        	  2270:  MOV     R10, R5, LSR #16
00:00009F48 24A85AE0        	  2271:  SUBS    R10, R10, R4, LSR #16
00:00009F4C 5D01005B        	  2272:  BLPL    DrawHorizontalLine
00:00009F50 05CD4CE2        	  2273:  SUB     R12, R12, #320
00:00009F54 019059E2        	  2274:  SUBS    R9, R9, #1
00:00009F58 F6FFFF1A        	  2275:  BNE     trin10
00:00009F5C 0300BDE8        	  2276:  LDMFD   R13!, {R0-R1}
00:00009F60 019053E0        	  2277:  SUBS    R9, R3, R1
00:00009F64 0080BD08        	  2278:  LDMEQIA R13!, {PC}
00:00009F68 02E050E0        	  2279:  SUBS    R14, R0, R2
00:00009F6C 02E06040        	  2280:  RSBMI   R14, R0, R2
00:00009F70 40005EE3        	  2281:  CMP     R14, #64
00:00009F74 40005933        	  2282:  CMPLO   R9, #64
00:00009F78 0300002A        	  2283:  BHS     trin11
00:00009F7C 4CA21FE5        	  2284:  LDR     R10, divisionTableAddr
00:00009F80 0EA48AE0        	  2285:  ADD     R10, R10, R14, LSL #8
00:00009F84 09B19AE7        	  2286:  LDR     R11, [R10, R9, LSL #2]
00:00009F88 080000EA        	  2287:  B       trin13
                            	  2288: trin11:
00:00009F8C 0998A0E1        	  2289:  MOV     R9, R9, LSL #16
00:00009F90 00B0A0E3        	  2290:  MOV     R11, #0
00:00009F94 02A1A0E3        	  2291:  MOV     R10, #0x80000000
                            	  2292: trin12:
00:00009F98 8EE0B0E1        	  2293:  MOVS    R14, R14, LSL #1
00:00009F9C 09005E31        	  2294:  CMPCC   R14, R9
00:00009FA0 09E04E20        	  2295:  SUBCS   R14, R14, R9
00:00009FA4 0AB08B21        	  2296:  ORRCS   R11, R11, R10
00:00009FA8 AAA0B0E1        	  2297:  MOVS    R10, R10, LSR #1
00:00009FAC F9FFFF3A        	  2298:  BCC     trin12
                            	  2299: trin13:
00:00009FB0 020050E1        	  2300:  CMP     R0, R2
00:00009FB4 00B06B42        	  2301:  RSBMI   R11, R11, #0
00:00009FB8 019043E0        	  2302:  SUB     R9, R3, R1
00:00009FBC 24E852E0        	  2303:  SUBS    R14, R2, R4, LSR #16
00:00009FC0 25A85210        	  2304:  SUBNES  R10, R2, R5, LSR #16
00:00009FC4 1200001A        	  2305:  BNE     trin15
00:00009FC8 240852E1        	  2306:  CMP     R2, R4, LSR #16
00:00009FCC 0B60A001        	  2307:  MOVEQ   R6, R11
00:00009FD0 FF4CC403        	  2308:  BICEQ   R4, R4, #0xFF00
00:00009FD4 FF40C403        	  2309:  BICEQ   R4, R4, #0x00FF
00:00009FD8 02498403        	  2310:  ORREQ   R4, R4, #0x8000
00:00009FDC 0B70A011        	  2311:  MOVNE   R7, R11
00:00009FE0 FF5CC513        	  2312:  BICNE   R5, R5, #0xFF00
00:00009FE4 FF50C513        	  2313:  BICNE   R5, R5, #0x00FF
00:00009FE8 02598513        	  2314:  ORRNE   R5, R5, #0x8000
                            	  2315: trin14:
00:00009FEC 064084E0        	  2316:  ADD     R4, R4, R6
00:00009FF0 075085E0        	  2317:  ADD     R5, R5, R7
00:00009FF4 24B88CE0        	  2318:  ADD     R11, R12, R4, LSR #16
00:00009FF8 25A8A0E1        	  2319:  MOV     R10, R5, LSR #16
00:00009FFC 24A85AE0        	  2320:  SUBS    R10, R10, R4, LSR #16
00:0000A000 3001005B        	  2321:  BLPL    DrawHorizontalLine
00:0000A004 05CD4CE2        	  2322:  SUB     R12, R12, #320
00:0000A008 019059E2        	  2323:  SUBS    R9, R9, #1
00:0000A00C F6FFFF1A        	  2324:  BNE     trin14
00:0000A010 0080BDE8        	  2325:  LDMFD   R13!, {PC}
                            	  2326: trin15:
00:0000A014 00A06A42        	  2327:  RSBMI   R10, R10, #0
00:0000A018 00005EE3        	  2328:  CMP     R14, #0
00:0000A01C 00E06E42        	  2329:  RSBMI   R14, R14, #0
00:0000A020 0A005EE1        	  2330:  CMP     R14, R10
00:0000A024 0B60A021        	  2331:  MOVHS   R6, R11
00:0000A028 0B70A031        	  2332:  MOVLO   R7, R11
00:0000A02C EEFFFFEA        	  2333:  B       trin14
                            	  2334: trin16:
00:0000A030 059053E0        	  2335:  SUBS    R9, R3, R5
00:0000A034 0080BD08        	  2336:  LDMEQIA R13!, {PC}
00:0000A038 04E050E0        	  2337:  SUBS    R14, R0, R4
00:0000A03C 04E06040        	  2338:  RSBMI   R14, R0, R4
00:0000A040 40005EE3        	  2339:  CMP     R14, #64
00:0000A044 40005933        	  2340:  CMPLO   R9, #64
00:0000A048 0300002A        	  2341:  BHS     trin17
00:0000A04C 1CA31FE5        	  2342:  LDR     R10, divisionTableAddr
00:0000A050 0EA48AE0        	  2343:  ADD     R10, R10, R14, LSL #8
00:0000A054 09619AE7        	  2344:  LDR     R6, [R10, R9, LSL #2]
00:0000A058 080000EA        	  2345:  B       trin19
                            	  2346: trin17:
00:0000A05C 0998A0E1        	  2347:  MOV     R9, R9, LSL #16
00:0000A060 0060A0E3        	  2348:  MOV     R6, #0
00:0000A064 02A1A0E3        	  2349:  MOV     R10, #0x80000000
                            	  2350: trin18:
00:0000A068 8EE0B0E1        	  2351:  MOVS    R14, R14, LSL #1
00:0000A06C 09005E31        	  2352:  CMPCC   R14, R9
00:0000A070 09E04E20        	  2353:  SUBCS   R14, R14, R9
00:0000A074 0A608621        	  2354:  ORRCS   R6, R6, R10
00:0000A078 AAA0B0E1        	  2355:  MOVS    R10, R10, LSR #1
00:0000A07C F9FFFF3A        	  2356:  BCC     trin18
                            	  2357: trin19:
00:0000A080 000054E1        	  2358:  CMP     R4, R0
00:0000A084 00606642        	  2359:  RSBMI   R6, R6, #0
00:0000A088 059043E0        	  2360:  SUB     R9, R3, R5
00:0000A08C 04E052E0        	  2361:  SUBS    R14, R2, R4
00:0000A090 04E06240        	  2362:  RSBMI   R14, R2, R4
00:0000A094 40005EE3        	  2363:  CMP     R14, #64
00:0000A098 40005933        	  2364:  CMPLO   R9, #64
00:0000A09C 0300002A        	  2365:  BHS     trin20
00:0000A0A0 70A31FE5        	  2366:  LDR     R10, divisionTableAddr
00:0000A0A4 0EA48AE0        	  2367:  ADD     R10, R10, R14, LSL #8
00:0000A0A8 09719AE7        	  2368:  LDR     R7, [R10, R9, LSL #2]
00:0000A0AC 080000EA        	  2369:  B       trin22
                            	  2370: trin20:
00:0000A0B0 0998A0E1        	  2371:  MOV     R9, R9, LSL #16
00:0000A0B4 0070A0E3        	  2372:  MOV     R7, #0
00:0000A0B8 02A1A0E3        	  2373:  MOV     R10, #0x80000000
                            	  2374: trin21:
00:0000A0BC 8EE0B0E1        	  2375:  MOVS    R14, R14, LSL #1
00:0000A0C0 09005E31        	  2376:  CMPCC   R14, R9
00:0000A0C4 09E04E20        	  2377:  SUBCS   R14, R14, R9
00:0000A0C8 0A708721        	  2378:  ORRCS   R7, R7, R10
00:0000A0CC AAA0B0E1        	  2379:  MOVS    R10, R10, LSR #1
00:0000A0D0 F9FFFF3A        	  2380:  BCC     trin21
                            	  2381: trin22:
00:0000A0D4 020054E1        	  2382:  CMP     R4, R2
00:0000A0D8 00706742        	  2383:  RSBMI   R7, R7, #0
00:0000A0DC 059043E0        	  2384:  SUB     R9, R3, R5
00:0000A0E0 0048A0E1        	  2385:  MOV     R4, R0, LSL #16
00:0000A0E4 0258A0E1        	  2386:  MOV     R5, R2, LSL #16
00:0000A0E8 024984E3        	  2387:  ORR     R4, R4, #0x8000
00:0000A0EC 025985E3        	  2388:  ORR     R5, R5, #0x8000
00:0000A0F0 050054E1        	  2389:  CMP     R4, R5
00:0000A0F4 06E0A021        	  2390:  MOVHS   R14, R6
00:0000A0F8 0760A021        	  2391:  MOVHS   R6, R7
00:0000A0FC 0E70A021        	  2392:  MOVHS   R7, R14
00:0000A100 04E0A021        	  2393:  MOVHS   R14, R4
00:0000A104 0540A021        	  2394:  MOVHS   R4, R5
00:0000A108 0E50A021        	  2395:  MOVHS   R5, R14
00:0000A10C B6FFFFEA        	  2396:  B       trin14
                            	  2397: trin23:
00:0000A110 EF0051E3        	  2398:  CMP     R1, #239
00:0000A114 EF005323        	  2399:  CMPHS   R3, #239
00:0000A118 EF005523        	  2400:  CMPHS   R5, #239
00:0000A11C 0EF0A021        	  2401:  MOVHS   PC, R14
00:0000A120 050D50E3        	  2402:  CMP     R0, #320
00:0000A124 050D5223        	  2403:  CMPHS   R2, #320
00:0000A128 050D5423        	  2404:  CMPHS   R4, #320
00:0000A12C 0EF0A021        	  2405:  MOVHS   PC, R14
00:0000A130 00402DE9        	  2406:  STMFD   R13!, {R14}
00:0000A134 D0C61FE5        	  2407:  LDR     R12, screenAddr
00:0000A138 030051E1        	  2408:  CMP     R1, R3
00:0000A13C 050000CA        	  2409:  BGT     trin24
00:0000A140 0060A0E1        	  2410:  MOV     R6, R0
00:0000A144 0200A0E1        	  2411:  MOV     R0, R2
00:0000A148 0620A0E1        	  2412:  MOV     R2, R6
00:0000A14C 0160A0E1        	  2413:  MOV     R6, R1
00:0000A150 0310A0E1        	  2414:  MOV     R1, R3
00:0000A154 0630A0E1        	  2415:  MOV     R3, R6
                            	  2416: trin24:
00:0000A158 050051E1        	  2417:  CMP     R1, R5
00:0000A15C 050000CA        	  2418:  BGT     trin25
00:0000A160 0060A0E1        	  2419:  MOV     R6, R0
00:0000A164 0400A0E1        	  2420:  MOV     R0, R4
00:0000A168 0640A0E1        	  2421:  MOV     R4, R6
00:0000A16C 0160A0E1        	  2422:  MOV     R6, R1
00:0000A170 0510A0E1        	  2423:  MOV     R1, R5
00:0000A174 0650A0E1        	  2424:  MOV     R5, R6
                            	  2425: trin25:
00:0000A178 050053E1        	  2426:  CMP     R3, R5
00:0000A17C 050000CA        	  2427:  BGT     trin26
00:0000A180 0260A0E1        	  2428:  MOV     R6, R2
00:0000A184 0420A0E1        	  2429:  MOV     R2, R4
00:0000A188 0640A0E1        	  2430:  MOV     R4, R6
00:0000A18C 0360A0E1        	  2431:  MOV     R6, R3
00:0000A190 0530A0E1        	  2432:  MOV     R3, R5
00:0000A194 0650A0E1        	  2433:  MOV     R5, R6
                            	  2434: trin26:
00:0000A198 01B0A0E1        	  2435:  MOV     R11, R1
00:0000A19C 039051E0        	  2436:  SUBS    R9, R1, R3
00:0000A1A0 6000000A        	  2437:  BEQ     trin38
00:0000A1A4 30002DE9        	  2438:  STMFD   R13!, {R4-R5}
00:0000A1A8 00E052E0        	  2439:  SUBS    R14, R2, R0
00:0000A1AC 00E06240        	  2440:  RSBMI   R14, R2, R0
00:0000A1B0 40005EE3        	  2441:  CMP     R14, #64
00:0000A1B4 40005933        	  2442:  CMPLO   R9, #64
00:0000A1B8 0300002A        	  2443:  BHS     trin27
00:0000A1BC 8CA41FE5        	  2444:  LDR     R10, divisionTableAddr
00:0000A1C0 0EA48AE0        	  2445:  ADD     R10, R10, R14, LSL #8
00:0000A1C4 09619AE7        	  2446:  LDR     R6, [R10, R9, LSL #2]
00:0000A1C8 080000EA        	  2447:  B       trin29
                            	  2448: trin27:
00:0000A1CC 0998A0E1        	  2449:  MOV     R9, R9, LSL #16
00:0000A1D0 0060A0E3        	  2450:  MOV     R6, #0
00:0000A1D4 02A1A0E3        	  2451:  MOV     R10, #0x80000000
                            	  2452: trin28:
00:0000A1D8 8EE0B0E1        	  2453:  MOVS    R14, R14, LSL #1
00:0000A1DC 09005E31        	  2454:  CMPCC   R14, R9
00:0000A1E0 09E04E20        	  2455:  SUBCS   R14, R14, R9
00:0000A1E4 0A608621        	  2456:  ORRCS   R6, R6, R10
00:0000A1E8 AAA0B0E1        	  2457:  MOVS    R10, R10, LSR #1
00:0000A1EC F9FFFF3A        	  2458:  BCC     trin28
                            	  2459: trin29:
00:0000A1F0 000052E1        	  2460:  CMP     R2, R0
00:0000A1F4 00606642        	  2461:  RSBMI   R6, R6, #0
00:0000A1F8 059051E0        	  2462:  SUBS    R9, R1, R5
00:0000A1FC 00E054E0        	  2463:  SUBS    R14, R4, R0
00:0000A200 00E06440        	  2464:  RSBMI   R14, R4, R0
00:0000A204 40005EE3        	  2465:  CMP     R14, #64
00:0000A208 40005933        	  2466:  CMPLO   R9, #64
00:0000A20C 0300002A        	  2467:  BHS     trin30
00:0000A210 E0A41FE5        	  2468:  LDR     R10, divisionTableAddr
00:0000A214 0EA48AE0        	  2469:  ADD     R10, R10, R14, LSL #8
00:0000A218 09719AE7        	  2470:  LDR     R7, [R10, R9, LSL #2]
00:0000A21C 080000EA        	  2471:  B       trin32
                            	  2472: trin30:
00:0000A220 0998A0E1        	  2473:  MOV     R9, R9, LSL #16
00:0000A224 0070A0E3        	  2474:  MOV     R7, #0
00:0000A228 02A1A0E3        	  2475:  MOV     R10, #0x80000000
                            	  2476: trin31:
00:0000A22C 8EE0B0E1        	  2477:  MOVS    R14, R14, LSL #1
00:0000A230 09005E31        	  2478:  CMPCC   R14, R9
00:0000A234 09E04E20        	  2479:  SUBCS   R14, R14, R9
00:0000A238 0A708721        	  2480:  ORRCS   R7, R7, R10
00:0000A23C AAA0B0E1        	  2481:  MOVS    R10, R10, LSR #1
00:0000A240 F9FFFF3A        	  2482:  BCC     trin31
                            	  2483: trin32:
00:0000A244 000054E1        	  2484:  CMP     R4, R0
00:0000A248 00706742        	  2485:  RSBMI   R7, R7, #0
00:0000A24C 039051E0        	  2486:  SUBS    R9, R1, R3
00:0000A250 0048A0E1        	  2487:  MOV     R4, R0, LSL #16
00:0000A254 024984E3        	  2488:  ORR     R4, R4, #0x8000
00:0000A258 0450A0E1        	  2489:  MOV     R5, R4
00:0000A25C 070056E1        	  2490:  CMP     R6, R7
00:0000A260 06E0A0C1        	  2491:  MOVGT   R14, R6
00:0000A264 0760A0C1        	  2492:  MOVGT   R6, R7
00:0000A268 0E70A0C1        	  2493:  MOVGT   R7, R14
00:0000A26C 650000EB        	  2494:  BL      trin45
00:0000A270 0300BDE8        	  2495:  LDMFD   R13!, {R0-R1}
00:0000A274 019053E0        	  2496:  SUBS    R9, R3, R1
00:0000A278 0080BD08        	  2497:  LDMEQIA R13!, {PC}
00:0000A27C 02E050E0        	  2498:  SUBS    R14, R0, R2
00:0000A280 02E06040        	  2499:  RSBMI   R14, R0, R2
00:0000A284 40005EE3        	  2500:  CMP     R14, #64
00:0000A288 40005933        	  2501:  CMPLO   R9, #64
00:0000A28C 0300002A        	  2502:  BHS     trin33
00:0000A290 60A51FE5        	  2503:  LDR     R10, divisionTableAddr
00:0000A294 0EA48AE0        	  2504:  ADD     R10, R10, R14, LSL #8
00:0000A298 09C19AE7        	  2505:  LDR     R12, [R10, R9, LSL #2]
00:0000A29C 080000EA        	  2506:  B       trin35
                            	  2507: trin33:
00:0000A2A0 0998A0E1        	  2508:  MOV     R9, R9, LSL #16
00:0000A2A4 00C0A0E3        	  2509:  MOV     R12, #0
00:0000A2A8 02A1A0E3        	  2510:  MOV     R10, #0x80000000
                            	  2511: trin34:
00:0000A2AC 8EE0B0E1        	  2512:  MOVS    R14, R14, LSL #1
00:0000A2B0 09005E31        	  2513:  CMPCC   R14, R9
00:0000A2B4 09E04E20        	  2514:  SUBCS   R14, R14, R9
00:0000A2B8 0AC08C21        	  2515:  ORRCS   R12, R12, R10
00:0000A2BC AAA0B0E1        	  2516:  MOVS    R10, R10, LSR #1
00:0000A2C0 F9FFFF3A        	  2517:  BCC     trin34
                            	  2518: trin35:
00:0000A2C4 020050E1        	  2519:  CMP     R0, R2
00:0000A2C8 00C06C42        	  2520:  RSBMI   R12, R12, #0
00:0000A2CC 019043E0        	  2521:  SUB     R9, R3, R1
00:0000A2D0 44E852E0        	  2522:  SUBS    R14, R2, R4, ASR #16
00:0000A2D4 45A85210        	  2523:  SUBNES  R10, R2, R5, ASR #16
00:0000A2D8 0B00001A        	  2524:  BNE     trin37
00:0000A2DC 440852E1        	  2525:  CMP     R2, R4, ASR #16
00:0000A2E0 0C60A001        	  2526:  MOVEQ   R6, R12
00:0000A2E4 FF4CC403        	  2527:  BICEQ   R4, R4, #0xFF00
00:0000A2E8 FF40C403        	  2528:  BICEQ   R4, R4, #0x00FF
00:0000A2EC 02498403        	  2529:  ORREQ   R4, R4, #0x8000
00:0000A2F0 0C70A011        	  2530:  MOVNE   R7, R12
00:0000A2F4 FF5CC513        	  2531:  BICNE   R5, R5, #0xFF00
00:0000A2F8 FF50C513        	  2532:  BICNE   R5, R5, #0x00FF
00:0000A2FC 02598513        	  2533:  ORRNE   R5, R5, #0x8000
                            	  2534: trin36:
00:0000A300 9CC81FE5        	  2535:  LDR     R12, screenAddr
00:0000A304 3F0000EB        	  2536:  BL      trin45
00:0000A308 0080BDE8        	  2537:  LDMFD   R13!, {PC}
                            	  2538: trin37:
00:0000A30C 00A06A42        	  2539:  RSBMI   R10, R10, #0
00:0000A310 00005EE3        	  2540:  CMP     R14, #0
00:0000A314 00E06E42        	  2541:  RSBMI   R14, R14, #0
00:0000A318 0A005EE1        	  2542:  CMP     R14, R10
00:0000A31C 0C60A021        	  2543:  MOVHS   R6, R12
00:0000A320 0C70A031        	  2544:  MOVLO   R7, R12
00:0000A324 F5FFFFEA        	  2545:  B       trin36
                            	  2546: trin38:
00:0000A328 059053E0        	  2547:  SUBS    R9, R3, R5
00:0000A32C 0080BD08        	  2548:  LDMEQIA R13!, {PC}
00:0000A330 04E050E0        	  2549:  SUBS    R14, R0, R4
00:0000A334 04E06040        	  2550:  RSBMI   R14, R0, R4
00:0000A338 40005EE3        	  2551:  CMP     R14, #64
00:0000A33C 40005933        	  2552:  CMPLO   R9, #64
00:0000A340 0300002A        	  2553:  BHS     trin39
00:0000A344 14A61FE5        	  2554:  LDR     R10, divisionTableAddr
00:0000A348 0EA48AE0        	  2555:  ADD     R10, R10, R14, LSL #8
00:0000A34C 09619AE7        	  2556:  LDR     R6, [R10, R9, LSL #2]
00:0000A350 080000EA        	  2557:  B       trin41
                            	  2558: trin39:
00:0000A354 0998A0E1        	  2559:  MOV     R9, R9, LSL #16
00:0000A358 0060A0E3        	  2560:  MOV     R6, #0
00:0000A35C 02A1A0E3        	  2561:  MOV     R10, #0x80000000
                            	  2562: trin40:
00:0000A360 8EE0B0E1        	  2563:  MOVS    R14, R14, LSL #1
00:0000A364 09005E31        	  2564:  CMPCC   R14, R9
00:0000A368 09E04E20        	  2565:  SUBCS   R14, R14, R9
00:0000A36C 0A608621        	  2566:  ORRCS   R6, R6, R10
00:0000A370 AAA0B0E1        	  2567:  MOVS    R10, R10, LSR #1
00:0000A374 F9FFFF3A        	  2568:  BCC     trin40
                            	  2569: trin41:
00:0000A378 000054E1        	  2570:  CMP     R4, R0
00:0000A37C 00606642        	  2571:  RSBMI   R6, R6, #0
00:0000A380 059043E0        	  2572:  SUB     R9, R3, R5
00:0000A384 04E052E0        	  2573:  SUBS    R14, R2, R4
00:0000A388 04E06240        	  2574:  RSBMI   R14, R2, R4
00:0000A38C 40005EE3        	  2575:  CMP     R14, #64
00:0000A390 40005933        	  2576:  CMPLO   R9, #64
00:0000A394 0300002A        	  2577:  BHS     trin42
00:0000A398 68A61FE5        	  2578:  LDR     R10, divisionTableAddr
00:0000A39C 0EA48AE0        	  2579:  ADD     R10, R10, R14, LSL #8
00:0000A3A0 09719AE7        	  2580:  LDR     R7, [R10, R9, LSL #2]
00:0000A3A4 080000EA        	  2581:  B       trin44
                            	  2582: trin42:
00:0000A3A8 0998A0E1        	  2583:  MOV     R9, R9, LSL #16
00:0000A3AC 0070A0E3        	  2584:  MOV     R7, #0
00:0000A3B0 02A1A0E3        	  2585:  MOV     R10, #0x80000000
                            	  2586: trin43:
00:0000A3B4 8EE0B0E1        	  2587:  MOVS    R14, R14, LSL #1
00:0000A3B8 09005E31        	  2588:  CMPCC   R14, R9
00:0000A3BC 09E04E20        	  2589:  SUBCS   R14, R14, R9
00:0000A3C0 0A708721        	  2590:  ORRCS   R7, R7, R10
00:0000A3C4 AAA0B0E1        	  2591:  MOVS    R10, R10, LSR #1
00:0000A3C8 F9FFFF3A        	  2592:  BCC     trin43
                            	  2593: trin44:
00:0000A3CC 020054E1        	  2594:  CMP     R4, R2
00:0000A3D0 00706742        	  2595:  RSBMI   R7, R7, #0
00:0000A3D4 059043E0        	  2596:  SUB     R9, R3, R5
00:0000A3D8 0048A0E1        	  2597:  MOV     R4, R0, LSL #16
00:0000A3DC 0258A0E1        	  2598:  MOV     R5, R2, LSL #16
00:0000A3E0 024984E3        	  2599:  ORR     R4, R4, #0x8000
00:0000A3E4 025985E3        	  2600:  ORR     R5, R5, #0x8000
00:0000A3E8 050054E1        	  2601:  CMP     R4, R5
00:0000A3EC 06E0A0C1        	  2602:  MOVGT   R14, R6
00:0000A3F0 0760A0C1        	  2603:  MOVGT   R6, R7
00:0000A3F4 0E70A0C1        	  2604:  MOVGT   R7, R14
00:0000A3F8 04E0A0C1        	  2605:  MOVGT   R14, R4
00:0000A3FC 0540A0C1        	  2606:  MOVGT   R4, R5
00:0000A400 0E50A0C1        	  2607:  MOVGT   R5, R14
00:0000A404 BDFFFFEA        	  2608:  B       trin36
                            	  2609: trin45:
00:0000A408 010C59E3        	  2610:  CMP     R9, #256
00:0000A40C 0EF0A021        	  2611:  MOVHS   PC, R14
00:0000A410 00402DE9        	  2612:  STMFD   R13!, {R14}
                            	  2613: trin46:
00:0000A414 064084E0        	  2614:  ADD     R4, R4, R6
00:0000A418 075085E0        	  2615:  ADD     R5, R5, R7
00:0000A41C 00005BE3        	  2616:  CMP     R11, #0
00:0000A420 0080BD48        	  2617:  LDMMIIA R13!, {PC}
00:0000A424 EF005BE3        	  2618:  CMP     R11, #239
00:0000A428 1000002A        	  2619:  BHS     trin48
00:0000A42C 00082DE9        	  2620:  STMFD   R13!, {R11}
00:0000A430 0BB18BE0        	  2621:  ADD     R11, R11, R11, LSL #2
00:0000A434 0BB38CE0        	  2622:  ADD     R11, R12, R11, LSL #6
00:0000A438 050554E3        	  2623:  CMP     R4, #0x01400000
00:0000A43C 0A00005A        	  2624:  BPL     trin47
00:0000A440 000055E3        	  2625:  CMP     R5, #0
00:0000A444 0800004A        	  2626:  BMI     trin47
00:0000A448 000054E3        	  2627:  CMP     R4, #0
00:0000A44C 2408A051        	  2628:  MOVPL   R0, R4, LSR #16
00:0000A450 24B88B50        	  2629:  ADDPL   R11, R11, R4, LSR #16
00:0000A454 0000A043        	  2630:  MOVMI   R0, #0
00:0000A458 050555E3        	  2631:  CMP     R5, #0x01400000
00:0000A45C 25A86030        	  2632:  RSBLO   R10, R0, R5, LSR #16
00:0000A460 05AD6022        	  2633:  RSBHS   R10, R0, #320
00:0000A464 00005AE3        	  2634:  CMP     R10, #0
00:0000A468 1600005B        	  2635:  BLPL    DrawHorizontalLine
                            	  2636: trin47:
00:0000A46C 0008BDE8        	  2637:  LDMFD   R13!, {R11}
                            	  2638: trin48:
00:0000A470 01B04BE2        	  2639:  SUB     R11, R11, #1
00:0000A474 019059E2        	  2640:  SUBS    R9, R9, #1
00:0000A478 E5FFFF1A        	  2641:  BNE     trin46
00:0000A47C 0080BDE8        	  2642:  LDMFD   R13!, {PC}
                            	  2643: lineJump:
00:0000A480 68A50000        	  2644: .long    DrawLineSegment + 17 * 4
00:0000A484 64A50000        	  2645: .long    DrawLineSegment + 16 * 4
00:0000A488 60A50000        	  2646: .long    DrawLineSegment + 15 * 4
00:0000A48C 5CA50000        	  2647: .long    DrawLineSegment + 14 * 4
00:0000A490 58A50000        	  2648: .long    DrawLineSegment + 13 * 4
00:0000A494 54A50000        	  2649: .long    DrawLineSegment + 12 * 4
00:0000A498 50A50000        	  2650: .long    DrawLineSegment + 11 * 4
00:0000A49C 4CA50000        	  2651: .long    DrawLineSegment + 10 * 4
00:0000A4A0 48A50000        	  2652: .long    DrawLineSegment + 9 * 4
00:0000A4A4 44A50000        	  2653: .long    DrawLineSegment + 8 * 4
00:0000A4A8 40A50000        	  2654: .long    DrawLineSegment + 7 * 4
00:0000A4AC 3CA50000        	  2655: .long    DrawLineSegment + 6 * 4
00:0000A4B0 38A50000        	  2656: .long    DrawLineSegment + 5 * 4
00:0000A4B4 34A50000        	  2657: .long    DrawLineSegment + 4 * 4
00:0000A4B8 30A50000        	  2658: .long    DrawLineSegment + 3 * 4
00:0000A4BC 2CA50000        	  2659: .long    DrawLineSegment + 2 * 4
00:0000A4C0 28A50000        	  2660: .long    DrawLineSegment + 1 * 4
00:0000A4C4 24A50000        	  2661: .long    DrawLineSegment
                            	  2662: DrawHorizontalLine:
00:0000A4C8 12005AE3        	  2663:  CMP     R10, #18
                            	  2664: .set varOffset, $ + 8 - lineJump
00:0000A4CC 0A018F30        	  2665:  ADDLO   R0, PC, R10, LSL #2
00:0000A4D0 54F01035        	  2666:  LDRLO   PC, [R0, #-varOffset]
00:0000A4D4 0AA08BE0        	  2667:  ADD     R10, R11, R10
00:0000A4D8 0300CAE3        	  2668:  BIC     R0, R10, #0x3
00:0000A4DC 03001BE3        	  2669:  TST     R11, #0x3
00:0000A4E0 0180CB14        	  2670:  STRNEB  R8, [R11], #1
00:0000A4E4 03001B13        	  2671:  TSTNE   R11, #3
00:0000A4E8 0180CB14        	  2672:  STRNEB  R8, [R11], #1
00:0000A4EC 03001B13        	  2673:  TSTNE   R11, #3
00:0000A4F0 0180CB14        	  2674:  STRNEB  R8, [R11], #1
                            	  2675: hlin1:
00:0000A4F4 04808BE4        	  2676:  STR     R8, [R11], #4
00:0000A4F8 00005BE1        	  2677:  CMP     R11, R0
00:0000A4FC 04808B34        	  2678:  STRLO   R8, [R11], #4
00:0000A500 00005B31        	  2679:  CMPLO   R11, R0
00:0000A504 FAFFFF3A        	  2680:  BLO     hlin1
00:0000A508 0A005BE1        	  2681:  CMP     R11, R10
00:0000A50C 0180CB34        	  2682:  STRLOB  R8, [R11], #1
00:0000A510 0A005B31        	  2683:  CMPLO   R11, R10
00:0000A514 0180CB34        	  2684:  STRLOB  R8, [R11], #1
00:0000A518 0A005B31        	  2685:  CMPLO   R11, R10
00:0000A51C 0180CB34        	  2686:  STRLOB  R8, [R11], #1
00:0000A520 0EF0A0E1        	  2687:  MOV     PC, R14
                            	  2688: DrawLineSegment:
00:0000A524 1080CBE5        	  2689:  STRB    R8, [R11, #16]
00:0000A528 0F80CBE5        	  2690:  STRB    R8, [R11, #15]
00:0000A52C 0E80CBE5        	  2691:  STRB    R8, [R11, #14]
00:0000A530 0D80CBE5        	  2692:  STRB    R8, [R11, #13]
00:0000A534 0C80CBE5        	  2693:  STRB    R8, [R11, #12]
00:0000A538 0B80CBE5        	  2694:  STRB    R8, [R11, #11]
00:0000A53C 0A80CBE5        	  2695:  STRB    R8, [R11, #10]
00:0000A540 0980CBE5        	  2696:  STRB    R8, [R11, #9]
00:0000A544 0880CBE5        	  2697:  STRB    R8, [R11, #8]
00:0000A548 0780CBE5        	  2698:  STRB    R8, [R11, #7]
00:0000A54C 0680CBE5        	  2699:  STRB    R8, [R11, #6]
00:0000A550 0580CBE5        	  2700:  STRB    R8, [R11, #5]
00:0000A554 0480CBE5        	  2701:  STRB    R8, [R11, #4]
00:0000A558 0380CBE5        	  2702:  STRB    R8, [R11, #3]
00:0000A55C 0280CBE5        	  2703:  STRB    R8, [R11, #2]
00:0000A560 0180CBE5        	  2704:  STRB    R8, [R11, #1]
00:0000A564 0080CBE5        	  2705:  STRB    R8, [R11]
00:0000A568 0EF0A0E1        	  2706:  MOV     PC, R14
                            	  2707: workspaceAddr:
00:0000A56C 00220100        	  2708: .long    workspace
                            	  2709: stackAddr:
00:0000A570 FC210100        	  2710: .long    stack
                            	  2711: memoryTestAddr:
00:0000A574 00000000        	  2712: .long    0
                            	  2713: initialScore:
00:0000A578 F4010000        	  2714: .long    500
                            	  2715: initialHighScore:
00:0000A57C F4010000        	  2716: .long    500
                            	  2717: initialFuelLevel:
00:0000A580 550D0000        	  2718: .long    3413
                            	  2719: stackPointerOnEntry:
00:0000A584 00000000        	  2720: .long    0
                            	  2721: mouseParameters:
00:0000A588 03              	  2722: .byte 3
00:0000A589 FF01            	  2723: .word 511
00:0000A58B FF01            	  2724: .word 511
                            	  2725: .balign 4
                            	  2726: mouseParametersAddr:
00:0000A590 88A50000        	  2727: .long    mouseParameters
                            	  2728: ResetMousePosition:
00:0000A594 0C101FE5        	  2729:  LDR     R1, mouseParametersAddr
00:0000A598 1500A0E3        	  2730:  MOV     R0, #21
00:0000A59C 070000EF        	  2731:  SWI     OS_Word
00:0000A5A0 0EF0A0E1        	  2732:  MOV     PC, R14
                            	  2733: AbortWithMemoryError:
00:0000A5A4 0010C0E5        	  2734:  STRB    R1, [R0]
00:0000A5A8 010000EF        	  2735:  SWI     OS_WriteS
00:0000A5AC 5468657265206973	  2736: .byte    "There is not enough "
00:0000A5B4 206E6F7420656E6F
00:0000A5BC 75676820
00:0000A5C0 6D656D6F72792074	  2737: .byte    "memory to run this "
00:0000A5C8 6F2072756E207468
00:0000A5D0 697320
00:0000A5D3 67616D652E      	  2738: .byte    "game."
00:0000A5D8 0A0D            	  2739: .word    0x0D0A
00:0000A5DA 506C65617365202A	  2740: .byte    "Please *CONFIGURE your "
00:0000A5E2 434F4E4649475552
00:0000A5EA 4520796F757220
00:0000A5F1 6D616368696E6520	  2741: .byte    "machine to free more "
00:0000A5F9 746F206672656520
00:0000A601 6D6F726520
00:0000A606 6D656D6F72792E  	  2742: .byte    "memory."
00:0000A60D 00              	  2743: .byte    0
                            	  2744: .balign 4
00:0000A610 AF0000EA        	  2745:  B       ReturnToDesktop
                            	  2746: Entry:
00:0000A614 1600A0E3        	  2747:  MOV     R0, #22
00:0000A618 000000EF        	  2748:  SWI     OS_WriteC
00:0000A61C 0F00A0E3        	  2749:  MOV     R0, #15
00:0000A620 000000EF        	  2750:  SWI     OS_WriteC
00:0000A624 A8D00FE5        	  2751:  STR     R13, stackPointerOnEntry
00:0000A628 C0D01FE5        	  2752:  LDR     R13, stackAddr
00:0000A62C C8B01FE5        	  2753:  LDR     R11, workspaceAddr
00:0000A630 00402DE9        	  2754:  STMFD   R13!, {R14}
00:0000A634 C8001FE5        	  2755:  LDR     R0, memoryTestAddr
00:0000A638 0010D0E5        	  2756:  LDRB    R1, [R0]
00:0000A63C AA20A0E3        	  2757:  MOV     R2, #0xAA
00:0000A640 0020C0E5        	  2758:  STRB    R2, [R0]
00:0000A644 0030D0E5        	  2759:  LDRB    R3, [R0]
00:0000A648 030052E1        	  2760:  CMP     R2, R3
00:0000A64C D4FFFF1A        	  2761:  BNE     AbortWithMemoryError
00:0000A650 5520A0E3        	  2762:  MOV     R2, #0x55
00:0000A654 0020C0E5        	  2763:  STRB    R2, [R0]
00:0000A658 0030D0E5        	  2764:  LDRB    R3, [R0]
00:0000A65C 030052E1        	  2765:  CMP     R2, R3
00:0000A660 CFFFFF1A        	  2766:  BNE     AbortWithMemoryError
00:0000A664 0010C0E5        	  2767:  STRB    R1, [R0]
00:0000A668 0400A0E3        	  2768:  MOV     R0, #4
00:0000A66C 0110A0E3        	  2769:  MOV     R1, #1
00:0000A670 0020A0E3        	  2770:  MOV     R2, #0
00:0000A674 060000EF        	  2771:  SWI     OS_Byte
00:0000A678 1DF9FFEB        	  2772:  BL      InitialiseParticleData
00:0000A67C 1600A0E3        	  2773:  MOV     R0, #22
00:0000A680 000000EF        	  2774:  SWI     OS_WriteC
00:0000A684 0D00A0E3        	  2775:  MOV     R0, #13
00:0000A688 000000EF        	  2776:  SWI     OS_WriteC
00:0000A68C 010000EF        	  2777:  SWI     OS_WriteS
00:0000A690 4C616E6465722044	  2778: .byte    "Lander Demo/Practice "
00:0000A698 656D6F2F50726163
00:0000A6A0 7469636520
00:0000A6A5 28432920442E4A2E	  2779: .byte    "(C) D.J.Braben 1987"
00:0000A6AD 42726162656E2031
00:0000A6B5 393837
00:0000A6B8 00              	  2780: .byte    0
                            	  2781: .balign 4
00:0000A6BC 9EFDFFEB        	  2782:  BL      SwitchScreenBank
00:0000A6C0 1600A0E3        	  2783:  MOV     R0, #22
00:0000A6C4 000000EF        	  2784:  SWI     OS_WriteC
00:0000A6C8 8D00A0E3        	  2785:  MOV     R0, #128+13
00:0000A6CC 000000EF        	  2786:  SWI     OS_WriteC
00:0000A6D0 1700A0E3        	  2787:  MOV     R0, #23
00:0000A6D4 000000EF        	  2788:  SWI     OS_WriteC
00:0000A6D8 0100A0E3        	  2789:  MOV     R0, #1
00:0000A6DC 000000EF        	  2790:  SWI     OS_WriteC
00:0000A6E0 0880A0E3        	  2791:  MOV     R8, #8
                            	  2792: entr1:
00:0000A6E4 0000A0E3        	  2793:  MOV     R0, #0
00:0000A6E8 000000EF        	  2794:  SWI     OS_WriteC
00:0000A6EC 018058E2        	  2795:  SUBS    R8, R8, #1
00:0000A6F0 FBFFFF1A        	  2796:  BNE     entr1
00:0000A6F4 010000EF        	  2797:  SWI     OS_WriteS
00:0000A6F8 4C616E6465722044	  2798: .byte    "Lander Demo/Practice "
00:0000A700 656D6F2F50726163
00:0000A708 7469636520
00:0000A70D 28432920442E4A2E	  2799: .byte    "(C) D.J.Braben 1987"
00:0000A715 42726162656E2031
00:0000A71D 393837
00:0000A720 00              	  2800: .byte    0
                            	  2801: .balign 4
00:0000A724 B4011FE5        	  2802:  LDR     R0, initialScore
00:0000A728 24018BE5        	  2803:  STR     R0, [R11, #currentScore]
00:0000A72C B8011FE5        	  2804:  LDR     R0, initialHighScore
00:0000A730 38018BE5        	  2805:  STR     R0, [R11, #highScore]
                            	  2806: StartNewGame:
00:0000A734 38019BE5        	  2807:  LDR     R0, [R11, #highScore]
00:0000A738 24119BE5        	  2808:  LDR     R1, [R11, #currentScore]
00:0000A73C 000051E1        	  2809:  CMP     R1, R0
00:0000A740 0100A051        	  2810:  MOVPL   R0, R1
00:0000A744 38018B25        	  2811:  STRHS   R0, [R11, #highScore]
00:0000A748 2310A0E3        	  2812:  MOV     R1, #35
00:0000A74C 0120A0E3        	  2813:  MOV     R2, #1
00:0000A750 82FAFFEB        	  2814:  BL      PrintScoreInBothBanks
00:0000A754 E4011FE5        	  2815:  LDR     R0, initialScore
00:0000A758 24018BE5        	  2816:  STR     R0, [R11, #currentScore]
00:0000A75C E4011FE5        	  2817:  LDR     R0, initialFuelLevel
00:0000A760 28018BE5        	  2818:  STR     R0, [R11, #fuelLevel]
00:0000A764 0308A0E3        	  2819:  MOV     R0, #0x30000
00:0000A768 2C018BE5        	  2820:  STR     R0, [R11, #gravity]
00:0000A76C 0300A0E3        	  2821:  MOV     R0, #3
00:0000A770 34018BE5        	  2822:  STR     R0, [R11, #remainingLives]
                            	  2823: PlaceObjectsOnMap:
00:0000A774 0000E0E3        	  2824:  MVN     R0, #0
00:0000A778 0010E0E3        	  2825:  MVN     R1, #0
00:0000A77C 0020E0E3        	  2826:  MVN     R2, #0
00:0000A780 0030E0E3        	  2827:  MVN     R3, #0
00:0000A784 0148A0E3        	  2828:  MOV     R4, #256*256
00:0000A788 116B8BE2        	  2829:  ADD     R6, R11, #objectMap
                            	  2830: snew1:
00:0000A78C 0F00A6E8        	  2831:  STMIA   R6!, {R0-R3}
00:0000A790 104054E2        	  2832:  SUBS    R4, R4, #16
00:0000A794 FCFFFF1A        	  2833:  BNE     snew1
00:0000A798 116B8BE2        	  2834:  ADD     R6, R11, #objectMap
00:0000A79C 025BA0E3        	  2835:  MOV     R5, #2048
                            	  2836: snew2:
00:0000A7A0 A6FCFFEB        	  2837:  BL      GetRandomNumbers
00:0000A7A4 0080A0E1        	  2838:  MOV     R8, R0
00:0000A7A8 0094A0E1        	  2839:  MOV     R9, R0, LSL #8
00:0000A7AC 01002DE9        	  2840:  STMFD   R13!, {R0}
00:0000A7B0 8FF6FFEB        	  2841:  BL      GetLandscapeAltitude
00:0000A7B4 00E0A0E1        	  2842:  MOV     R14, R0
00:0000A7B8 0100BDE8        	  2843:  LDMFD   R13!, {R0}
00:0000A7BC 55065EE3        	  2844:  CMP     R14, #SEA_LEVEL
00:0000A7C0 35065E13        	  2845:  CMPNE   R14, #LAUNCHPAD_ALTITUDE
00:0000A7C4 0500000A        	  2846:  BEQ     snew3
00:0000A7C8 070000E2        	  2847:  AND     R0, R0, #7
00:0000A7CC 010080E2        	  2848:  ADD     R0, R0, #1
00:0000A7D0 FF9409E2        	  2849:  AND     R9, R9, #0xFF000000
00:0000A7D4 28EC86E0        	  2850:  ADD     R14, R6, R8, LSR #24
00:0000A7D8 29E88EE0        	  2851:  ADD     R14, R14, R9, LSR #16
00:0000A7DC 0000CEE5        	  2852:  STRB    R0, [R14]
                            	  2853: snew3:
00:0000A7E0 015055E2        	  2854:  SUBS    R5, R5, #1
00:0000A7E4 EDFFFF5A        	  2855:  BPL     snew2
00:0000A7E8 0900A0E3        	  2856:  MOV     R0, #LAUNCHPAD_OBJECT
00:0000A7EC 0701C6E5        	  2857:  STRB    R0, [R6, #0x0107]
00:0000A7F0 0703C6E5        	  2858:  STRB    R0, [R6, #0x0307]
00:0000A7F4 0705C6E5        	  2859:  STRB    R0, [R6, #0x0507]
                            	  2860: PlacePlayerOnLaunchpad:
00:0000A7F8 34019BE5        	  2861:  LDR     R0, [R11, #remainingLives]
00:0000A7FC 1E10A0E3        	  2862:  MOV     R1, #30
00:0000A800 0120A0E3        	  2863:  MOV     R2, #1
00:0000A804 55FAFFEB        	  2864:  BL      PrintScoreInBothBanks
00:0000A808 0000E0E3        	  2865:  MVN     R0, #0
00:0000A80C 30018BE5        	  2866:  STR     R0, [R11, #playingGame]
00:0000A810 0000A0E3        	  2867:  MOV     R0, #0
00:0000A814 3C018BE5        	  2868:  STR     R0, [R11, #xCamera]
00:0000A818 44018BE5        	  2869:  STR     R0, [R11, #zCamera]
00:0000A81C 54018BE5        	  2870:  STR     R0, [R11, #shipDirection]
00:0000A820 0100A0E3        	  2871:  MOV     R0, #1
00:0000A824 58018BE5        	  2872:  STR     R0, [R11, #shipPitch]
00:0000A828 0103A0E3        	  2873:  MOV     R0, #LAUNCHPAD_SIZE/2
00:0000A82C 0020A0E1        	  2874:  MOV     R2, R0
00:0000A830 94308BE2        	  2875:  ADD     R3, R11, #xPlayer
00:0000A834 BB17A0E3        	  2876:  MOV     R1, #LAUNCHPAD_Y
00:0000A838 0700A3E8        	  2877:  STMIA   R3!, {R0-R2}
00:0000A83C 0000A0E3        	  2878:  MOV     R0, #0
00:0000A840 0010A0E3        	  2879:  MOV     R1, #0
00:0000A844 0020A0E3        	  2880:  MOV     R2, #0
00:0000A848 0700A3E8        	  2881:  STMIA   R3!, {R0-R2}
00:0000A84C 50FFFFEB        	  2882:  BL      ResetMousePosition
                            	  2883: MainLoop:
00:0000A850 8100A0E3        	  2884:  MOV     R0, #129
00:0000A854 0010A0E3        	  2885:  MOV     R1, #0
00:0000A858 0020A0E3        	  2886:  MOV     R2, #0
00:0000A85C 060000EF        	  2887:  SWI     OS_Byte
00:0000A860 1B0032E3        	  2888:  TEQ     R2, #0x1B
00:0000A864 1000000A        	  2889:  BEQ     EndGame
00:0000A868 CAF6FFEB        	  2890:  BL      MoveAndDrawPlayer
00:0000A86C 18019BE5        	  2891:  LDR     R0, [R11, #mainLoopCount]
00:0000A870 000CA0E1        	  2892:  MOV     R0, R0, LSL #24
00:0000A874 8010A0E1        	  2893:  MOV     R1, R0, LSL #1
00:0000A878 D9FAFFEB        	  2894:  BL      CalculateRotationMatrix
00:0000A87C 2FF9FFEB        	  2895:  BL      DropRocksFromTheSky
00:0000A880 DBF7FFEB        	  2896:  BL      MoveAndDrawParticles
00:0000A884 54F9FFEB        	  2897:  BL      DrawObjects
00:0000A888 1BFDFFEB        	  2898:  BL      AddTerminatorsToBuffers
00:0000A88C FEF5FFEB        	  2899:  BL      DrawLandscapeAndBuffers
00:0000A890 1CFAFFEB        	  2900:  BL      PrintCurrentScore
00:0000A894 58FAFFEB        	  2901:  BL      DrawFuelLevel
00:0000A898 27FDFFEB        	  2902:  BL      SwitchScreenBank
00:0000A89C 18E19BE5        	  2903:  LDR     R14, [R11, #mainLoopCount]
00:0000A8A0 01E08EE2        	  2904:  ADD     R14, R14, #1
00:0000A8A4 18E18BE5        	  2905:  STR     R14, [R11, #mainLoopCount]
00:0000A8A8 E8FFFFEA        	  2906:  B       MainLoop
                            	  2907: EndGame:
00:0000A8AC 7E00A0E3        	  2908:  MOV     R0, #126
00:0000A8B0 060000EF        	  2909:  SWI     OS_Byte
00:0000A8B4 1600A0E3        	  2910:  MOV     R0, #22
00:0000A8B8 000000EF        	  2911:  SWI     OS_WriteC
00:0000A8BC 0000A0E3        	  2912:  MOV     R0, #0
00:0000A8C0 000000EF        	  2913:  SWI     OS_WriteC
00:0000A8C4 0400A0E3        	  2914:  MOV     R0, #4
00:0000A8C8 0010A0E3        	  2915:  MOV     R1, #0
00:0000A8CC 0020A0E3        	  2916:  MOV     R2, #0
00:0000A8D0 060000EF        	  2917:  SWI     OS_Byte
                            	  2918: ReturnToDesktop:
00:0000A8D4 0040BDE8        	  2919:  LDMFD   R13!, {R14}
00:0000A8D8 5CD31FE5        	  2920:  LDR     R13, stackPointerOnEntry
00:0000A8DC 0EF0A0E1        	  2921:  MOV     PC, R14
                            	  2922: PrintHexNumber:
00:0000A8E0 1E00A0E3        	  2923:  MOV     R0, #30
00:0000A8E4 000000EF        	  2924:  SWI     OS_WriteC
00:0000A8E8 0A00A0E3        	  2925:  MOV     R0, #0x0A
00:0000A8EC 000000EF        	  2926:  SWI     OS_WriteC
00:0000A8F0 FF5F2DE9        	  2927:  STMFD   R13!, {R0-R12, R14}
00:0000A8F4 210EA0E1        	  2928:  MOV     R0, R1, LSR #28
00:0000A8F8 120000EB        	  2929:  BL      PrintHexDigit
00:0000A8FC 210CA0E1        	  2930:  MOV     R0, R1, LSR #24
00:0000A900 100000EB        	  2931:  BL      PrintHexDigit
00:0000A904 210AA0E1        	  2932:  MOV     R0, R1, LSR #20
00:0000A908 0E0000EB        	  2933:  BL      PrintHexDigit
00:0000A90C 2108A0E1        	  2934:  MOV     R0, R1, LSR #16
00:0000A910 0C0000EB        	  2935:  BL      PrintHexDigit
00:0000A914 2106A0E1        	  2936:  MOV     R0, R1, LSR #12
00:0000A918 0A0000EB        	  2937:  BL      PrintHexDigit
00:0000A91C 2104A0E1        	  2938:  MOV     R0, R1, LSR #8
00:0000A920 080000EB        	  2939:  BL      PrintHexDigit
00:0000A924 2102A0E1        	  2940:  MOV     R0, R1, LSR #4
00:0000A928 060000EB        	  2941:  BL      PrintHexDigit
00:0000A92C 0100A0E1        	  2942:  MOV     R0, R1
00:0000A930 040000EB        	  2943:  BL      PrintHexDigit
00:0000A934 0A00A0E3        	  2944:  MOV     R0, #0xA
00:0000A938 000000EF        	  2945:  SWI     OS_WriteC
00:0000A93C 0D00A0E3        	  2946:  MOV     R0, #0xD
00:0000A940 000000EF        	  2947:  SWI     OS_WriteC
00:0000A944 FF9FBDE8        	  2948:  LDMFD   R13!, {R0-R12, PC}
                            	  2949: PrintHexDigit:
00:0000A948 0F0000E2        	  2950:  AND     R0, R0, #0xF
00:0000A94C 0A0050E3        	  2951:  CMP     R0, #0xA
00:0000A950 37008022        	  2952:  ADDHS   R0, R0, #0x37
00:0000A954 30008032        	  2953:  ADDLO   R0, R0, #0x30
00:0000A958 000000EF        	  2954:  SWI     OS_WriteC
00:0000A95C 0EF0A0E1        	  2955:  MOV     PC, R14
                            	  2956: objectRock:
00:0000A960 06000000        	  2957: .long    6
00:0000A964 08000000        	  2958: .long    8
00:0000A968 58000000        	  2959: .long    objectRockFaces - objectRock
00:0000A96C 03000000        	  2960: .long    0x3
                            	  2961: objectRockVertices:
00:0000A970 00000000        	  2962: .long    0x00000000, 0x00000000, 0x00A00000
00:0000A974 00000000
00:0000A978 0000A000
00:0000A97C 0000A000        	  2963: .long    0x00A00000, 0x00A00000, 0x00000000
00:0000A980 0000A000
00:0000A984 00000000
00:0000A988 000060FF        	  2964: .long    0xFF600000, 0x00A00000, 0x00000000
00:0000A98C 0000A000
00:0000A990 00000000
00:0000A994 0000A000        	  2965: .long    0x00A00000, 0xFF600000, 0x00000000
00:0000A998 000060FF
00:0000A99C 00000000
00:0000A9A0 000060FF        	  2966: .long    0xFF600000, 0xFF600000, 0x00000000
00:0000A9A4 000060FF
00:0000A9A8 00000000
00:0000A9AC 00000000        	  2967: .long    0x00000000, 0x00000000, 0xFF600000
00:0000A9B0 00000000
00:0000A9B4 000060FF
                            	  2968: objectRockFaces:
00:0000A9B8 00000000        	  2969: .long    0x00000000, 0x54DA5200, 0x54DA5200,       0,       1,       2,   0x444
00:0000A9BC 0052DA54
00:0000A9C0 0052DA54
00:0000A9C4 00000000
00:0000A9C8 01000000
00:0000A9CC 02000000
00:0000A9D0 44040000
00:0000A9D4 0052DA54        	  2970: .long    0x54DA5200, 0x00000000, 0x54DA5200,       0,       3,       1,   0x444
00:0000A9D8 00000000
00:0000A9DC 0052DA54
00:0000A9E0 00000000
00:0000A9E4 03000000
00:0000A9E8 01000000
00:0000A9EC 44040000
00:0000A9F0 00000000        	  2971: .long    0x00000000, 0xAB25AE00, 0x54DA5200,       0,       4,       3,   0x444
00:0000A9F4 00AE25AB
00:0000A9F8 0052DA54
00:0000A9FC 00000000
00:0000AA00 04000000
00:0000AA04 03000000
00:0000AA08 44040000
00:0000AA0C 00AE25AB        	  2972: .long    0xAB25AE00, 0x00000000, 0x54DA5200,       0,       2,       4,   0x444
00:0000AA10 00000000
00:0000AA14 0052DA54
00:0000AA18 00000000
00:0000AA1C 02000000
00:0000AA20 04000000
00:0000AA24 44040000
00:0000AA28 00000000        	  2973: .long    0x00000000, 0x54DA5200, 0xAB25AE00,       5,       1,       2,   0x444
00:0000AA2C 0052DA54
00:0000AA30 00AE25AB
00:0000AA34 05000000
00:0000AA38 01000000
00:0000AA3C 02000000
00:0000AA40 44040000
00:0000AA44 0052DA54        	  2974: .long    0x54DA5200, 0x00000000, 0xAB25AE00,       5,       3,       1,   0x444
00:0000AA48 00000000
00:0000AA4C 00AE25AB
00:0000AA50 05000000
00:0000AA54 03000000
00:0000AA58 01000000
00:0000AA5C 44040000
00:0000AA60 00000000        	  2975: .long    0x00000000, 0xAB25AE00, 0xAB25AE00,       5,       4,       3,   0x444
00:0000AA64 00AE25AB
00:0000AA68 00AE25AB
00:0000AA6C 05000000
00:0000AA70 04000000
00:0000AA74 03000000
00:0000AA78 44040000
00:0000AA7C 00AE25AB        	  2976: .long    0xAB25AE00, 0x00000000, 0xAB25AE00,       5,       2,       4,   0x444
00:0000AA80 00000000
00:0000AA84 00AE25AB
00:0000AA88 05000000
00:0000AA8C 02000000
00:0000AA90 04000000
00:0000AA94 44040000
                            	  2977: objectPyramid:
00:0000AA98 05000000        	  2978: .long    5
00:0000AA9C 06000000        	  2979: .long    6
00:0000AAA0 4C000000        	  2980: .long    objectPyramidFaces - objectPyramid
00:0000AAA4 01000000        	  2981: .long    0x1
                            	  2982: objectPyramidVertices:
00:0000AAA8 00000000        	  2983: .long    0x00000000, 0x01000000, 0x00000000
00:0000AAAC 00000001
00:0000AAB0 00000000
00:0000AAB4 0000C000        	  2984: .long    0x00C00000, 0xFF800000, 0x00C00000
00:0000AAB8 000080FF
00:0000AABC 0000C000
00:0000AAC0 000040FF        	  2985: .long    0xFF400000, 0xFF800000, 0x00C00000
00:0000AAC4 000080FF
00:0000AAC8 0000C000
00:0000AACC 0000C000        	  2986: .long    0x00C00000, 0xFF800000, 0xFF400000
00:0000AAD0 000080FF
00:0000AAD4 000040FF
00:0000AAD8 000040FF        	  2987: .long    0xFF400000, 0xFF800000, 0xFF400000
00:0000AADC 000080FF
00:0000AAE0 000040FF
                            	  2988: objectPyramidFaces:
00:0000AAE4 00000000        	  2989: .long    0x00000000, 0x35AA66D2, 0x6B54CDA5,       0,       1,       2,   0x800
00:0000AAE8 D266AA35
00:0000AAEC A5CD546B
00:0000AAF0 00000000
00:0000AAF4 01000000
00:0000AAF8 02000000
00:0000AAFC 00080000
00:0000AB00 A5CD546B        	  2990: .long    0x6B54CDA5, 0x35AA66D2, 0x00000000,       0,       3,       1,   0x088
00:0000AB04 D266AA35
00:0000AB08 00000000
00:0000AB0C 00000000
00:0000AB10 03000000
00:0000AB14 01000000
00:0000AB18 88000000
00:0000AB1C 00000000        	  2991: .long    0x00000000, 0x35AA66D2, 0x94AB325B,       0,       4,       3,   0x880
00:0000AB20 D266AA35
00:0000AB24 5B32AB94
00:0000AB28 00000000
00:0000AB2C 04000000
00:0000AB30 03000000
00:0000AB34 80080000
00:0000AB38 5B32AB94        	  2992: .long    0x94AB325B, 0x35AA66D2, 0x00000000,       0,       2,       4,   0x808
00:0000AB3C D266AA35
00:0000AB40 00000000
00:0000AB44 00000000
00:0000AB48 02000000
00:0000AB4C 04000000
00:0000AB50 08080000
00:0000AB54 00000000        	  2993: .long    0x00000000, 0x88000000, 0x00000000,       1,       2,       3,   0x444
00:0000AB58 00000088
00:0000AB5C 00000000
00:0000AB60 01000000
00:0000AB64 02000000
00:0000AB68 03000000
00:0000AB6C 44040000
00:0000AB70 00000000        	  2994: .long    0x00000000, 0x88000000, 0x00000000,       2,       3,       4,   0x008
00:0000AB74 00000088
00:0000AB78 00000000
00:0000AB7C 02000000
00:0000AB80 03000000
00:0000AB84 04000000
00:0000AB88 08000000
                            	  2995: objectPlayer:
00:0000AB8C 09000000        	  2996: .long    9
00:0000AB90 09000000        	  2997: .long    9
00:0000AB94 7C000000        	  2998: .long    objectPlayerFaces - objectPlayer
00:0000AB98 03000000        	  2999: .long    0x3
                            	  3000: objectPlayerVertices:
00:0000AB9C 00000001        	  3001: .long    0x01000000, 0x00500000, 0x00800000
00:0000ABA0 00005000
00:0000ABA4 00008000
00:0000ABA8 00000001        	  3002: .long    0x01000000, 0x00500000, 0xFF800000
00:0000ABAC 00005000
00:0000ABB0 000080FF
00:0000ABB4 00000000        	  3003: .long    0x00000000, 0x000A0000, 0xFECCCCCD
00:0000ABB8 00000A00
00:0000ABBC CDCCCCFE
00:0000ABC0 9A9919FF        	  3004: .long    0xFF19999A, 0x00500000, 0x00000000
00:0000ABC4 00005000
00:0000ABC8 00000000
00:0000ABCC 00000000        	  3005: .long    0x00000000, 0x000A0000, 0x01333333
00:0000ABD0 00000A00
00:0000ABD4 33333301
00:0000ABD8 6766E6FF        	  3006: .long    0xFFE66667, 0xFF880000, 0x00000000
00:0000ABDC 000088FF
00:0000ABE0 00000000
00:0000ABE4 55555500        	  3007: .long    0x00555555, 0x00500000, 0x00400000
00:0000ABE8 00005000
00:0000ABEC 00004000
00:0000ABF0 55555500        	  3008: .long    0x00555555, 0x00500000, 0xFFC00000
00:0000ABF4 00005000
00:0000ABF8 0000C0FF
00:0000ABFC CDCCCCFF        	  3009: .long    0xFFCCCCCD, 0x00500000, 0x00000000
00:0000AC00 00005000
00:0000AC04 00000000
                            	  3010: objectPlayerFaces:
00:0000AC08 1A447C45        	  3011: .long    0x457C441A, 0x9E2A1F4C, 0x00000000,       0,       1,       5,   0x080
00:0000AC0C 4C1F2A9E
00:0000AC10 00000000
00:0000AC14 00000000
00:0000AC18 01000000
00:0000AC1C 05000000
00:0000AC20 80000000
00:0000AC24 3BD8F535        	  3012: .long    0x35F5D83B, 0x9BC03EC1, 0xDA12D71D,       1,       2,       5,   0x040
00:0000AC28 C13EC09B
00:0000AC2C 1DD712DA
00:0000AC30 01000000
00:0000AC34 02000000
00:0000AC38 05000000
00:0000AC3C 40000000
00:0000AC40 3BD8F535        	  3013: .long    0x35F5D83B, 0x9BC03EC1, 0x25ED28E3,       0,       5,       4,   0x040
00:0000AC44 C13EC09B
00:0000AC48 E328ED25
00:0000AC4C 00000000
00:0000AC50 05000000
00:0000AC54 04000000
00:0000AC58 40000000
00:0000AC5C 1CD523B1        	  3014: .long    0xB123D51C, 0xAF3F50EE, 0xD7417278,       2,       3,       5,   0x040
00:0000AC60 EE503FAF
00:0000AC64 787241D7
00:0000AC68 02000000
00:0000AC6C 03000000
00:0000AC70 05000000
00:0000AC74 40000000
00:0000AC78 1DD523B1        	  3015: .long    0xB123D51D, 0xAF3F50EE, 0x28BE8D88,       3,       4,       5,   0x040
00:0000AC7C EE503FAF
00:0000AC80 888DBE28
00:0000AC84 03000000
00:0000AC88 04000000
00:0000AC8C 05000000
00:0000AC90 40000000
00:0000AC94 CDD865F7        	  3016: .long    0xF765D8CD, 0x73242236, 0xDF4FD176,       1,       2,       3,   0x088
00:0000AC98 36222473
00:0000AC9C 76D14FDF
00:0000ACA0 01000000
00:0000ACA4 02000000
00:0000ACA8 03000000
00:0000ACAC 88000000
00:0000ACB0 CDD865F7        	  3017: .long    0xF765D8CD, 0x73242236, 0x20B02E8A,       0,       3,       4,   0x088
00:0000ACB4 36222473
00:0000ACB8 8A2EB020
00:0000ACBC 00000000
00:0000ACC0 03000000
00:0000ACC4 04000000
00:0000ACC8 88000000
00:0000ACCC 00000000        	  3018: .long    0x00000000, 0x78000000, 0x00000000,       0,       1,       3,   0x044
00:0000ACD0 00000078
00:0000ACD4 00000000
00:0000ACD8 00000000
00:0000ACDC 01000000
00:0000ACE0 03000000
00:0000ACE4 44000000
00:0000ACE8 00000000        	  3019: .long    0x00000000, 0x78000000, 0x00000000,       6,       7,       8,   0xC80
00:0000ACEC 00000078
00:0000ACF0 00000000
00:0000ACF4 06000000
00:0000ACF8 07000000
00:0000ACFC 08000000
00:0000AD00 800C0000
                            	  3020: objectSmallLeafyTree:
00:0000AD04 0B000000        	  3021: .long    11
00:0000AD08 05000000        	  3022: .long    5
00:0000AD0C 94000000        	  3023: .long    objectSmallLeafyTreeFaces - objectSmallLeafyTree
00:0000AD10 02000000        	  3024: .long    0x2
                            	  3025: objectSmallLeafyTreeVertices:
00:0000AD14 00003000        	  3026: .long    0x00300000, 0xFE800000, 0x00300000
00:0000AD18 000080FE
00:0000AD1C 00003000
00:0000AD20 9A99D9FF        	  3027: .long    0xFFD9999A, 0x00000000, 0x00000000
00:0000AD24 00000000
00:0000AD28 00000000
00:0000AD2C 66662600        	  3028: .long    0x00266666, 0x00000000, 0x00000000
00:0000AD30 00000000
00:0000AD34 00000000
00:0000AD38 00000000        	  3029: .long    0x00000000, 0xFEF33334, 0xFF400000
00:0000AD3C 3433F3FE
00:0000AD40 000040FF
00:0000AD44 00008000        	  3030: .long    0x00800000, 0xFF400000, 0xFF800000
00:0000AD48 000040FF
00:0000AD4C 000080FF
00:0000AD50 000040FF        	  3031: .long    0xFF400000, 0xFECCCCCD, 0xFFD55556
00:0000AD54 CDCCCCFE
00:0000AD58 5655D5FF
00:0000AD5C 000080FF        	  3032: .long    0xFF800000, 0xFEA66667, 0x00400000
00:0000AD60 6766A6FE
00:0000AD64 00004000
00:0000AD68 00008000        	  3033: .long    0x00800000, 0xFE59999A, 0x002AAAAA
00:0000AD6C 9A9959FE
00:0000AD70 AAAA2A00
00:0000AD74 0000C000        	  3034: .long    0x00C00000, 0xFEA66667, 0xFFC00000
00:0000AD78 6766A6FE
00:0000AD7C 0000C0FF
00:0000AD80 0000A0FF        	  3035: .long    0xFFA00000, 0xFECCCCCD, 0x00999999
00:0000AD84 CDCCCCFE
00:0000AD88 99999900
00:0000AD8C 0000C000        	  3036: .long    0x00C00000, 0xFF400000, 0x00C00000
00:0000AD90 000040FF
00:0000AD94 0000C000
                            	  3037: objectSmallLeafyTreeFaces:
00:0000AD98 7318A014        	  3038: .long    0x14A01873, 0xAF8F9F93, 0x56A0681E,       0,       9,      10,   0x040
00:0000AD9C 939F8FAF
00:0000ADA0 1E68A056
00:0000ADA4 00000000
00:0000ADA8 09000000
00:0000ADAC 0A000000
00:0000ADB0 40000000
00:0000ADB4 00000000        	  3039: .long    0x00000000, 0x00000000, 0x00000000,       0,       1,       2,   0x400
00:0000ADB8 00000000
00:0000ADBC 00000000
00:0000ADC0 00000000
00:0000ADC4 01000000
00:0000ADC8 02000000
00:0000ADCC 00040000
00:0000ADD0 4E259A49        	  3040: .long    0x499A254E, 0xB123FC2C, 0xCB6D5299,       0,       3,       4,   0x080
00:0000ADD4 2CFC23B1
00:0000ADD8 99526DCB
00:0000ADDC 00000000
00:0000ADE0 03000000
00:0000ADE4 04000000
00:0000ADE8 80000000
00:0000ADEC BEEED2E4        	  3041: .long    0xE4D2EEBE, 0x8DC82837, 0xE72FE5E9,       0,       5,       6,   0x080
00:0000ADF0 3728C88D
00:0000ADF4 E9E52FE7
00:0000ADF8 00000000
00:0000ADFC 05000000
00:0000AE00 06000000
00:0000AE04 80000000
00:0000AE08 850571D5        	  3042: .long    0xD5710585, 0xB29EF364, 0xAEC07EB3,       0,       7,       8,   0x080
00:0000AE0C 64F39EB2
00:0000AE10 B37EC0AE
00:0000AE14 00000000
00:0000AE18 07000000
00:0000AE1C 08000000
00:0000AE20 80000000
                            	  3043: objectTallLeafyTree:
00:0000AE24 0E000000        	  3044: .long    14
00:0000AE28 06000000        	  3045: .long    6
00:0000AE2C B8000000        	  3046: .long    objectTallLeafyTreeFaces - objectTallLeafyTree
00:0000AE30 02000000        	  3047: .long    0x2
                            	  3048: objectTallLeafyTreeVertices:
00:0000AE34 6DDB3600        	  3049: .long    0x0036DB6D, 0xFD733334, 0x00300000
00:0000AE38 343373FD
00:0000AE3C 00003000
00:0000AE40 0000D0FF        	  3050: .long    0xFFD00000, 0x00000000, 0x00000000
00:0000AE44 00000000
00:0000AE48 00000000
00:0000AE4C 00003000        	  3051: .long    0x00300000, 0x00000000, 0x00000000
00:0000AE50 00000000
00:0000AE54 00000000
00:0000AE58 00000000        	  3052: .long    0x00000000, 0xFE0CCCCD, 0xFF400000
00:0000AE5C CDCC0CFE
00:0000AE60 000040FF
00:0000AE64 00008000        	  3053: .long    0x00800000, 0xFE59999A, 0xFF800000
00:0000AE68 9A9959FE
00:0000AE6C 000080FF
00:0000AE70 343353FF        	  3054: .long    0xFF533334, 0xFE333334, 0xFFC92493
00:0000AE74 343333FE
00:0000AE78 9324C9FF
00:0000AE7C 000040FF        	  3055: .long    0xFF400000, 0xFEA66667, 0x00600000
00:0000AE80 6766A6FE
00:0000AE84 00006000
00:0000AE88 00000000        	  3056: .long    0x00000000, 0xFF19999A, 0xFF666667
00:0000AE8C 9A9919FF
00:0000AE90 676666FF
00:0000AE94 000080FF        	  3057: .long    0xFF800000, 0xFF400000, 0xFFA00000
00:0000AE98 000040FF
00:0000AE9C 0000A0FF
00:0000AEA0 0000A0FF        	  3058: .long    0xFFA00000, 0xFE800000, 0x00999999
00:0000AEA4 000080FE
00:0000AEA8 99999900
00:0000AEAC 0000C000        	  3059: .long    0x00C00000, 0xFECCCCCD, 0x00C00000
00:0000AEB0 CDCCCCFE
00:0000AEB4 0000C000
00:0000AEB8 3433B3FF        	  3060: .long    0xFFB33334, 0xFF19999A, 0x00E66666
00:0000AEBC 9A9919FF
00:0000AEC0 6666E600
00:0000AEC4 00008000        	  3061: .long    0x00800000, 0xFF400000, 0x00C00000
00:0000AEC8 000040FF
00:0000AECC 0000C000
00:0000AED0 00003000        	  3062: .long    0x00300000, 0xFE59999A, 0x00300000
00:0000AED4 9A9959FE
00:0000AED8 00003000
                            	  3063: objectTallLeafyTreeFaces:
00:0000AEDC DD013DFD        	  3064: .long    0xFD3D01DD, 0xD2CB371E, 0x6F20024E,       0,       9,      10,   0x040
00:0000AEE0 1E37CBD2
00:0000AEE4 4E02206F
00:0000AEE8 00000000
00:0000AEEC 09000000
00:0000AEF0 0A000000
00:0000AEF4 40000000
00:0000AEF8 1A986F1E        	  3065: .long    0x1E6F981A, 0xBB105ECE, 0x5D638B16,      13,      11,      12,   0x080
00:0000AEFC CE5E10BB
00:0000AF00 168B635D
00:0000AF04 0D000000
00:0000AF08 0B000000
00:0000AF0C 0C000000
00:0000AF10 80000000
00:0000AF14 00000000        	  3066: .long    0x00000000, 0x00000000, 0x00000000,       0,       1,       2,   0x400
00:0000AF18 00000000
00:0000AF1C 00000000
00:0000AF20 00000000
00:0000AF24 01000000
00:0000AF28 02000000
00:0000AF2C 00040000
00:0000AF30 0965D949        	  3067: .long    0x49D96509, 0xB8E72762, 0xC19E3A19,       0,       3,       4,   0x080
00:0000AF34 6227E7B8
00:0000AF38 193A9EC1
00:0000AF3C 00000000
00:0000AF40 03000000
00:0000AF44 04000000
00:0000AF48 80000000
00:0000AF4C 743B21AD        	  3068: .long    0xAD213B74, 0xB641CA5D, 0x2DC40650,       0,       5,       6,   0x040
00:0000AF50 5DCA41B6
00:0000AF54 5006C42D
00:0000AF58 00000000
00:0000AF5C 05000000
00:0000AF60 06000000
00:0000AF64 40000000
00:0000AF68 512010C9        	  3069: .long    0xC9102051, 0xAC846CAD, 0xBD92A8C1,      13,       7,       8,   0x040
00:0000AF6C AD6C84AC
00:0000AF70 C1A892BD
00:0000AF74 0D000000
00:0000AF78 07000000
00:0000AF7C 08000000
00:0000AF80 40000000
                            	  3070: objectSmokingRemainsLeft:
00:0000AF84 05000000        	  3071: .long    5
00:0000AF88 02000000        	  3072: .long    2
00:0000AF8C 4C000000        	  3073: .long    objectSmokingRemainsLeftFaces - objectSmokingRemainsLeft
00:0000AF90 00000000        	  3074: .long    0x0
                            	  3075: objectSmokingRemainsLeftVertices:
00:0000AF94 9A99D9FF        	  3076: .long    0xFFD9999A, 0x00000000, 0x00000000
00:0000AF98 00000000
00:0000AF9C 00000000
00:0000AFA0 66662600        	  3077: .long    0x00266666, 0x00000000, 0x00000000
00:0000AFA4 00000000
00:0000AFA8 00000000
00:0000AFAC 33332B00        	  3078: .long    0x002B3333, 0xFFC00000, 0x00000000
00:0000AFB0 0000C0FF
00:0000AFB4 00000000
00:0000AFB8 00003000        	  3079: .long    0x00300000, 0xFF800000, 0x00000000
00:0000AFBC 000080FF
00:0000AFC0 00000000
00:0000AFC4 5655D5FF        	  3080: .long    0xFFD55556, 0xFECCCCCD, 0x00000000
00:0000AFC8 CDCCCCFE
00:0000AFCC 00000000
                            	  3081: objectSmokingRemainsLeftFaces:
00:0000AFD0 00000000        	  3082: .long    0x00000000, 0x00000000, 0x00000000,       0,       1,       3,   0x000
00:0000AFD4 00000000
00:0000AFD8 00000000
00:0000AFDC 00000000
00:0000AFE0 01000000
00:0000AFE4 03000000
00:0000AFE8 00000000
00:0000AFEC 00000000        	  3083: .long    0x00000000, 0x00000000, 0x00000000,       2,       3,       4,   0x000
00:0000AFF0 00000000
00:0000AFF4 00000000
00:0000AFF8 02000000
00:0000AFFC 03000000
00:0000B000 04000000
00:0000B004 00000000
                            	  3084: objectSmokingRemainsRight:
00:0000B008 05000000        	  3085: .long    5
00:0000B00C 02000000        	  3086: .long    2
00:0000B010 4C000000        	  3087: .long    objectSmokingRemainsRightFaces - objectSmokingRemainsRight
00:0000B014 00000000        	  3088: .long    0x0
                            	  3089: objectSmokingRemainsRightVertices:
00:0000B018 AAAA2A00        	  3090: .long    0x002AAAAA, 0x00000000, 0x00000000
00:0000B01C 00000000
00:0000B020 00000000
00:0000B024 5655D5FF        	  3091: .long    0xFFD55556, 0x00000000, 0x00000000
00:0000B028 00000000
00:0000B02C 00000000
00:0000B030 CDCCD4FF        	  3092: .long    0xFFD4CCCD, 0xFFD00000, 0x00000000
00:0000B034 0000D0FF
00:0000B038 00000000
00:0000B03C 0000D0FF        	  3093: .long    0xFFD00000, 0xFFA00000, 0x00000000
00:0000B040 0000A0FF
00:0000B044 00000000
00:0000B048 AAAA2A00        	  3094: .long    0x002AAAAA, 0xFEA66667, 0x00000000
00:0000B04C 6766A6FE
00:0000B050 00000000
                            	  3095: objectSmokingRemainsRightFaces:
00:0000B054 00000000        	  3096: .long    0x00000000, 0x00000000, 0x00000000,       0,       1,       3,   0x000
00:0000B058 00000000
00:0000B05C 00000000
00:0000B060 00000000
00:0000B064 01000000
00:0000B068 03000000
00:0000B06C 00000000
00:0000B070 00000000        	  3097: .long    0x00000000, 0x00000000, 0x00000000,       2,       3,       4,   0x000
00:0000B074 00000000
00:0000B078 00000000
00:0000B07C 02000000
00:0000B080 03000000
00:0000B084 04000000
00:0000B088 00000000
                            	  3098: objectFirTree:
00:0000B08C 05000000        	  3099: .long    5
00:0000B090 02000000        	  3100: .long    2
00:0000B094 4C000000        	  3101: .long    objectFirTreeFaces - objectFirTree
00:0000B098 02000000        	  3102: .long    0x2
                            	  3103: objectFirTreeVertices:
00:0000B09C 0000A0FF        	  3104: .long    0xFFA00000, 0xFFC92493, 0xFFC92493
00:0000B0A0 9324C9FF
00:0000B0A4 9324C9FF
00:0000B0A8 00006000        	  3105: .long    0x00600000, 0xFFC92493, 0xFFC92493
00:0000B0AC 9324C9FF
00:0000B0B0 9324C9FF
00:0000B0B4 00000000        	  3106: .long    0x00000000, 0xFE333334, 0x0036DB6D
00:0000B0B8 343333FE
00:0000B0BC 6DDB3600
00:0000B0C0 66662600        	  3107: .long    0x00266666, 0x00000000, 0x00000000
00:0000B0C4 00000000
00:0000B0C8 00000000
00:0000B0CC 9A99D9FF        	  3108: .long    0xFFD9999A, 0x00000000, 0x00000000
00:0000B0D0 00000000
00:0000B0D4 00000000
                            	  3109: objectFirTreeFaces:
00:0000B0D8 00000000        	  3110: .long    0x00000000, 0x00000000, 0x00000000,       2,       3,       4,   0x400
00:0000B0DC 00000000
00:0000B0E0 00000000
00:0000B0E4 02000000
00:0000B0E8 03000000
00:0000B0EC 04000000
00:0000B0F0 00040000
00:0000B0F4 00000000        	  3111: .long    0x00000000, 0xE0B0E050, 0x8C280943,       0,       1,       2,   0x040
00:0000B0F8 50E0B0E0
00:0000B0FC 4309288C
00:0000B100 00000000
00:0000B104 01000000
00:0000B108 02000000
00:0000B10C 40000000
                            	  3112: objectGazebo:
00:0000B110 0D000000        	  3113: .long    13
00:0000B114 08000000        	  3114: .long    8
00:0000B118 AC000000        	  3115: .long    objectGazeboFaces - objectGazebo
00:0000B11C 02000000        	  3116: .long    0x2
                            	  3117: objectGazeboVertices:
00:0000B120 00000000        	  3118: .long    0x00000000, 0xFF000000, 0x00000000
00:0000B124 000000FF
00:0000B128 00000000
00:0000B12C 000080FF        	  3119: .long    0xFF800000, 0xFF400000, 0x00800000
00:0000B130 000040FF
00:0000B134 00008000
00:0000B138 000080FF        	  3120: .long    0xFF800000, 0xFF400000, 0xFF800000
00:0000B13C 000040FF
00:0000B140 000080FF
00:0000B144 00008000        	  3121: .long    0x00800000, 0xFF400000, 0xFF800000
00:0000B148 000040FF
00:0000B14C 000080FF
00:0000B150 00008000        	  3122: .long    0x00800000, 0xFF400000, 0x00800000
00:0000B154 000040FF
00:0000B158 00008000
00:0000B15C 000080FF        	  3123: .long    0xFF800000, 0x00000000, 0x00800000
00:0000B160 00000000
00:0000B164 00008000
00:0000B168 000080FF        	  3124: .long    0xFF800000, 0x00000000, 0xFF800000
00:0000B16C 00000000
00:0000B170 000080FF
00:0000B174 00008000        	  3125: .long    0x00800000, 0x00000000, 0xFF800000
00:0000B178 00000000
00:0000B17C 000080FF
00:0000B180 00008000        	  3126: .long    0x00800000, 0x00000000, 0x00800000
00:0000B184 00000000
00:0000B188 00008000
00:0000B18C 9A9999FF        	  3127: .long    0xFF99999A, 0xFF400000, 0x00800000
00:0000B190 000040FF
00:0000B194 00008000
00:0000B198 9A9999FF        	  3128: .long    0xFF99999A, 0xFF400000, 0xFF800000
00:0000B19C 000040FF
00:0000B1A0 000080FF
00:0000B1A4 66666600        	  3129: .long    0x00666666, 0xFF400000, 0xFF800000
00:0000B1A8 000040FF
00:0000B1AC 000080FF
00:0000B1B0 66666600        	  3130: .long    0x00666666, 0xFF400000, 0x00800000
00:0000B1B4 000040FF
00:0000B1B8 00008000
                            	  3131: objectGazeboFaces:
00:0000B1BC 00000000        	  3132: .long    0x00000000, 0x00000000, 0x78000000,       1,       5,       9,   0x444
00:0000B1C0 00000000
00:0000B1C4 00000078
00:0000B1C8 01000000
00:0000B1CC 05000000
00:0000B1D0 09000000
00:0000B1D4 44040000
00:0000B1D8 00000000        	  3133: .long    0x00000000, 0x00000000, 0x88000000,       2,       6,      10,   0x444
00:0000B1DC 00000000
00:0000B1E0 00000088
00:0000B1E4 02000000
00:0000B1E8 06000000
00:0000B1EC 0A000000
00:0000B1F0 44040000
00:0000B1F4 00000000        	  3134: .long    0x00000000, 0x94AB325B, 0x35AA66D2,       0,       1,       4,   0x400
00:0000B1F8 5B32AB94
00:0000B1FC D266AA35
00:0000B200 00000000
00:0000B204 01000000
00:0000B208 04000000
00:0000B20C 00040000
00:0000B210 00000000        	  3135: .long    0x00000000, 0x00000000, 0x88000000,       3,       7,      11,   0x444
00:0000B214 00000000
00:0000B218 00000088
00:0000B21C 03000000
00:0000B220 07000000
00:0000B224 0B000000
00:0000B228 44040000
00:0000B22C 00000000        	  3136: .long    0x00000000, 0x00000000, 0x78000000,       4,       8,      12,   0x444
00:0000B230 00000000
00:0000B234 00000078
00:0000B238 04000000
00:0000B23C 08000000
00:0000B240 0C000000
00:0000B244 44040000
00:0000B248 2E9955CA        	  3137: .long    0xCA55992E, 0x94AB325B, 0x00000000,       0,       1,       2,   0x840
00:0000B24C 5B32AB94
00:0000B250 00000000
00:0000B254 00000000
00:0000B258 01000000
00:0000B25C 02000000
00:0000B260 40080000
00:0000B264 D266AA35        	  3138: .long    0x35AA66D2, 0x94AB325B, 0x00000000,       0,       3,       4,   0x840
00:0000B268 5B32AB94
00:0000B26C 00000000
00:0000B270 00000000
00:0000B274 03000000
00:0000B278 04000000
00:0000B27C 40080000
00:0000B280 00000000        	  3139: .long    0x00000000, 0x94AB325B, 0xCA55992E,       0,       2,       3,   0x400
00:0000B284 5B32AB94
00:0000B288 2E9955CA
00:0000B28C 00000000
00:0000B290 02000000
00:0000B294 03000000
00:0000B298 00040000
                            	  3140: objectBuilding:
00:0000B29C 10000000        	  3141: .long    16
00:0000B2A0 0C000000        	  3142: .long    12
00:0000B2A4 D0000000        	  3143: .long    objectBuildingFaces - objectBuilding
00:0000B2A8 00000000        	  3144: .long    0x0
                            	  3145: objectBuildingVertices:
00:0000B2AC 9A9919FF        	  3146: .long    0xFF19999A, 0xFF266667, 0x00000000
00:0000B2B0 676626FF
00:0000B2B4 00000000
00:0000B2B8 000040FF        	  3147: .long    0xFF400000, 0xFF266667, 0x00000000
00:0000B2BC 676626FF
00:0000B2C0 00000000
00:0000B2C4 0000C000        	  3148: .long    0x00C00000, 0xFF266667, 0x00000000
00:0000B2C8 676626FF
00:0000B2CC 00000000
00:0000B2D0 6666E600        	  3149: .long    0x00E66666, 0xFF266667, 0x00000000
00:0000B2D4 676626FF
00:0000B2D8 00000000
00:0000B2DC 9A9919FF        	  3150: .long    0xFF19999A, 0xFF8CCCCD, 0x00A66666
00:0000B2E0 CDCC8CFF
00:0000B2E4 6666A600
00:0000B2E8 9A9919FF        	  3151: .long    0xFF19999A, 0xFF8CCCCD, 0xFF59999A
00:0000B2EC CDCC8CFF
00:0000B2F0 9A9959FF
00:0000B2F4 6666E600        	  3152: .long    0x00E66666, 0xFF8CCCCD, 0x00A66666
00:0000B2F8 CDCC8CFF
00:0000B2FC 6666A600
00:0000B300 6666E600        	  3153: .long    0x00E66666, 0xFF8CCCCD, 0xFF59999A
00:0000B304 CDCC8CFF
00:0000B308 9A9959FF
00:0000B30C 000040FF        	  3154: .long    0xFF400000, 0xFF666667, 0x00800000
00:0000B310 676666FF
00:0000B314 00008000
00:0000B318 000040FF        	  3155: .long    0xFF400000, 0xFF666667, 0xFF800000
00:0000B31C 676666FF
00:0000B320 000080FF
00:0000B324 0000C000        	  3156: .long    0x00C00000, 0xFF666667, 0x00800000
00:0000B328 676666FF
00:0000B32C 00008000
00:0000B330 0000C000        	  3157: .long    0x00C00000, 0xFF666667, 0xFF800000
00:0000B334 676666FF
00:0000B338 000080FF
00:0000B33C 000040FF        	  3158: .long    0xFF400000, 0x00000000, 0x00800000
00:0000B340 00000000
00:0000B344 00008000
00:0000B348 000040FF        	  3159: .long    0xFF400000, 0x00000000, 0xFF800000
00:0000B34C 00000000
00:0000B350 000080FF
00:0000B354 0000C000        	  3160: .long    0x00C00000, 0x00000000, 0x00800000
00:0000B358 00000000
00:0000B35C 00008000
00:0000B360 0000C000        	  3161: .long    0x00C00000, 0x00000000, 0xFF800000
00:0000B364 00000000
00:0000B368 000080FF
                            	  3162: objectBuildingFaces:
00:0000B36C 00000000        	  3163: .long    0x00000000, 0x99CD0E6D, 0x3EE445CC,       0,       4,       6,   0x400
00:0000B370 6D0ECD99
00:0000B374 CC45E43E
00:0000B378 00000000
00:0000B37C 04000000
00:0000B380 06000000
00:0000B384 00040000
00:0000B388 00000000        	  3164: .long    0x00000000, 0x99CD0E6D, 0x3EE445CC,       0,       3,       6,   0x400
00:0000B38C 6D0ECD99
00:0000B390 CC45E43E
00:0000B394 00000000
00:0000B398 03000000
00:0000B39C 06000000
00:0000B3A0 00040000
00:0000B3A4 00000088        	  3165: .long    0x88000000, 0x00000000, 0x00000000,       1,       8,       9,   0xDDD
00:0000B3A8 00000000
00:0000B3AC 00000000
00:0000B3B0 01000000
00:0000B3B4 08000000
00:0000B3B8 09000000
00:0000B3BC DD0D0000
00:0000B3C0 00000078        	  3166: .long    0x78000000, 0x00000000, 0x00000000,       2,      10,      11,   0x555
00:0000B3C4 00000000
00:0000B3C8 00000000
00:0000B3CC 02000000
00:0000B3D0 0A000000
00:0000B3D4 0B000000
00:0000B3D8 55050000
00:0000B3DC 00000088        	  3167: .long    0x88000000, 0x00000000, 0x00000000,       8,      12,      13,   0xFFF
00:0000B3E0 00000000
00:0000B3E4 00000000
00:0000B3E8 08000000
00:0000B3EC 0C000000
00:0000B3F0 0D000000
00:0000B3F4 FF0F0000
00:0000B3F8 00000088        	  3168: .long    0x88000000, 0x00000000, 0x00000000,       8,       9,      13,   0xFFF
00:0000B3FC 00000000
00:0000B400 00000000
00:0000B404 08000000
00:0000B408 09000000
00:0000B40C 0D000000
00:0000B410 FF0F0000
00:0000B414 00000078        	  3169: .long    0x78000000, 0x00000000, 0x00000000,      10,      14,      15,   0x777
00:0000B418 00000000
00:0000B41C 00000000
00:0000B420 0A000000
00:0000B424 0E000000
00:0000B428 0F000000
00:0000B42C 77070000
00:0000B430 00000078        	  3170: .long    0x78000000, 0x00000000, 0x00000000,      10,      11,      15,   0x777
00:0000B434 00000000
00:0000B438 00000000
00:0000B43C 0A000000
00:0000B440 0B000000
00:0000B444 0F000000
00:0000B448 77070000
00:0000B44C 00000000        	  3171: .long    0x00000000, 0x00000000, 0x88000000,       9,      13,      15,   0xBBB
00:0000B450 00000000
00:0000B454 00000088
00:0000B458 09000000
00:0000B45C 0D000000
00:0000B460 0F000000
00:0000B464 BB0B0000
00:0000B468 00000000        	  3172: .long    0x00000000, 0x00000000, 0x88000000,       9,      11,      15,   0xBBB
00:0000B46C 00000000
00:0000B470 00000088
00:0000B474 09000000
00:0000B478 0B000000
00:0000B47C 0F000000
00:0000B480 BB0B0000
00:0000B484 00000000        	  3173: .long    0x00000000, 0x99CD0E6D, 0xC11BBA34,       0,       5,       7,   0x800
00:0000B488 6D0ECD99
00:0000B48C 34BA1BC1
00:0000B490 00000000
00:0000B494 05000000
00:0000B498 07000000
00:0000B49C 00080000
00:0000B4A0 00000000        	  3174: .long    0x00000000, 0x99CD0E6D, 0xC11BBA34,       0,       3,       7,   0x800
00:0000B4A4 6D0ECD99
00:0000B4A8 34BA1BC1
00:0000B4AC 00000000
00:0000B4B0 03000000
00:0000B4B4 07000000
00:0000B4B8 00080000
                            	  3175: objectSmokingBuilding:
00:0000B4BC 06000000        	  3176: .long    6
00:0000B4C0 06000000        	  3177: .long    6
00:0000B4C4 58000000        	  3178: .long    objectSmokingBuildingFaces - objectSmokingBuilding
00:0000B4C8 00000000        	  3179: .long    0x0
                            	  3180: objectSmokingBuildingVertices:
00:0000B4CC 000040FF        	  3181: .long    0xFF400000, 0x00000001, 0x00800000
00:0000B4D0 01000000
00:0000B4D4 00008000
00:0000B4D8 000040FF        	  3182: .long    0xFF400000, 0x00000001, 0xFF800000
00:0000B4DC 01000000
00:0000B4E0 000080FF
00:0000B4E4 0000C000        	  3183: .long    0x00C00000, 0x00000001, 0x00800000
00:0000B4E8 01000000
00:0000B4EC 00008000
00:0000B4F0 0000C000        	  3184: .long    0x00C00000, 0x00000001, 0xFF800000
00:0000B4F4 01000000
00:0000B4F8 000080FF
00:0000B4FC 000040FF        	  3185: .long    0xFF400000, 0xFF99999A, 0x00800000
00:0000B500 9A9999FF
00:0000B504 00008000
00:0000B508 0000C000        	  3186: .long    0x00C00000, 0xFFB33334, 0xFF800000
00:0000B50C 3433B3FF
00:0000B510 000080FF
                            	  3187: objectSmokingBuildingFaces:
00:0000B514 00000000        	  3188: .long    0x00000000, 0x78000000, 0x00000000,       0,       1,       2,   0x000
00:0000B518 00000078
00:0000B51C 00000000
00:0000B520 00000000
00:0000B524 01000000
00:0000B528 02000000
00:0000B52C 00000000
00:0000B530 00000000        	  3189: .long    0x00000000, 0x78000000, 0x00000000,       1,       2,       3,   0x000
00:0000B534 00000078
00:0000B538 00000000
00:0000B53C 01000000
00:0000B540 02000000
00:0000B544 03000000
00:0000B548 00000000
00:0000B54C 00000000        	  3190: .long    0x00000000, 0x00000000, 0x78000000,       0,       2,       4,   0x333
00:0000B550 00000000
00:0000B554 00000078
00:0000B558 00000000
00:0000B55C 02000000
00:0000B560 04000000
00:0000B564 33030000
00:0000B568 00000088        	  3191: .long    0x88000000, 0x00000000, 0x00000000,       0,       1,       4,   0x666
00:0000B56C 00000000
00:0000B570 00000000
00:0000B574 00000000
00:0000B578 01000000
00:0000B57C 04000000
00:0000B580 66060000
00:0000B584 00000078        	  3192: .long    0x78000000, 0x00000000, 0x00000000,       2,       3,       5,   0x555
00:0000B588 00000000
00:0000B58C 00000000
00:0000B590 02000000
00:0000B594 03000000
00:0000B598 05000000
00:0000B59C 55050000
00:0000B5A0 00000000        	  3193: .long    0x00000000, 0x00000000, 0x88000001,       1,       3,       5,   0x777
00:0000B5A4 00000000
00:0000B5A8 01000088
00:0000B5AC 01000000
00:0000B5B0 03000000
00:0000B5B4 05000000
00:0000B5B8 77070000
                            	  3194: objectSmokingGazebo:
00:0000B5BC 06000000        	  3195: .long    6
00:0000B5C0 04000000        	  3196: .long    4
00:0000B5C4 58000000        	  3197: .long    objectSmokingGazeboFaces - objectSmokingGazebo
00:0000B5C8 02000000        	  3198: .long    0x2
                            	  3199: objectSmokingGazeboVertices:
00:0000B5CC 00000000        	  3200: .long    0x00000000, 0xFF8CCCCD, 0xFFF00000
00:0000B5D0 CDCC8CFF
00:0000B5D4 0000F0FF
00:0000B5D8 99991900        	  3201: .long    0x00199999, 0xFF8CCCCD, 0xFFF00000
00:0000B5DC CDCC8CFF
00:0000B5E0 0000F0FF
00:0000B5E4 00008000        	  3202: .long    0x00800000, 0x00000000, 0x00800000
00:0000B5E8 00000000
00:0000B5EC 00008000
00:0000B5F0 000080FF        	  3203: .long    0xFF800000, 0x00000000, 0x00800000
00:0000B5F4 00000000
00:0000B5F8 00008000
00:0000B5FC 00008000        	  3204: .long    0x00800000, 0x00000000, 0xFF800000
00:0000B600 00000000
00:0000B604 000080FF
00:0000B608 000080FF        	  3205: .long    0xFF800000, 0x00000000, 0xFF800000
00:0000B60C 00000000
00:0000B610 000080FF
                            	  3206: objectSmokingGazeboFaces:
00:0000B614 00000000        	  3207: .long    0x00000000, 0xA24BB5BE, 0x4AF6A1AD,       0,       1,       2,   0x000
00:0000B618 BEB54BA2
00:0000B61C ADA1F64A
00:0000B620 00000000
00:0000B624 01000000
00:0000B628 02000000
00:0000B62C 00000000
00:0000B630 00000000        	  3208: .long    0x00000000, 0xA24BB5BE, 0x4AF6A1AD,       0,       1,       3,   0x333
00:0000B634 BEB54BA2
00:0000B638 ADA1F64A
00:0000B63C 00000000
00:0000B640 01000000
00:0000B644 03000000
00:0000B648 33030000
00:0000B64C 00000000        	  3209: .long    0x00000000, 0xAC59C060, 0xA9F5EA98,       0,       1,       4,   0x444
00:0000B650 60C059AC
00:0000B654 98EAF5A9
00:0000B658 00000000
00:0000B65C 01000000
00:0000B660 04000000
00:0000B664 44040000
00:0000B668 00000000        	  3210: .long    0x00000000, 0xAC59C060, 0xA9F5EA98,       0,       1,       5,   0x000
00:0000B66C 60C059AC
00:0000B670 98EAF5A9
00:0000B674 00000000
00:0000B678 01000000
00:0000B67C 05000000
00:0000B680 00000000
                            	  3211: objectRocket:
00:0000B684 0D000000        	  3212: .long    13
00:0000B688 08000000        	  3213: .long    8
00:0000B68C AC000000        	  3214: .long    objectRocketFaces - objectRocket
00:0000B690 02000000        	  3215: .long    0x2
                            	  3216: objectRocketVertices:
00:0000B694 00000000        	  3217: .long    0x00000000, 0xFE400000, 0x00000000
00:0000B698 000040FE
00:0000B69C 00000000
00:0000B6A0 0000C8FF        	  3218: .long    0xFFC80000, 0xFFD745D2, 0x00380000
00:0000B6A4 D245D7FF
00:0000B6A8 00003800
00:0000B6AC 0000C8FF        	  3219: .long    0xFFC80000, 0xFFD745D2, 0xFFC80000
00:0000B6B0 D245D7FF
00:0000B6B4 0000C8FF
00:0000B6B8 00003800        	  3220: .long    0x00380000, 0xFFD745D2, 0x00380000
00:0000B6BC D245D7FF
00:0000B6C0 00003800
00:0000B6C4 00003800        	  3221: .long    0x00380000, 0xFFD745D2, 0xFFC80000
00:0000B6C8 D245D7FF
00:0000B6CC 0000C8FF
00:0000B6D0 000090FF        	  3222: .long    0xFF900000, 0x00000000, 0x00700000
00:0000B6D4 00000000
00:0000B6D8 00007000
00:0000B6DC 000090FF        	  3223: .long    0xFF900000, 0x00000000, 0xFF900000
00:0000B6E0 00000000
00:0000B6E4 000090FF
00:0000B6E8 00007000        	  3224: .long    0x00700000, 0x00000000, 0x00700000
00:0000B6EC 00000000
00:0000B6F0 00007000
00:0000B6F4 00007000        	  3225: .long    0x00700000, 0x00000000, 0xFF900000
00:0000B6F8 00000000
00:0000B6FC 000090FF
00:0000B700 0000E4FF        	  3226: .long    0xFFE40000, 0xFF071C72, 0x001C0000
00:0000B704 721C07FF
00:0000B708 00001C00
00:0000B70C 0000E4FF        	  3227: .long    0xFFE40000, 0xFF071C72, 0xFFE40000
00:0000B710 721C07FF
00:0000B714 0000E4FF
00:0000B718 00001C00        	  3228: .long    0x001C0000, 0xFF071C72, 0x001C0000
00:0000B71C 721C07FF
00:0000B720 00001C00
00:0000B724 00001C00        	  3229: .long    0x001C0000, 0xFF071C72, 0xFFE40000
00:0000B728 721C07FF
00:0000B72C 0000E4FF
                            	  3230: objectRocketFaces:
00:0000B730 00000000        	  3231: .long    0x00000000, 0x00000000, 0x00000000,       9,       1,       5,   0xCC0
00:0000B734 00000000
00:0000B738 00000000
00:0000B73C 09000000
00:0000B740 01000000
00:0000B744 05000000
00:0000B748 C00C0000
00:0000B74C 00000000        	  3232: .long    0x00000000, 0x00000000, 0x00000000,      11,       3,       7,   0xCC0
00:0000B750 00000000
00:0000B754 00000000
00:0000B758 0B000000
00:0000B75C 03000000
00:0000B760 07000000
00:0000B764 C00C0000
00:0000B768 00000000        	  3233: .long    0x00000000, 0xEFA75F67, 0x76E1A76B,       0,       1,       3,   0xC00
00:0000B76C 675FA7EF
00:0000B770 6BA7E176
00:0000B774 00000000
00:0000B778 01000000
00:0000B77C 03000000
00:0000B780 000C0000
00:0000B784 95581E89        	  3234: .long    0x891E5895, 0xEFA75F67, 0x00000000,       0,       1,       2,   0x800
00:0000B788 675FA7EF
00:0000B78C 00000000
00:0000B790 00000000
00:0000B794 01000000
00:0000B798 02000000
00:0000B79C 00080000
00:0000B7A0 6BA7E176        	  3235: .long    0x76E1A76B, 0xEFA75F67, 0x00000000,       3,       0,       4,   0x800
00:0000B7A4 675FA7EF
00:0000B7A8 00000000
00:0000B7AC 03000000
00:0000B7B0 00000000
00:0000B7B4 04000000
00:0000B7B8 00080000
00:0000B7BC 00000000        	  3236: .long    0x00000000, 0xEFA75F67, 0x891E5895,       0,       2,       4,   0xC00
00:0000B7C0 675FA7EF
00:0000B7C4 95581E89
00:0000B7C8 00000000
00:0000B7CC 02000000
00:0000B7D0 04000000
00:0000B7D4 000C0000
00:0000B7D8 00000000        	  3237: .long    0x00000000, 0x00000000, 0x00000000,      10,       2,       6,   0xCC0
00:0000B7DC 00000000
00:0000B7E0 00000000
00:0000B7E4 0A000000
00:0000B7E8 02000000
00:0000B7EC 06000000
00:0000B7F0 C00C0000
00:0000B7F4 00000000        	  3238: .long    0x00000000, 0x00000000, 0x00000000,      12,       4,       8,   0xCC0
00:0000B7F8 00000000
00:0000B7FC 00000000
00:0000B800 0C000000
00:0000B804 04000000
00:0000B808 08000000
00:0000B80C C00C0000
                            	  3239: sinTable:
00:0000B810 00000000        	  3240: .long     0x00000000, 0x00C90F87, 0x01921D1F, 0x025B26D7
00:0000B814 870FC900
00:0000B818 1F1D9201
00:0000B81C D7265B02
00:0000B820 BE2A2403        	  3241: .long     0x03242ABE, 0x03ED26E6, 0x04B6195D, 0x057F0034
00:0000B824 E626ED03
00:0000B828 5D19B604
00:0000B82C 34007F05
00:0000B830 7CD94706        	  3242: .long     0x0647D97C, 0x0710A344, 0x07D95B9E, 0x08A2009A
00:0000B834 44A31007
00:0000B838 9E5BD907
00:0000B83C 9A00A208
00:0000B840 49906A09        	  3243: .long     0x096A9049, 0x0A3308BC, 0x0AFB6805, 0x0BC3AC35
00:0000B844 BC08330A
00:0000B848 0568FB0A
00:0000B84C 35ACC30B
00:0000B850 5DD38B0C        	  3244: .long     0x0C8BD35D, 0x0D53DB92, 0x0E1BC2E3, 0x0EE38765
00:0000B854 92DB530D
00:0000B858 E3C21B0E
00:0000B85C 6587E30E
00:0000B860 2B27AB0F        	  3245: .long     0x0FAB272B, 0x1072A047, 0x1139F0CE, 0x120116D4
00:0000B864 47A07210
00:0000B868 CEF03911
00:0000B86C D4160112
00:0000B870 6E10C812        	  3246: .long     0x12C8106E, 0x138EDBB0, 0x145576B1, 0x151BDF85
00:0000B874 B0DB8E13
00:0000B878 B1765514
00:0000B87C 85DF1B15
00:0000B880 4414E215        	  3247: .long     0x15E21444, 0x16A81304, 0x176DD9DE, 0x183366E8
00:0000B884 0413A816
00:0000B888 DED96D17
00:0000B88C E8663318
00:0000B890 3CB8F818        	  3248: .long     0x18F8B83C, 0x19BDCBF2, 0x1A82A025, 0x1B4732EE
00:0000B894 F2CBBD19
00:0000B898 25A0821A
00:0000B89C EE32471B
00:0000B8A0 6A820B1C        	  3249: .long     0x1C0B826A, 0x1CCF8CB2, 0x1D934FE4, 0x1E56CA1D
00:0000B8A4 B28CCF1C
00:0000B8A8 E44F931D
00:0000B8AC 1DCA561E
00:0000B8B0 7AF9191F        	  3250: .long     0x1F19F97A, 0x1FDCDC1A, 0x209F701C, 0x2161B39F
00:0000B8B4 1ADCDC1F
00:0000B8B8 1C709F20
00:0000B8BC 9FB36121
00:0000B8C0 C5A42322        	  3251: .long     0x2223A4C5, 0x22E541AE, 0x23A6887E, 0x24677757
00:0000B8C4 AE41E522
00:0000B8C8 7E88A623
00:0000B8CC 57776724
00:0000B8D0 5D0C2825        	  3252: .long     0x25280C5D, 0x25E845B5, 0x26A82185, 0x27679DF3
00:0000B8D4 B545E825
00:0000B8D8 8521A826
00:0000B8DC F39D6727
00:0000B8E0 28B92628        	  3253: .long     0x2826B928, 0x28E5714A, 0x29A3C484, 0x2A61B101
00:0000B8E4 4A71E528
00:0000B8E8 84C4A329
00:0000B8EC 01B1612A
00:0000B8F0 EB341F2B        	  3254: .long     0x2B1F34EB, 0x2BDC4E6E, 0x2C98FBBA, 0x2D553AFB
00:0000B8F4 6E4EDC2B
00:0000B8F8 BAFB982C
00:0000B8FC FB3A552D
00:0000B900 610A112E        	  3255: .long     0x2E110A61, 0x2ECC681D, 0x2F875262, 0x3041C760
00:0000B904 1D68CC2E
00:0000B908 6252872F
00:0000B90C 60C74130
00:0000B910 4CC5FB30        	  3256: .long     0x30FBC54C, 0x31B54A5D, 0x326E54C6, 0x3326E2C2
00:0000B914 5D4AB531
00:0000B918 C6546E32
00:0000B91C C2E22633
00:0000B920 86F2DE33        	  3257: .long     0x33DEF286, 0x3496824F, 0x354D9056, 0x36041AD8
00:0000B924 4F829634
00:0000B928 56904D35
00:0000B92C D81A0436
00:0000B930 1320BA36        	  3258: .long     0x36BA2013, 0x376F9E45, 0x382493AF, 0x38D8FE92
00:0000B934 459E6F37
00:0000B938 AF932438
00:0000B93C 92FED838
00:0000B940 31DD8C39        	  3259: .long     0x398CDD31, 0x3A402DD1, 0x3AF2EEB6, 0x3BA51E28
00:0000B944 D12D403A
00:0000B948 B6EEF23A
00:0000B94C 281EA53B
00:0000B950 6FBA563C        	  3260: .long     0x3C56BA6F, 0x3D07C1D5, 0x3DB832A5, 0x3E680B2C
00:0000B954 D5C1073D
00:0000B958 A532B83D
00:0000B95C 2C0B683E
00:0000B960 B749173F        	  3261: .long     0x3F1749B7, 0x3FC5EC97, 0x4073F21C, 0x4121589A
00:0000B964 97ECC53F
00:0000B968 1CF27340
00:0000B96C 9A582141
00:0000B970 631ECE41        	  3262: .long     0x41CE1E63, 0x427A41D0, 0x4325C135, 0x43D09AEC
00:0000B974 D0417A42
00:0000B978 35C12543
00:0000B97C EC9AD043
00:0000B980 4FCD7A44        	  3263: .long     0x447ACD4F, 0x452456BC, 0x45CD358E, 0x46756827
00:0000B984 BC562445
00:0000B988 8E35CD45
00:0000B98C 27687546
00:0000B990 E6EC1C47        	  3264: .long     0x471CECE6, 0x47C3C22E, 0x4869E664, 0x490F57ED
00:0000B994 2EC2C347
00:0000B998 64E66948
00:0000B99C ED570F49
00:0000B9A0 3315B449        	  3265: .long     0x49B41533, 0x4A581C9D, 0x4AFB6C97, 0x4B9E038E
00:0000B9A4 9D1C584A
00:0000B9A8 976CFB4A
00:0000B9AC 8E039E4B
00:0000B9B0 F3DF3F4C        	  3266: .long     0x4C3FDFF3, 0x4CE10033, 0x4D8162C3, 0x4E210616
00:0000B9B4 3300E14C
00:0000B9B8 C362814D
00:0000B9BC 1606214E
00:0000B9C0 A4E8BF4E        	  3267: .long     0x4EBFE8A4, 0x4F5E08E2, 0x4FFB654C, 0x5097FC5D
00:0000B9C4 E2085E4F
00:0000B9C8 4C65FB4F
00:0000B9CC 5DFC9750
00:0000B9D0 93CC3351        	  3268: .long     0x5133CC93, 0x51CED46D, 0x5269126D, 0x53028517
00:0000B9D4 6DD4CE51
00:0000B9D8 6D126952
00:0000B9DC 17850253
00:0000B9E0 EF2A9B53        	  3269: .long     0x539B2AEF, 0x5433027C, 0x54CA0A49, 0x556040E2
00:0000B9E4 7C023354
00:0000B9E8 490ACA54
00:0000B9EC E2406055
00:0000B9F0 D1A4F555        	  3270: .long     0x55F5A4D1, 0x568A34A8, 0x571DEEF8, 0x57B0D255
00:0000B9F4 A8348A56
00:0000B9F8 F8EE1D57
00:0000B9FC 55D2B057
00:0000BA00 53DD4258        	  3271: .long     0x5842DD53, 0x58D40E8B, 0x59646497, 0x59F3DE11
00:0000BA04 8B0ED458
00:0000BA08 97646459
00:0000BA0C 11DEF359
00:0000BA10 9979825A        	  3272: .long     0x5A827999, 0x5B1035CE, 0x5B9D1153, 0x5C290ACB
00:0000BA14 CE35105B
00:0000BA18 53119D5B
00:0000BA1C CB0A295C
00:0000BA20 DF20B45C        	  3273: .long     0x5CB420DF, 0x5D3E5236, 0x5DC79D7B, 0x5E50015C
00:0000BA24 36523E5D
00:0000BA28 7B9DC75D
00:0000BA2C 5C01505E
00:0000BA30 897CD75E        	  3274: .long     0x5ED77C89, 0x5F5E0DB2, 0x5FE3B38C, 0x60686CCD
00:0000BA34 B20D5E5F
00:0000BA38 8CB3E35F
00:0000BA3C CD6C6860
00:0000BA40 2E38EC60        	  3275: .long     0x60EC382E, 0x616F146A, 0x61F1003E, 0x6271FA68
00:0000BA44 6A146F61
00:0000BA48 3E00F161
00:0000BA4C 68FA7162
00:0000BA50 AB01F262        	  3276: .long     0x62F201AB, 0x637114CB, 0x63EF328E, 0x646C59BE
00:0000BA54 CB147163
00:0000BA58 8E32EF63
00:0000BA5C BE596C64
00:0000BA60 2589E864        	  3277: .long     0x64E88925, 0x6563BF91, 0x65DDFBD2, 0x66573CBA
00:0000BA64 91BF6365
00:0000BA68 D2FBDD65
00:0000BA6C BA3C5766
00:0000BA70 1E81CF66        	  3278: .long     0x66CF811E, 0x6746C7D6, 0x67BD0FBB, 0x683257A9
00:0000BA74 D6C74667
00:0000BA78 BB0FBD67
00:0000BA7C A9573268
00:0000BA80 809EA668        	  3279: .long     0x68A69E80, 0x6919E31F, 0x698C246B, 0x69FD6149
00:0000BA84 1FE31969
00:0000BA88 6B248C69
00:0000BA8C 4961FD69
00:0000BA90 A3986D6A        	  3280: .long     0x6A6D98A3, 0x6ADCC963, 0x6B4AF277, 0x6BB812CF
00:0000BA94 63C9DC6A
00:0000BA98 77F24A6B
00:0000BA9C CF12B86B
00:0000BAA0 5F29246C        	  3281: .long     0x6C24295F, 0x6C8F351A, 0x6CF934FB, 0x6D6227F9
00:0000BAA4 1A358F6C
00:0000BAA8 FB34F96C
00:0000BAAC F927626D
00:0000BAB0 130DCA6D        	  3282: .long     0x6DCA0D13, 0x6E30E349, 0x6E96A99C, 0x6EFB5F11
00:0000BAB4 49E3306E
00:0000BAB8 9CA9966E
00:0000BABC 115FFB6E
00:0000BAC0 B1025F6F        	  3283: .long     0x6F5F02B1, 0x6FC19384, 0x70231098, 0x708378FE
00:0000BAC4 8493C16F
00:0000BAC8 98102370
00:0000BACC FE788370
00:0000BAD0 C5CBE270        	  3284: .long     0x70E2CBC5, 0x71410803, 0x719E2CD1, 0x71FA3947
00:0000BAD4 03084171
00:0000BAD8 D12C9E71
00:0000BADC 4739FA71
00:0000BAE0 842C5572        	  3285: .long     0x72552C84, 0x72AF05A6, 0x7307C3CF, 0x735F6625
00:0000BAE4 A605AF72
00:0000BAE8 CFC30773
00:0000BAEC 25665F73
00:0000BAF0 D0EBB573        	  3286: .long     0x73B5EBD0, 0x740B53F9, 0x745F9DD0, 0x74B2C882
00:0000BAF4 F9530B74
00:0000BAF8 D09D5F74
00:0000BAFC 82C8B274
00:0000BB00 44D30475        	  3287: .long     0x7504D344, 0x7555BD4A, 0x75A585CE, 0x75F42C09
00:0000BB04 4ABD5575
00:0000BB08 CE85A575
00:0000BB0C 092CF475
00:0000BB10 3BAF4176        	  3288: .long     0x7641AF3B, 0x768E0EA4, 0x76D94988, 0x77235F2C
00:0000BB14 A40E8E76
00:0000BB18 8849D976
00:0000BB1C 2C5F2377
00:0000BB20 DA4E6C77        	  3289: .long     0x776C4EDA, 0x77B417DE, 0x77FAB987, 0x78403327
00:0000BB24 DE17B477
00:0000BB28 87B9FA77
00:0000BB2C 27334078
00:0000BB30 13848478        	  3290: .long     0x78848413, 0x78C7ABA0, 0x7909A92B, 0x794A7C10
00:0000BB34 A0ABC778
00:0000BB38 2BA90979
00:0000BB3C 107C4A79
00:0000BB40 B0238A79        	  3291: .long     0x798A23B0, 0x79C89F6C, 0x7A05EEAC, 0x7A4210D7
00:0000BB44 6C9FC879
00:0000BB48 ACEE057A
00:0000BB4C D710427A
00:0000BB50 5A057D7A        	  3292: .long     0x7A7D055A, 0x7AB6CBA2, 0x7AEF6322, 0x7B26CB4E
00:0000BB54 A2CBB67A
00:0000BB58 2263EF7A
00:0000BB5C 4ECB267B
00:0000BB60 9C035D7B        	  3293: .long     0x7B5D039C, 0x7B920B88, 0x7BC5E28E, 0x7BF8882F
00:0000BB64 880B927B
00:0000BB68 8EE2C57B
00:0000BB6C 2F88F87B
00:0000BB70 EDFB297C        	  3294: .long     0x7C29FBED, 0x7C5A3D4E, 0x7C894BDC, 0x7CB72723
00:0000BB74 4E3D5A7C
00:0000BB78 DC4B897C
00:0000BB7C 2327B77C
00:0000BB80 B0CEE37C        	  3295: .long     0x7CE3CEB0, 0x7D0F4217, 0x7D3980EB, 0x7D628AC5
00:0000BB84 17420F7D
00:0000BB88 EB80397D
00:0000BB8C C58A627D
00:0000BB90 3F5F8A7D        	  3296: .long     0x7D8A5F3F, 0x7DB0FDF6, 0x7DD6668D, 0x7DFA98A7
00:0000BB94 F6FDB07D
00:0000BB98 8D66D67D
00:0000BB9C A798FA7D
00:0000BBA0 E8931D7E        	  3297: .long     0x7E1D93E8, 0x7E3F57FD, 0x7E5FE492, 0x7E7F3955
00:0000BBA4 FD573F7E
00:0000BBA8 92E45F7E
00:0000BBAC 55397F7E
00:0000BBB0 FB559D7E        	  3298: .long     0x7E9D55FB, 0x7EBA3A38, 0x7ED5E5C5, 0x7EF0585E
00:0000BBB4 383ABA7E
00:0000BBB8 C5E5D57E
00:0000BBBC 5E58F07E
00:0000BBC0 C291097F        	  3299: .long     0x7F0991C2, 0x7F2191B3, 0x7F3857F5, 0x7F4DE44F
00:0000BBC4 B391217F
00:0000BBC8 F557387F
00:0000BBCC 4FE44D7F
00:0000BBD0 8E36627F        	  3300: .long     0x7F62368E, 0x7F754E7E, 0x7F872BF2, 0x7F97CEBC
00:0000BBD4 7E4E757F
00:0000BBD8 F22B877F
00:0000BBDC BCCE977F
00:0000BBE0 B336A77F        	  3301: .long     0x7FA736B3, 0x7FB563B2, 0x7FC25595, 0x7FCE0C3D
00:0000BBE4 B263B57F
00:0000BBE8 9555C27F
00:0000BBEC 3D0CCE7F
00:0000BBF0 8D87D87F        	  3302: .long     0x7FD8878D, 0x7FE1C76A, 0x7FE9CBBF, 0x7FF09477
00:0000BBF4 6AC7E17F
00:0000BBF8 BFCBE97F
00:0000BBFC 7794F07F
00:0000BC00 8121F67F        	  3303: .long     0x7FF62181, 0x7FFA72D0, 0x7FFD8859, 0x7FFF6216
00:0000BC04 D072FA7F
00:0000BC08 5988FD7F
00:0000BC0C 1662FF7F
00:0000BC10 FEFFFF7F        	  3304: .long     0x7FFFFFFE, 0x7FFF6216, 0x7FFD8859, 0x7FFA72D0
00:0000BC14 1662FF7F
00:0000BC18 5988FD7F
00:0000BC1C D072FA7F
00:0000BC20 8121F67F        	  3305: .long     0x7FF62181, 0x7FF09477, 0x7FE9CBBF, 0x7FE1C76A
00:0000BC24 7794F07F
00:0000BC28 BFCBE97F
00:0000BC2C 6AC7E17F
00:0000BC30 8D87D87F        	  3306: .long     0x7FD8878D, 0x7FCE0C3D, 0x7FC25595, 0x7FB563B2
00:0000BC34 3D0CCE7F
00:0000BC38 9555C27F
00:0000BC3C B263B57F
00:0000BC40 B336A77F        	  3307: .long     0x7FA736B3, 0x7F97CEBC, 0x7F872BF2, 0x7F754E7E
00:0000BC44 BCCE977F
00:0000BC48 F22B877F
00:0000BC4C 7E4E757F
00:0000BC50 8E36627F        	  3308: .long     0x7F62368E, 0x7F4DE44F, 0x7F3857F5, 0x7F2191B3
00:0000BC54 4FE44D7F
00:0000BC58 F557387F
00:0000BC5C B391217F
00:0000BC60 C291097F        	  3309: .long     0x7F0991C2, 0x7EF0585E, 0x7ED5E5C5, 0x7EBA3A38
00:0000BC64 5E58F07E
00:0000BC68 C5E5D57E
00:0000BC6C 383ABA7E
00:0000BC70 FB559D7E        	  3310: .long     0x7E9D55FB, 0x7E7F3955, 0x7E5FE492, 0x7E3F57FD
00:0000BC74 55397F7E
00:0000BC78 92E45F7E
00:0000BC7C FD573F7E
00:0000BC80 E8931D7E        	  3311: .long     0x7E1D93E8, 0x7DFA98A7, 0x7DD6668D, 0x7DB0FDF6
00:0000BC84 A798FA7D
00:0000BC88 8D66D67D
00:0000BC8C F6FDB07D
00:0000BC90 3F5F8A7D        	  3312: .long     0x7D8A5F3F, 0x7D628AC5, 0x7D3980EB, 0x7D0F4217
00:0000BC94 C58A627D
00:0000BC98 EB80397D
00:0000BC9C 17420F7D
00:0000BCA0 B0CEE37C        	  3313: .long     0x7CE3CEB0, 0x7CB72723, 0x7C894BDC, 0x7C5A3D4E
00:0000BCA4 2327B77C
00:0000BCA8 DC4B897C
00:0000BCAC 4E3D5A7C
00:0000BCB0 EDFB297C        	  3314: .long     0x7C29FBED, 0x7BF8882F, 0x7BC5E28E, 0x7B920B88
00:0000BCB4 2F88F87B
00:0000BCB8 8EE2C57B
00:0000BCBC 880B927B
00:0000BCC0 9C035D7B        	  3315: .long     0x7B5D039C, 0x7B26CB4E, 0x7AEF6322, 0x7AB6CBA2
00:0000BCC4 4ECB267B
00:0000BCC8 2263EF7A
00:0000BCCC A2CBB67A
00:0000BCD0 5A057D7A        	  3316: .long     0x7A7D055A, 0x7A4210D7, 0x7A05EEAC, 0x79C89F6C
00:0000BCD4 D710427A
00:0000BCD8 ACEE057A
00:0000BCDC 6C9FC879
00:0000BCE0 B0238A79        	  3317: .long     0x798A23B0, 0x794A7C10, 0x7909A92B, 0x78C7ABA0
00:0000BCE4 107C4A79
00:0000BCE8 2BA90979
00:0000BCEC A0ABC778
00:0000BCF0 13848478        	  3318: .long     0x78848413, 0x78403327, 0x77FAB987, 0x77B417DE
00:0000BCF4 27334078
00:0000BCF8 87B9FA77
00:0000BCFC DE17B477
00:0000BD00 DA4E6C77        	  3319: .long     0x776C4EDA, 0x77235F2C, 0x76D94988, 0x768E0EA4
00:0000BD04 2C5F2377
00:0000BD08 8849D976
00:0000BD0C A40E8E76
00:0000BD10 3BAF4176        	  3320: .long     0x7641AF3B, 0x75F42C09, 0x75A585CE, 0x7555BD4A
00:0000BD14 092CF475
00:0000BD18 CE85A575
00:0000BD1C 4ABD5575
00:0000BD20 44D30475        	  3321: .long     0x7504D344, 0x74B2C882, 0x745F9DD0, 0x740B53FA
00:0000BD24 82C8B274
00:0000BD28 D09D5F74
00:0000BD2C FA530B74
00:0000BD30 D0EBB573        	  3322: .long     0x73B5EBD0, 0x735F6625, 0x7307C3CF, 0x72AF05A5
00:0000BD34 25665F73
00:0000BD38 CFC30773
00:0000BD3C A505AF72
00:0000BD40 842C5572        	  3323: .long     0x72552C84, 0x71FA3948, 0x719E2CD1, 0x71410803
00:0000BD44 4839FA71
00:0000BD48 D12C9E71
00:0000BD4C 03084171
00:0000BD50 C5CBE270        	  3324: .long     0x70E2CBC5, 0x708378FD, 0x70231098, 0x6FC19384
00:0000BD54 FD788370
00:0000BD58 98102370
00:0000BD5C 8493C16F
00:0000BD60 B0025F6F        	  3325: .long     0x6F5F02B0, 0x6EFB5F11, 0x6E96A99C, 0x6E30E348
00:0000BD64 115FFB6E
00:0000BD68 9CA9966E
00:0000BD6C 48E3306E
00:0000BD70 130DCA6D        	  3326: .long     0x6DCA0D13, 0x6D6227F9, 0x6CF934FB, 0x6C8F351A
00:0000BD74 F927626D
00:0000BD78 FB34F96C
00:0000BD7C 1A358F6C
00:0000BD80 5F29246C        	  3327: .long     0x6C24295F, 0x6BB812D0, 0x6B4AF277, 0x6ADCC963
00:0000BD84 D012B86B
00:0000BD88 77F24A6B
00:0000BD8C 63C9DC6A
00:0000BD90 A3986D6A        	  3328: .long     0x6A6D98A3, 0x69FD6149, 0x698C246B, 0x6919E320
00:0000BD94 4961FD69
00:0000BD98 6B248C69
00:0000BD9C 20E31969
00:0000BDA0 809EA668        	  3329: .long     0x68A69E80, 0x683257AA, 0x67BD0FBC, 0x6746C7D6
00:0000BDA4 AA573268
00:0000BDA8 BC0FBD67
00:0000BDAC D6C74667
00:0000BDB0 1E81CF66        	  3330: .long     0x66CF811E, 0x66573CBA, 0x65DDFBD1, 0x6563BF91
00:0000BDB4 BA3C5766
00:0000BDB8 D1FBDD65
00:0000BDBC 91BF6365
00:0000BDC0 2589E864        	  3331: .long     0x64E88925, 0x646C59BF, 0x63EF328E, 0x637114CB
00:0000BDC4 BF596C64
00:0000BDC8 8E32EF63
00:0000BDCC CB147163
00:0000BDD0 AC01F262        	  3332: .long     0x62F201AC, 0x6271FA68, 0x61F1003E, 0x616F146B
00:0000BDD4 68FA7162
00:0000BDD8 3E00F161
00:0000BDDC 6B146F61
00:0000BDE0 2E38EC60        	  3333: .long     0x60EC382E, 0x60686CCE, 0x5FE3B38D, 0x5F5E0DB2
00:0000BDE4 CE6C6860
00:0000BDE8 8DB3E35F
00:0000BDEC B20D5E5F
00:0000BDF0 897CD75E        	  3334: .long     0x5ED77C89, 0x5E50015D, 0x5DC79D7B, 0x5D3E5236
00:0000BDF4 5D01505E
00:0000BDF8 7B9DC75D
00:0000BDFC 36523E5D
00:0000BE00 DF20B45C        	  3335: .long     0x5CB420DF, 0x5C290ACB, 0x5B9D1153, 0x5B1035CF
00:0000BE04 CB0A295C
00:0000BE08 53119D5B
00:0000BE0C CF35105B
00:0000BE10 9A79825A        	  3336: .long     0x5A82799A, 0x59F3DE11, 0x59646497, 0x58D40E8C
00:0000BE14 11DEF359
00:0000BE18 97646459
00:0000BE1C 8C0ED458
00:0000BE20 53DD4258        	  3337: .long     0x5842DD53, 0x57B0D256, 0x571DEEFA, 0x568A34A8
00:0000BE24 56D2B057
00:0000BE28 FAEE1D57
00:0000BE2C A8348A56
00:0000BE30 D2A4F555        	  3338: .long     0x55F5A4D2, 0x556040E2, 0x54CA0A49, 0x5433027D
00:0000BE34 E2406055
00:0000BE38 490ACA54
00:0000BE3C 7D023354
00:0000BE40 EF2A9B53        	  3339: .long     0x539B2AEF, 0x53028516, 0x5269126E, 0x51CED46E
00:0000BE44 16850253
00:0000BE48 6E126952
00:0000BE4C 6ED4CE51
00:0000BE50 93CC3351        	  3340: .long     0x5133CC93, 0x5097FC5D, 0x4FFB654D, 0x4F5E08E2
00:0000BE54 5DFC9750
00:0000BE58 4D65FB4F
00:0000BE5C E2085E4F
00:0000BE60 A4E8BF4E        	  3341: .long     0x4EBFE8A4, 0x4E210617, 0x4D8162C4, 0x4CE10033
00:0000BE64 1706214E
00:0000BE68 C462814D
00:0000BE6C 3300E14C
00:0000BE70 F3DF3F4C        	  3342: .long     0x4C3FDFF3, 0x4B9E0390, 0x4AFB6C97, 0x4A581C9D
00:0000BE74 90039E4B
00:0000BE78 976CFB4A
00:0000BE7C 9D1C584A
00:0000BE80 3315B449        	  3343: .long     0x49B41533, 0x490F57ED, 0x4869E664, 0x47C3C22F
00:0000BE84 ED570F49
00:0000BE88 64E66948
00:0000BE8C 2FC2C347
00:0000BE90 E6EC1C47        	  3344: .long     0x471CECE6, 0x46756827, 0x45CD358F, 0x452456BC
00:0000BE94 27687546
00:0000BE98 8F35CD45
00:0000BE9C BC562445
00:0000BEA0 50CD7A44        	  3345: .long     0x447ACD50, 0x43D09AEC, 0x4325C134, 0x427A41D0
00:0000BEA4 EC9AD043
00:0000BEA8 34C12543
00:0000BEAC D0417A42
00:0000BEB0 641ECE41        	  3346: .long     0x41CE1E64, 0x4121589B, 0x4073F21C, 0x3FC5EC98
00:0000BEB4 9B582141
00:0000BEB8 1CF27340
00:0000BEBC 98ECC53F
00:0000BEC0 B849173F        	  3347: .long     0x3F1749B8, 0x3E680B2C, 0x3DB832A6, 0x3D07C1D6
00:0000BEC4 2C0B683E
00:0000BEC8 A632B83D
00:0000BECC D6C1073D
00:0000BED0 6FBA563C        	  3348: .long     0x3C56BA6F, 0x3BA51E28, 0x3AF2EEB7, 0x3A402DD0
00:0000BED4 281EA53B
00:0000BED8 B7EEF23A
00:0000BEDC D02D403A
00:0000BEE0 32DD8C39        	  3349: .long     0x398CDD32, 0x38D8FE93, 0x382493AF, 0x376F9E45
00:0000BEE4 93FED838
00:0000BEE8 AF932438
00:0000BEEC 459E6F37
00:0000BEF0 1320BA36        	  3350: .long     0x36BA2013, 0x36041AD7, 0x354D9056, 0x3496824F
00:0000BEF4 D71A0436
00:0000BEF8 56904D35
00:0000BEFC 4F829634
00:0000BF00 87F2DE33        	  3351: .long     0x33DEF287, 0x3326E2C1, 0x326E54C7, 0x31B54A5E
00:0000BF04 C1E22633
00:0000BF08 C7546E32
00:0000BF0C 5E4AB531
00:0000BF10 4CC5FB30        	  3352: .long     0x30FBC54C, 0x3041C760, 0x2F875262, 0x2ECC681D
00:0000BF14 60C74130
00:0000BF18 6252872F
00:0000BF1C 1D68CC2E
00:0000BF20 610A112E        	  3353: .long     0x2E110A61, 0x2D553AFC, 0x2C98FBB9, 0x2BDC4E6F
00:0000BF24 FC3A552D
00:0000BF28 B9FB982C
00:0000BF2C 6F4EDC2B
00:0000BF30 EB341F2B        	  3354: .long     0x2B1F34EB, 0x2A61B100, 0x29A3C484, 0x28E5714B
00:0000BF34 00B1612A
00:0000BF38 84C4A329
00:0000BF3C 4B71E528
00:0000BF40 27B92628        	  3355: .long     0x2826B927, 0x27679DF3, 0x26A82186, 0x25E845B6
00:0000BF44 F39D6727
00:0000BF48 8621A826
00:0000BF4C B645E825
00:0000BF50 5D0C2825        	  3356: .long     0x25280C5D, 0x24677757, 0x23A6887F, 0x22E541AE
00:0000BF54 57776724
00:0000BF58 7F88A623
00:0000BF5C AE41E522
00:0000BF60 C5A42322        	  3357: .long     0x2223A4C5, 0x2161B3A0, 0x209F701B, 0x1FDCDC1A
00:0000BF64 A0B36121
00:0000BF68 1B709F20
00:0000BF6C 1ADCDC1F
00:0000BF70 7BF9191F        	  3358: .long     0x1F19F97B, 0x1E56CA1D, 0x1D934FE5, 0x1CCF8CB3
00:0000BF74 1DCA561E
00:0000BF78 E54F931D
00:0000BF7C B38CCF1C
00:0000BF80 69820B1C        	  3359: .long     0x1C0B8269, 0x1B4732EF, 0x1A82A026, 0x19BDCBF1
00:0000BF84 EF32471B
00:0000BF88 26A0821A
00:0000BF8C F1CBBD19
00:0000BF90 3CB8F818        	  3360: .long     0x18F8B83C, 0x183366E8, 0x176DD9DD, 0x16A81304
00:0000BF94 E8663318
00:0000BF98 DDD96D17
00:0000BF9C 0413A816
00:0000BFA0 4414E215        	  3361: .long     0x15E21444, 0x151BDF86, 0x145576B0, 0x138EDBB1
00:0000BFA4 86DF1B15
00:0000BFA8 B0765514
00:0000BFAC B1DB8E13
00:0000BFB0 6F10C812        	  3362: .long     0x12C8106F, 0x120116D4, 0x1139F0CF, 0x1072A048
00:0000BFB4 D4160112
00:0000BFB8 CFF03911
00:0000BFBC 48A07210
00:0000BFC0 2A27AB0F        	  3363: .long     0x0FAB272A, 0x0EE38765, 0x0E1BC2E4, 0x0D53DB91
00:0000BFC4 6587E30E
00:0000BFC8 E4C21B0E
00:0000BFCC 91DB530D
00:0000BFD0 5ED38B0C        	  3364: .long     0x0C8BD35E, 0x0BC3AC35, 0x0AFB6804, 0x0A3308BC
00:0000BFD4 35ACC30B
00:0000BFD8 0468FB0A
00:0000BFDC BC08330A
00:0000BFE0 49906A09        	  3365: .long     0x096A9049, 0x08A20099, 0x07D95B9E, 0x0710A345
00:0000BFE4 9900A208
00:0000BFE8 9E5BD907
00:0000BFEC 45A31007
00:0000BFF0 7DD94706        	  3366: .long     0x0647D97D, 0x057F0034, 0x04B6195D, 0x03ED26E7
00:0000BFF4 34007F05
00:0000BFF8 5D19B604
00:0000BFFC E726ED03
00:0000C000 BE2A2403        	  3367: .long     0x03242ABE, 0x025B26D7, 0x01921D20, 0x00C90F87
00:0000C004 D7265B02
00:0000C008 201D9201
00:0000C00C 870FC900
00:0000C010 00000000        	  3368: .long     0x00000000, 0xFF36F079, 0xFE6DE2E0, 0xFDA4D929
00:0000C014 79F036FF
00:0000C018 E0E26DFE
00:0000C01C 29D9A4FD
00:0000C020 42D5DBFC        	  3369: .long     0xFCDBD542, 0xFC12D91A, 0xFB49E6A3, 0xFA80FFCD
00:0000C024 1AD912FC
00:0000C028 A3E649FB
00:0000C02C CDFF80FA
00:0000C030 8426B8F9        	  3370: .long     0xF9B82684, 0xF8EF5CBC, 0xF826A463, 0xF75DFF67
00:0000C034 BC5CEFF8
00:0000C038 63A426F8
00:0000C03C 67FF5DF7
00:0000C040 B76F95F6        	  3371: .long     0xF6956FB7, 0xF5CCF745, 0xF50497FC, 0xF43C53CB
00:0000C044 45F7CCF5
00:0000C048 FC9704F5
00:0000C04C CB533CF4
00:0000C050 A32C74F3        	  3372: .long     0xF3742CA3, 0xF2AC2470, 0xF1E43D1D, 0xF11C789B
00:0000C054 7024ACF2
00:0000C058 1D3DE4F1
00:0000C05C 9B781CF1
00:0000C060 D6D854F0        	  3373: .long     0xF054D8D6, 0xEF8D5FB9, 0xEEC60F32, 0xEDFEE92D
00:0000C064 B95F8DEF
00:0000C068 320FC6EE
00:0000C06C 2DE9FEED
00:0000C070 92EF37ED        	  3374: .long     0xED37EF92, 0xEC712450, 0xEBAA8950, 0xEAE4207B
00:0000C074 502471EC
00:0000C078 5089AAEB
00:0000C07C 7B20E4EA
00:0000C080 BCEB1DEA        	  3375: .long     0xEA1DEBBC, 0xE957ECFC, 0xE8922624, 0xE7CC9918
00:0000C084 FCEC57E9
00:0000C088 242692E8
00:0000C08C 1899CCE7
00:0000C090 C54707E7        	  3376: .long     0xE70747C5, 0xE642340F, 0xE57D5FDB, 0xE4B8CD12
00:0000C094 0F3442E6
00:0000C098 DB5F7DE5
00:0000C09C 12CDB8E4
00:0000C0A0 977DF4E3        	  3377: .long     0xE3F47D97, 0xE330734D, 0xE26CB01C, 0xE1A935E4
00:0000C0A4 4D7330E3
00:0000C0A8 1CB06CE2
00:0000C0AC E435A9E1
00:0000C0B0 8506E6E0        	  3378: .long     0xE0E60685, 0xE02323E6, 0xDF608FE5, 0xDE9E4C61
00:0000C0B4 E62323E0
00:0000C0B8 E58F60DF
00:0000C0BC 614C9EDE
00:0000C0C0 3C5BDCDD        	  3379: .long     0xDDDC5B3C, 0xDD1ABE53, 0xDC597782, 0xDB9888A9
00:0000C0C4 53BE1ADD
00:0000C0C8 827759DC
00:0000C0CC A98898DB
00:0000C0D0 A4F3D7DA        	  3380: .long     0xDAD7F3A4, 0xDA17BA4A, 0xD957DE7B, 0xD898620D
00:0000C0D4 4ABA17DA
00:0000C0D8 7BDE57D9
00:0000C0DC 0D6298D8
00:0000C0E0 DA46D9D7        	  3381: .long     0xD7D946DA, 0xD71A8EB6, 0xD65C3B7C, 0xD59E4F01
00:0000C0E4 B68E1AD7
00:0000C0E8 7C3B5CD6
00:0000C0EC 014F9ED5
00:0000C0F0 15CBE0D4        	  3382: .long     0xD4E0CB15, 0xD423B192, 0xD3670447, 0xD2AAC505
00:0000C0F4 92B123D4
00:0000C0F8 470467D3
00:0000C0FC 05C5AAD2
00:0000C100 9FF5EED1        	  3383: .long     0xD1EEF59F, 0xD13397E3, 0xD078AD9E, 0xCFBE38A1
00:0000C104 E39733D1
00:0000C108 9EAD78D0
00:0000C10C A138BECF
00:0000C110 B53A04CF        	  3384: .long     0xCF043AB5, 0xCE4AB5A3, 0xCD91AB3A, 0xCCD91D3F
00:0000C114 A3B54ACE
00:0000C118 3AAB91CD
00:0000C11C 3F1DD9CC
00:0000C120 790D21CC        	  3385: .long     0xCC210D79, 0xCB697DB1, 0xCAB26FAB, 0xC9FBE529
00:0000C124 B17D69CB
00:0000C128 AB6FB2CA
00:0000C12C 29E5FBC9
00:0000C130 EDDF45C9        	  3386: .long     0xC945DFED, 0xC89061BC, 0xC7DB6C52, 0xC727016E
00:0000C134 BC6190C8
00:0000C138 526CDBC7
00:0000C13C 6E0127C7
00:0000C140 CF2273C6        	  3387: .long     0xC67322CF, 0xC5BFD230, 0xC50D114A, 0xC45AE1D8
00:0000C144 30D2BFC5
00:0000C148 4A110DC5
00:0000C14C D8E15AC4
00:0000C150 9245A9C3        	  3388: .long     0xC3A94592, 0xC2F83E2B, 0xC247CD5B, 0xC197F4D5
00:0000C154 2B3EF8C2
00:0000C158 5BCD47C2
00:0000C15C D5F497C1
00:0000C160 49B6E8C0        	  3389: .long     0xC0E8B649, 0xC03A1369, 0xBF8C0DE5, 0xBEDEA766
00:0000C164 69133AC0
00:0000C168 E50D8CBF
00:0000C16C 66A7DEBE
00:0000C170 9DE131BE        	  3390: .long     0xBE31E19D, 0xBD85BE31, 0xBCDA3ECD, 0xBC2F6514
00:0000C174 31BE85BD
00:0000C178 CD3EDABC
00:0000C17C 14652FBC
00:0000C180 B13285BB        	  3391: .long     0xBB8532B1, 0xBADBA945, 0xBA32CA72, 0xB98A97DA
00:0000C184 45A9DBBA
00:0000C188 72CA32BA
00:0000C18C DA978AB9
00:0000C190 1B13E3B8        	  3392: .long     0xB8E3131B, 0xB83C3DD2, 0xB796199D, 0xB6F0A814
00:0000C194 D23D3CB8
00:0000C198 9D1996B7
00:0000C19C 14A8F0B6
00:0000C1A0 CDEA4BB6        	  3393: .long     0xB64BEACD, 0xB5A7E364, 0xB504936A, 0xB461FC71
00:0000C1A4 64E3A7B5
00:0000C1A8 6A9304B5
00:0000C1AC 71FC61B4
00:0000C1B0 0E20C0B3        	  3394: .long     0xB3C0200E, 0xB31EFFCE, 0xB27E9D3D, 0xB1DEF9EA
00:0000C1B4 CEFF1EB3
00:0000C1B8 3D9D7EB2
00:0000C1BC EAF9DEB1
00:0000C1C0 5D1740B1        	  3395: .long     0xB140175D, 0xB0A1F71F, 0xB0049AB4, 0xAF6803A3
00:0000C1C4 1FF7A1B0
00:0000C1C8 B49A04B0
00:0000C1CC A30368AF
00:0000C1D0 6E33CCAE        	  3396: .long     0xAECC336E, 0xAE312B93, 0xAD96ED93, 0xACFD7AEA
00:0000C1D4 932B31AE
00:0000C1D8 93ED96AD
00:0000C1DC EA7AFDAC
00:0000C1E0 11D564AC        	  3397: .long     0xAC64D511, 0xABCCFD84, 0xAB35F5B7, 0xAA9FBF1E
00:0000C1E4 84FDCCAB
00:0000C1E8 B7F535AB
00:0000C1EC 1EBF9FAA
00:0000C1F0 2F5B0AAA        	  3398: .long     0xAA0A5B2F, 0xA975CB58, 0xA8E21107, 0xA84F2DAB
00:0000C1F4 58CB75A9
00:0000C1F8 0711E2A8
00:0000C1FC AB2D4FA8
00:0000C200 AD22BDA7        	  3399: .long     0xA7BD22AD, 0xA72BF174, 0xA69B9B69, 0xA60C21EF
00:0000C204 74F12BA7
00:0000C208 699B9BA6
00:0000C20C EF210CA6
00:0000C210 67867DA5        	  3400: .long     0xA57D8667, 0xA4EFCA32, 0xA462EEAE, 0xA3D6F536
00:0000C214 32CAEFA4
00:0000C218 AEEE62A4
00:0000C21C 36F5D6A3
00:0000C220 21DF4BA3        	  3401: .long     0xA34BDF21, 0xA2C1ADCB, 0xA2386286, 0xA1AFFEA4
00:0000C224 CBADC1A2
00:0000C228 866238A2
00:0000C22C A4FEAFA1
00:0000C230 788328A1        	  3402: .long     0xA1288378, 0xA0A1F24F, 0xA01C4C74, 0x9F979333
00:0000C234 4FF2A1A0
00:0000C238 744C1CA0
00:0000C23C 3393979F
00:0000C240 D2C7139F        	  3403: .long     0x9F13C7D2, 0x9E90EB96, 0x9E0EFFC4, 0x9D8E0599
00:0000C244 96EB909E
00:0000C248 C4FF0E9E
00:0000C24C 99058E9D
00:0000C250 55FE0D9D        	  3404: .long     0x9D0DFE55, 0x9C8EEB37, 0x9C10CD72, 0x9B93A642
00:0000C254 37EB8E9C
00:0000C258 72CD109C
00:0000C25C 42A6939B
00:0000C260 DD76179B        	  3405: .long     0x9B1776DD, 0x9A9C4070, 0x9A22042E, 0x99A8C347
00:0000C264 70409C9A
00:0000C268 2E04229A
00:0000C26C 47C3A899
00:0000C270 E27E3099        	  3406: .long     0x99307EE2, 0x98B93829, 0x9842F046, 0x97CDA857
00:0000C274 2938B998
00:0000C278 46F04298
00:0000C27C 57A8CD97
00:0000C280 80615997        	  3407: .long     0x97596180, 0x96E61CE2, 0x9673DB96, 0x96029EB6
00:0000C284 E21CE696
00:0000C288 96DB7396
00:0000C28C B69E0296
00:0000C290 5E679295        	  3408: .long     0x9592675E, 0x9523369D, 0x94B50D88, 0x9447ED31
00:0000C294 9D362395
00:0000C298 880DB594
00:0000C29C 31ED4794
00:0000C2A0 A1D6DB93        	  3409: .long     0x93DBD6A1, 0x9370CAE4, 0x9306CB06, 0x929DD807
00:0000C2A4 E4CA7093
00:0000C2A8 06CB0693
00:0000C2AC 07D89D92
00:0000C2B0 ECF23592        	  3410: .long     0x9235F2EC, 0x91CF1CB8, 0x91695664, 0x9104A0EE
00:0000C2B4 B81CCF91
00:0000C2B8 64566991
00:0000C2BC EEA00491
00:0000C2C0 50FDA090        	  3411: .long     0x90A0FD50, 0x903E6C7C, 0x8FDCEF67, 0x8F7C8703
00:0000C2C4 7C6C3E90
00:0000C2C8 67EFDC8F
00:0000C2CC 03877C8F
00:0000C2D0 3B341D8F        	  3412: .long     0x8F1D343B, 0x8EBEF7FC, 0x8E61D32F, 0x8E05C6B8
00:0000C2D4 FCF7BE8E
00:0000C2D8 2FD3618E
00:0000C2DC B8C6058E
00:0000C2E0 7DD3AA8D        	  3413: .long     0x8DAAD37D, 0x8D50FA5B, 0x8CF83C31, 0x8CA099DC
00:0000C2E4 5BFA508D
00:0000C2E8 313CF88C
00:0000C2EC DC99A08C
00:0000C2F0 30144A8C        	  3414: .long     0x8C4A1430, 0x8BF4AC06, 0x8BA06231, 0x8B4D377E
00:0000C2F4 06ACF48B
00:0000C2F8 3162A08B
00:0000C2FC 7E374D8B
00:0000C300 BC2CFB8A        	  3415: .long     0x8AFB2CBC, 0x8AAA42B6, 0x8A5A7A32, 0x8A0BD3F6
00:0000C304 B642AA8A
00:0000C308 327A5A8A
00:0000C30C F6D30B8A
00:0000C310 C550BE89        	  3416: .long     0x89BE50C5, 0x8971F15C, 0x8926B678, 0x88DCA0D5
00:0000C314 5CF17189
00:0000C318 78B62689
00:0000C31C D5A0DC88
00:0000C320 26B19388        	  3417: .long     0x8893B126, 0x884BE821, 0x88054679, 0x87BFCCD9
00:0000C324 21E84B88
00:0000C328 79460588
00:0000C32C D9CCBF87
00:0000C330 ED7B7B87        	  3418: .long     0x877B7BED, 0x87385460, 0x86F656D5, 0x86B583EF
00:0000C334 60543887
00:0000C338 D556F686
00:0000C33C EF83B586
00:0000C340 51DC7586        	  3419: .long     0x8675DC51, 0x86376094, 0x85FA1154, 0x85BDEF29
00:0000C344 94603786
00:0000C348 5411FA85
00:0000C34C 29EFBD85
00:0000C350 A6FA8285        	  3420: .long     0x8582FAA6, 0x8549345D, 0x85109CDE, 0x84D934B2
00:0000C354 5D344985
00:0000C358 DE9C1085
00:0000C35C B234D984
00:0000C360 63FCA284        	  3421: .long     0x84A2FC63, 0x846DF478, 0x843A1D72, 0x840777D1
00:0000C364 78F46D84
00:0000C368 721D3A84
00:0000C36C D1770784
00:0000C370 1304D683        	  3422: .long     0x83D60413, 0x83A5C2B1, 0x8376B424, 0x8348D8DD
00:0000C374 B1C2A583
00:0000C378 24B47683
00:0000C37C DDD84883
00:0000C380 50311C83        	  3423: .long     0x831C3150, 0x82F0BDEA, 0x82C67F15, 0x829D753B
00:0000C384 EABDF082
00:0000C388 157FC682
00:0000C38C 3B759D82
00:0000C390 C2A07582        	  3424: .long     0x8275A0C2, 0x824F020A, 0x82299973, 0x8205675A
00:0000C394 0A024F82
00:0000C398 73992982
00:0000C39C 5A670582
00:0000C3A0 186CE281        	  3425: .long     0x81E26C18, 0x81C0A803, 0x81A01B6F, 0x8180C6AB
00:0000C3A4 03A8C081
00:0000C3A8 6F1BA081
00:0000C3AC ABC68081
00:0000C3B0 05AA6281        	  3426: .long     0x8162AA05, 0x8145C5C9, 0x812A1A3B, 0x810FA7A2
00:0000C3B4 C9C54581
00:0000C3B8 3B1A2A81
00:0000C3BC A2A70F81
00:0000C3C0 3E6EF680        	  3427: .long     0x80F66E3E, 0x80DE6E4D, 0x80C7A80B, 0x80B21BB1
00:0000C3C4 4D6EDE80
00:0000C3C8 0BA8C780
00:0000C3CC B11BB280
00:0000C3D0 72C99D80        	  3428: .long     0x809DC972, 0x808AB181, 0x8078D40E, 0x80683144
00:0000C3D4 81B18A80
00:0000C3D8 0ED47880
00:0000C3DC 44316880
00:0000C3E0 4DC95880        	  3429: .long     0x8058C94D, 0x804A9C4E, 0x803DAA6B, 0x8031F3C3
00:0000C3E4 4E9C4A80
00:0000C3E8 6BAA3D80
00:0000C3EC C3F33180
00:0000C3F0 73782780        	  3430: .long     0x80277873, 0x801E3896, 0x80163441, 0x800F6B89
00:0000C3F4 96381E80
00:0000C3F8 41341680
00:0000C3FC 896B0F80
00:0000C400 7FDE0980        	  3431: .long     0x8009DE7F, 0x80058D30, 0x800277A7, 0x80009DEB
00:0000C404 308D0580
00:0000C408 A7770280
00:0000C40C EB9D0080
00:0000C410 01000080        	  3432: .long     0x80000001, 0x80009DEB, 0x800277A7, 0x80058D30
00:0000C414 EB9D0080
00:0000C418 A7770280
00:0000C41C 308D0580
00:0000C420 7FDE0980        	  3433: .long     0x8009DE7F, 0x800F6B89, 0x80163441, 0x801E3895
00:0000C424 896B0F80
00:0000C428 41341680
00:0000C42C 95381E80
00:0000C430 73782780        	  3434: .long     0x80277873, 0x8031F3C3, 0x803DAA6B, 0x804A9C4E
00:0000C434 C3F33180
00:0000C438 6BAA3D80
00:0000C43C 4E9C4A80
00:0000C440 4DC95880        	  3435: .long     0x8058C94D, 0x80683145, 0x8078D40E, 0x808AB182
00:0000C444 45316880
00:0000C448 0ED47880
00:0000C44C 82B18A80
00:0000C450 72C99D80        	  3436: .long     0x809DC972, 0x80B21BB1, 0x80C7A80B, 0x80DE6E4D
00:0000C454 B11BB280
00:0000C458 0BA8C780
00:0000C45C 4D6EDE80
00:0000C460 3E6EF680        	  3437: .long     0x80F66E3E, 0x810FA7A1, 0x812A1A3B, 0x8145C5C8
00:0000C464 A1A70F81
00:0000C468 3B1A2A81
00:0000C46C C8C54581
00:0000C470 05AA6281        	  3438: .long     0x8162AA05, 0x8180C6AA, 0x81A01B6E, 0x81C0A803
00:0000C474 AAC68081
00:0000C478 6E1BA081
00:0000C47C 03A8C081
00:0000C480 186CE281        	  3439: .long     0x81E26C18, 0x8205675A, 0x82299972, 0x824F0209
00:0000C484 5A670582
00:0000C488 72992982
00:0000C48C 09024F82
00:0000C490 C2A07582        	  3440: .long     0x8275A0C2, 0x829D753B, 0x82C67F15, 0x82F0BDEA
00:0000C494 3B759D82
00:0000C498 157FC682
00:0000C49C EABDF082
00:0000C4A0 4F311C83        	  3441: .long     0x831C314F, 0x8348D8DD, 0x8376B424, 0x83A5C2B1
00:0000C4A4 DDD84883
00:0000C4A8 24B47683
00:0000C4AC B1C2A583
00:0000C4B0 1304D683        	  3442: .long     0x83D60413, 0x840777D0, 0x843A1D71, 0x846DF478
00:0000C4B4 D0770784
00:0000C4B8 711D3A84
00:0000C4BC 78F46D84
00:0000C4C0 63FCA284        	  3443: .long     0x84A2FC63, 0x84D934B2, 0x85109CDE, 0x8549345D
00:0000C4C4 B234D984
00:0000C4C8 DE9C1085
00:0000C4CC 5D344985
00:0000C4D0 A6FA8285        	  3444: .long     0x8582FAA6, 0x85BDEF29, 0x85FA1153, 0x86376093
00:0000C4D4 29EFBD85
00:0000C4D8 5311FA85
00:0000C4DC 93603786
00:0000C4E0 50DC7586        	  3445: .long     0x8675DC50, 0x86B583EF, 0x86F656D4, 0x87385460
00:0000C4E4 EF83B586
00:0000C4E8 D456F686
00:0000C4EC 60543887
00:0000C4F0 ED7B7B87        	  3446: .long     0x877B7BED, 0x87BFCCD8, 0x88054679, 0x884BE821
00:0000C4F4 D8CCBF87
00:0000C4F8 79460588
00:0000C4FC 21E84B88
00:0000C500 26B19388        	  3447: .long     0x8893B126, 0x88DCA0D4, 0x8926B678, 0x8971F15B
00:0000C504 D4A0DC88
00:0000C508 78B62689
00:0000C50C 5BF17189
00:0000C510 C550BE89        	  3448: .long     0x89BE50C5, 0x8A0BD3F6, 0x8A5A7A32, 0x8AAA42B6
00:0000C514 F6D30B8A
00:0000C518 327A5A8A
00:0000C51C B642AA8A
00:0000C520 BB2CFB8A        	  3449: .long     0x8AFB2CBB, 0x8B4D377D, 0x8BA06231, 0x8BF4AC06
00:0000C524 7D374D8B
00:0000C528 3162A08B
00:0000C52C 06ACF48B
00:0000C530 30144A8C        	  3450: .long     0x8C4A1430, 0x8CA099DB, 0x8CF83C30, 0x8D50FA5A
00:0000C534 DB99A08C
00:0000C538 303CF88C
00:0000C53C 5AFA508D
00:0000C540 7DD3AA8D        	  3451: .long     0x8DAAD37D, 0x8E05C6B8, 0x8E61D32F, 0x8EBEF7FB
00:0000C544 B8C6058E
00:0000C548 2FD3618E
00:0000C54C FBF7BE8E
00:0000C550 3A341D8F        	  3452: .long     0x8F1D343A, 0x8F7C8702, 0x8FDCEF66, 0x903E6C7B
00:0000C554 02877C8F
00:0000C558 66EFDC8F
00:0000C55C 7B6C3E90
00:0000C560 4FFDA090        	  3453: .long     0x90A0FD4F, 0x9104A0EE, 0x91695664, 0x91CF1CB7
00:0000C564 EEA00491
00:0000C568 64566991
00:0000C56C B71CCF91
00:0000C570 ECF23592        	  3454: .long     0x9235F2EC, 0x929DD806, 0x9306CB05, 0x9370CAE4
00:0000C574 06D89D92
00:0000C578 05CB0693
00:0000C57C E4CA7093
00:0000C580 A0D6DB93        	  3455: .long     0x93DBD6A0, 0x9447ED31, 0x94B50D88, 0x9523369D
00:0000C584 31ED4794
00:0000C588 880DB594
00:0000C58C 9D362395
00:0000C590 5E679295        	  3456: .long     0x9592675E, 0x96029EB6, 0x9673DB95, 0x96E61CE2
00:0000C594 B69E0296
00:0000C598 95DB7396
00:0000C59C E21CE696
00:0000C5A0 7F615997        	  3457: .long     0x9759617F, 0x97CDA856, 0x9842F045, 0x98B93829
00:0000C5A4 56A8CD97
00:0000C5A8 45F04298
00:0000C5AC 2938B998
00:0000C5B0 E27E3099        	  3458: .long     0x99307EE2, 0x99A8C347, 0x9A22042D, 0x9A9C406F
00:0000C5B4 47C3A899
00:0000C5B8 2D04229A
00:0000C5BC 6F409C9A
00:0000C5C0 DC76179B        	  3459: .long     0x9B1776DC, 0x9B93A641, 0x9C10CD72, 0x9C8EEB36
00:0000C5C4 41A6939B
00:0000C5C8 72CD109C
00:0000C5CC 36EB8E9C
00:0000C5D0 54FE0D9D        	  3460: .long     0x9D0DFE54, 0x9D8E0598, 0x9E0EFFC3, 0x9E90EB95
00:0000C5D4 98058E9D
00:0000C5D8 C3FF0E9E
00:0000C5DC 95EB909E
00:0000C5E0 D2C7139F        	  3461: .long     0x9F13C7D2, 0x9F979334, 0xA01C4C73, 0xA0A1F24E
00:0000C5E4 3493979F
00:0000C5E8 734C1CA0
00:0000C5EC 4EF2A1A0
00:0000C5F0 768328A1        	  3462: .long     0xA1288376, 0xA1AFFEA3, 0xA2386285, 0xA2C1ADC9
00:0000C5F4 A3FEAFA1
00:0000C5F8 856238A2
00:0000C5FC C9ADC1A2
00:0000C600 21DF4BA3        	  3463: .long     0xA34BDF21, 0xA3D6F535, 0xA462EEAC, 0xA4EFCA31
00:0000C604 35F5D6A3
00:0000C608 ACEE62A4
00:0000C60C 31CAEFA4
00:0000C610 67867DA5        	  3464: .long     0xA57D8667, 0xA60C21ED, 0xA69B9B69, 0xA72BF175
00:0000C614 ED210CA6
00:0000C618 699B9BA6
00:0000C61C 75F12BA7
00:0000C620 AB22BDA7        	  3465: .long     0xA7BD22AB, 0xA84F2DAA, 0xA8E21108, 0xA975CB56
00:0000C624 AA2D4FA8
00:0000C628 0811E2A8
00:0000C62C 56CB75A9
00:0000C630 2E5B0AAA        	  3466: .long     0xAA0A5B2E, 0xAA9FBF1F, 0xAB35F5B5, 0xABCCFD83
00:0000C634 1FBF9FAA
00:0000C638 B5F535AB
00:0000C63C 83FDCCAB
00:0000C640 12D564AC        	  3467: .long     0xAC64D512, 0xACFD7AE8, 0xAD96ED92, 0xAE312B93
00:0000C644 E87AFDAC
00:0000C648 92ED96AD
00:0000C64C 932B31AE
00:0000C650 6C33CCAE        	  3468: .long     0xAECC336C, 0xAF6803A3, 0xB0049AB5, 0xB0A1F71D
00:0000C654 A30368AF
00:0000C658 B59A04B0
00:0000C65C 1DF7A1B0
00:0000C660 5C1740B1        	  3469: .long     0xB140175C, 0xB1DEF9EA, 0xB27E9D3C, 0xB31EFFCD
00:0000C664 EAF9DEB1
00:0000C668 3C9D7EB2
00:0000C66C CDFF1EB3
00:0000C670 0F20C0B3        	  3470: .long     0xB3C0200F, 0xB461FC70, 0xB5049369, 0xB5A7E365
00:0000C674 70FC61B4
00:0000C678 699304B5
00:0000C67C 65E3A7B5
00:0000C680 CDEA4BB6        	  3471: .long     0xB64BEACD, 0xB6F0A813, 0xB796199A, 0xB83C3DD1
00:0000C684 13A8F0B6
00:0000C688 9A1996B7
00:0000C68C D13D3CB8
00:0000C690 1A13E3B8        	  3472: .long     0xB8E3131A, 0xB98A97D7, 0xBA32CA71, 0xBADBA944
00:0000C694 D7978AB9
00:0000C698 71CA32BA
00:0000C69C 44A9DBBA
00:0000C6A0 AF3285BB        	  3473: .long     0xBB8532AF, 0xBC2F6514, 0xBCDA3ECC, 0xBD85BE2F
00:0000C6A4 14652FBC
00:0000C6A8 CC3EDABC
00:0000C6AC 2FBE85BD
00:0000C6B0 9CE131BE        	  3474: .long     0xBE31E19C, 0xBEDEA767, 0xBF8C0DE2, 0xC03A1368
00:0000C6B4 67A7DEBE
00:0000C6B8 E20D8CBF
00:0000C6BC 68133AC0
00:0000C6C0 49B6E8C0        	  3475: .long     0xC0E8B649, 0xC197F4D3, 0xC247CD5A, 0xC2F83E2C
00:0000C6C4 D3F497C1
00:0000C6C8 5ACD47C2
00:0000C6CC 2C3EF8C2
00:0000C6D0 8F45A9C3        	  3476: .long     0xC3A9458F, 0xC45AE1D8, 0xC50D114B, 0xC5BFD22E
00:0000C6D4 D8E15AC4
00:0000C6D8 4B110DC5
00:0000C6DC 2ED2BFC5
00:0000C6E0 CE2273C6        	  3477: .long     0xC67322CE, 0xC727016F, 0xC7DB6C4F, 0xC89061BB
00:0000C6E4 6F0127C7
00:0000C6E8 4F6CDBC7
00:0000C6EC BB6190C8
00:0000C6F0 EEDF45C9        	  3478: .long     0xC945DFEE, 0xC9FBE527, 0xCAB26FAA, 0xCB697DB2
00:0000C6F4 27E5FBC9
00:0000C6F8 AA6FB2CA
00:0000C6FC B27D69CB
00:0000C700 780D21CC        	  3479: .long     0xCC210D78, 0xCCD91D3E, 0xCD91AB3B, 0xCE4AB5A2
00:0000C704 3E1DD9CC
00:0000C708 3BAB91CD
00:0000C70C A2B54ACE
00:0000C710 B43A04CF        	  3480: .long     0xCF043AB4, 0xCFBE38A2, 0xD078AD9D, 0xD13397E3
00:0000C714 A238BECF
00:0000C718 9DAD78D0
00:0000C71C E39733D1
00:0000C720 A0F5EED1        	  3481: .long     0xD1EEF5A0, 0xD2AAC504, 0xD3670446, 0xD423B18F
00:0000C724 04C5AAD2
00:0000C728 460467D3
00:0000C72C 8FB123D4
00:0000C730 14CBE0D4        	  3482: .long     0xD4E0CB14, 0xD59E4F00, 0xD65C3B7A, 0xD71A8EB5
00:0000C734 004F9ED5
00:0000C738 7A3B5CD6
00:0000C73C B58E1AD7
00:0000C740 D946D9D7        	  3483: .long     0xD7D946D9, 0xD898620B, 0xD957DE7A, 0xDA17BA4B
00:0000C744 0B6298D8
00:0000C748 7ADE57D9
00:0000C74C 4BBA17DA
00:0000C750 A1F3D7DA        	  3484: .long     0xDAD7F3A1, 0xDB9888A8, 0xDC597783, 0xDD1ABE50
00:0000C754 A88898DB
00:0000C758 837759DC
00:0000C75C 50BE1ADD
00:0000C760 3B5BDCDD        	  3485: .long     0xDDDC5B3B, 0xDE9E4C62, 0xDF608FE2, 0xE02323E5
00:0000C764 624C9EDE
00:0000C768 E28F60DF
00:0000C76C E52323E0
00:0000C770 8606E6E0        	  3486: .long     0xE0E60686, 0xE1A935E1, 0xE26CB01B, 0xE330734F
00:0000C774 E135A9E1
00:0000C778 1BB06CE2
00:0000C77C 4F7330E3
00:0000C780 957DF4E3        	  3487: .long     0xE3F47D95, 0xE4B8CD11, 0xE57D5FDC, 0xE642340C
00:0000C784 11CDB8E4
00:0000C788 DC5F7DE5
00:0000C78C 0C3442E6
00:0000C790 C44707E7        	  3488: .long     0xE70747C4, 0xE7CC9919, 0xE8922621, 0xE957ECFC
00:0000C794 1999CCE7
00:0000C798 212692E8
00:0000C79C FCEC57E9
00:0000C7A0 BDEB1DEA        	  3489: .long     0xEA1DEBBD, 0xEAE4207A, 0xEBAA894F, 0xEC712451
00:0000C7A4 7A20E4EA
00:0000C7A8 4F89AAEB
00:0000C7AC 512471EC
00:0000C7B0 91EF37ED        	  3490: .long     0xED37EF91, 0xEDFEE92C, 0xEEC60F33, 0xEF8D5FB8
00:0000C7B4 2CE9FEED
00:0000C7B8 330FC6EE
00:0000C7BC B85F8DEF
00:0000C7C0 D5D854F0        	  3491: .long     0xF054D8D5, 0xF11C7898, 0xF1E43D1C, 0xF2AC246F
00:0000C7C4 98781CF1
00:0000C7C8 1C3DE4F1
00:0000C7CC 6F24ACF2
00:0000C7D0 A02C74F3        	  3492: .long     0xF3742CA0, 0xF43C53CA, 0xF50497FC, 0xF5CCF742
00:0000C7D4 CA533CF4
00:0000C7D8 FC9704F5
00:0000C7DC 42F7CCF5
00:0000C7E0 B66F95F6        	  3493: .long     0xF6956FB6, 0xF75DFF67, 0xF826A460, 0xF8EF5CBB
00:0000C7E4 67FF5DF7
00:0000C7E8 60A426F8
00:0000C7EC BB5CEFF8
00:0000C7F0 8526B8F9        	  3494: .long     0xF9B82685, 0xFA80FFCA, 0xFB49E6A2, 0xFC12D91B
00:0000C7F4 CAFF80FA
00:0000C7F8 A2E649FB
00:0000C7FC 1BD912FC
00:0000C800 40D5DBFC        	  3495: .long     0xFCDBD540, 0xFDA4D928, 0xFE6DE2E1, 0xFF36F077
00:0000C804 28D9A4FD
00:0000C808 E1E26DFE
00:0000C80C 77F036FF
                            	  3496: arctanTable:
00:0000C810 00000000        	  3497: .long     0x00000000, 0x00517C55, 0x00A2F61E, 0x00F46AD0
00:0000C814 557C5100
00:0000C818 1EF6A200
00:0000C81C D06AF400
00:0000C820 E1D74501        	  3498: .long     0x0145D7E1, 0x01973AC7, 0x01E890FC, 0x0239D7FB
00:0000C824 C73A9701
00:0000C828 FC90E801
00:0000C82C FBD73902
00:0000C830 430D8B02        	  3499: .long     0x028B0D43, 0x02DC2E53, 0x032D38B3, 0x037E29EB
00:0000C834 532EDC02
00:0000C838 B3382D03
00:0000C83C EB297E03
00:0000C840 89FFCE03        	  3500: .long     0x03CEFF89, 0x041FB721, 0x04704E4A, 0x04C0C2A4
00:0000C844 21B71F04
00:0000C848 4A4E7004
00:0000C84C A4C2C004
00:0000C850 D4111105        	  3501: .long     0x051111D4, 0x05613983, 0x05B13767, 0x06010937
00:0000C854 83396105
00:0000C858 6737B105
00:0000C85C 37090106
00:0000C860 B6AC5006        	  3502: .long     0x0650ACB6, 0x06A01FAE, 0x06EF5FF1, 0x073E6B5A
00:0000C864 AE1FA006
00:0000C868 F15FEF06
00:0000C86C 5A6B3E07
00:0000C870 CE3F8D07        	  3503: .long     0x078D3FCE, 0x07DBDB3A, 0x082A3B94, 0x08785EDF
00:0000C874 3ADBDB07
00:0000C878 943B2A08
00:0000C87C DF5E7808
00:0000C880 2543C608        	  3504: .long     0x08C64325, 0x0913E67C, 0x09614703, 0x09AE62E6
00:0000C884 7CE61309
00:0000C888 03476109
00:0000C88C E662AE09
00:0000C890 5B38FB09        	  3505: .long     0x09FB385B, 0x0A47C5A2, 0x0A940907, 0x0AE000E1
00:0000C894 A2C5470A
00:0000C898 0709940A
00:0000C89C E100E00A
00:0000C8A0 95AB2B0B        	  3506: .long     0x0B2BAB95, 0x0B77078F, 0x0BC2134B, 0x0C0CCD4E
00:0000C8A4 8F07770B
00:0000C8A8 4B13C20B
00:0000C8AC 4ECD0C0C
00:0000C8B0 2A34570C        	  3507: .long     0x0C57342A, 0x0CA1467C, 0x0CEB02EF, 0x0D346836
00:0000C8B4 7C46A10C
00:0000C8B8 EF02EB0C
00:0000C8BC 3668340D
00:0000C8C0 14757D0D        	  3508: .long     0x0D7D7514, 0x0DC62856, 0x0E0E80D4, 0x0E567D73
00:0000C8C4 5628C60D
00:0000C8C8 D4800E0E
00:0000C8CC 737D560E
00:0000C8D0 231D9E0E        	  3509: .long     0x0E9E1D23, 0x0EE55EE2, 0x0F2C41B6, 0x0F72C4B3
00:0000C8D4 E25EE50E
00:0000C8D8 B6412C0F
00:0000C8DC B3C4720F
00:0000C8E0 F9E6B80F        	  3510: .long     0x0FB8E6F9, 0x0FFEA7B0, 0x1044060F, 0x10890156
00:0000C8E4 B0A7FE0F
00:0000C8E8 0F064410
00:0000C8EC 56018910
00:0000C8F0 D198CD10        	  3511: .long     0x10CD98D1, 0x1111CBD6, 0x115599C6, 0x1199020E
00:0000C8F4 D6CB1111
00:0000C8F8 C6995511
00:0000C8FC 0E029911
00:0000C900 2304DC11        	  3512: .long     0x11DC0423, 0x121E9F86, 0x1260D3C1, 0x12A2A069
00:0000C904 869F1E12
00:0000C908 C1D36012
00:0000C90C 69A0A212
00:0000C910 1D05E412        	  3513: .long     0x12E4051D, 0x13250183, 0x1365954E, 0x13A5C038
00:0000C914 83012513
00:0000C918 4E956513
00:0000C91C 38C0A513
00:0000C920 0382E513        	  3514: .long     0x13E58203, 0x1424DA7D, 0x1463C97A, 0x14A24ED7
00:0000C924 7DDA2414
00:0000C928 7AC96314
00:0000C92C D74EA214
00:0000C930 7A6AE014        	  3515: .long     0x14E06A7A, 0x151E1C50, 0x155B6450, 0x15984275
00:0000C934 501C1E15
00:0000C938 50645B15
00:0000C93C 75429815
00:0000C940 C4B6D415        	  3516: .long     0x15D4B6C4, 0x1610C149, 0x164C6216, 0x16879945
00:0000C944 49C11016
00:0000C948 16624C16
00:0000C94C 45998716
00:0000C950 F666C216        	  3517: .long     0x16C266F6, 0x16FCCB50, 0x1736C67E, 0x177058B5
00:0000C954 50CBFC16
00:0000C958 7EC63617
00:0000C95C B5587017
00:0000C960 2C82A917        	  3518: .long     0x17A9822C, 0x17E24322, 0x181A9BDA, 0x18528C9E
00:0000C964 2243E217
00:0000C968 DA9B1A18
00:0000C96C 9E8C5218
00:0000C970 BB158A18        	  3519: .long     0x188A15BB, 0x18C13785, 0x18F7F252, 0x192E467F
00:0000C974 8537C118
00:0000C978 52F2F718
00:0000C97C 7F462E19
00:0000C980 6D346419        	  3520: .long     0x1964346D, 0x1999BC80, 0x19CEDF21, 0x1A039CBD
00:0000C984 80BC9919
00:0000C988 21DFCE19
00:0000C98C BD9C031A
00:0000C990 C4F5371A        	  3521: .long     0x1A37F5C4, 0x1A6BEAA9, 0x1A9F7BE4, 0x1AD2A9EF
00:0000C994 A9EA6B1A
00:0000C998 E47B9F1A
00:0000C99C EFA9D21A
00:0000C9A0 4875051B        	  3522: .long     0x1B057548, 0x1B37DE6E, 0x1B69E5E5, 0x1B9B8C33
00:0000C9A4 6EDE371B
00:0000C9A8 E5E5691B
00:0000C9AC 338C9B1B
00:0000C9B0 DFD1CC1B        	  3523: .long     0x1BCCD1DF, 0x1BFDB775, 0x1C2E3D81, 0x1C5E6491
00:0000C9B4 75B7FD1B
00:0000C9B8 813D2E1C
00:0000C9BC 91645E1C
00:0000C9C0 382D8E1C        	  3524: .long     0x1C8E2D38, 0x1CBD9807, 0x1CECA593, 0x1D1B5671
00:0000C9C4 0798BD1C
00:0000C9C8 93A5EC1C
00:0000C9CC 71561B1D
00:0000C9D0 3AAB491D        	  3525: .long     0x1D49AB3A, 0x1D77A486, 0x1DA542F0, 0x1DD28713
00:0000C9D4 86A4771D
00:0000C9D8 F042A51D
00:0000C9DC 1387D21D
00:0000C9E0 8C71FF1D        	  3526: .long     0x1DFF718C, 0x1E2C02F7, 0x1E583BF4, 0x1E841D21
00:0000C9E4 F7022C1E
00:0000C9E8 F43B581E
00:0000C9EC 211D841E
00:0000C9F0 1EA7AF1E        	  3527: .long     0x1EAFA71E, 0x1EDADA8D, 0x1F05B80D, 0x1F304042
00:0000C9F4 8DDADA1E
00:0000C9F8 0DB8051F
00:0000C9FC 4240301F
00:0000CA00 CC735A1F        	  3528: .long     0x1F5A73CC, 0x1F84534E, 0x1FADDF6B, 0x1FD718C5
00:0000CA04 4E53841F
00:0000CA08 6BDFAD1F
00:0000CA0C C518D71F
                            	  3529: squareRootTable:
00:0000CA10 00000000        	  3530: .long     0x00000000, 0x03FFFFFF, 0x05A82799, 0x06ED9EBA
00:0000CA14 FFFFFF03
00:0000CA18 9927A805
00:0000CA1C BA9EED06
00:0000CA20 FFFFFF07        	  3531: .long     0x07FFFFFF, 0x08F1BBCD, 0x09CC4709, 0x0A953FD4
00:0000CA24 CDBBF108
00:0000CA28 0947CC09
00:0000CA2C D43F950A
00:0000CA30 334F500B        	  3532: .long     0x0B504F33, 0x0BFFFFFF, 0x0CA62C1D, 0x0D443949
00:0000CA34 FFFFFF0B
00:0000CA38 1D2CA60C
00:0000CA3C 4939440D
00:0000CA40 743DDB0D        	  3533: .long     0x0DDB3D74, 0x0E6C15A2, 0x0EF77508, 0x0F7DEF58
00:0000CA44 A2156C0E
00:0000CA48 0875F70E
00:0000CA4C 58EF7D0F
00:0000CA50 FFFFFF0F        	  3534: .long     0x0FFFFFFF, 0x107E0F66, 0x10F876CC, 0x116F8334
00:0000CA54 660F7E10
00:0000CA58 CC76F810
00:0000CA5C 34836F11
00:0000CA60 9B77E311        	  3535: .long     0x11E3779B, 0x12548EB9, 0x12C2FC59, 0x132EEE75
00:0000CA64 B98E5412
00:0000CA68 59FCC212
00:0000CA6C 75EE2E13
00:0000CA70 138E9813        	  3536: .long     0x13988E13, 0x13FFFFFF, 0x1465655F, 0x14C8DC2E
00:0000CA74 FFFFFF13
00:0000CA78 5F656514
00:0000CA7C 2EDCC814
00:0000CA80 A97F2A15        	  3537: .long     0x152A7FA9, 0x158A68A4, 0x15E8ADD2, 0x16456405
00:0000CA84 A4688A15
00:0000CA88 D2ADE815
00:0000CA8C 05644516
00:0000CA90 669EA016        	  3538: .long     0x16A09E66, 0x16FA6EA1, 0x1752E50D, 0x17AA10D1
00:0000CA94 A16EFA16
00:0000CA98 0DE55217
00:0000CA9C D110AA17
00:0000CAA0 FFFFFF17        	  3539: .long     0x17FFFFFF, 0x1854BFB3, 0x18A85C24, 0x18FAE0C1
00:0000CAA4 B3BF5418
00:0000CAA8 245CA818
00:0000CAAC C1E0FA18
00:0000CAB0 3A584C19        	  3540: .long     0x194C583A, 0x199CCC99, 0x19EC4749, 0x1A3AD129
00:0000CAB4 99CC9C19
00:0000CAB8 4947EC19
00:0000CABC 29D13A1A
00:0000CAC0 9372881A        	  3541: .long     0x1A887293, 0x1AD53369, 0x1B211B1C, 0x1B6C30B8
00:0000CAC4 6933D51A
00:0000CAC8 1C1B211B
00:0000CACC B8306C1B
00:0000CAD0 E87AB61B        	  3542: .long     0x1BB67AE8, 0x1BFFFFFF, 0x1C48C5FF, 0x1C90D29C
00:0000CAD4 FFFFFF1B
00:0000CAD8 FFC5481C
00:0000CADC 9CD2901C
00:0000CAE0 442BD81C        	  3543: .long     0x1CD82B44, 0x1D1ED520, 0x1D64D51D, 0x1DAA2FEF
00:0000CAE4 20D51E1D
00:0000CAE8 1DD5641D
00:0000CAEC EF2FAA1D
00:0000CAF0 11EAEE1D        	  3544: .long     0x1DEEEA11, 0x1E3307CC, 0x1E768D39, 0x1EB97E45
00:0000CAF4 CC07331E
00:0000CAF8 398D761E
00:0000CAFC 457EB91E
00:0000CB00 B1DEFB1E        	  3545: .long     0x1EFBDEB1, 0x1F3DB217, 0x1F7EFBEB, 0x1FBFBF7E
00:0000CB04 17B23D1F
00:0000CB08 EBFB7E1F
00:0000CB0C 7EBFBF1F
00:0000CB10 FFFFFF1F        	  3546: .long     0x1FFFFFFF, 0x203FC07E, 0x207F03EC, 0x20BDCD1D
00:0000CB14 7EC03F20
00:0000CB18 EC037F20
00:0000CB1C 1DCDBD20
00:0000CB20 CD1EFC20        	  3547: .long     0x20FC1ECD, 0x2139FB9A, 0x2177660F, 0x21B4609B
00:0000CB24 9AFB3921
00:0000CB28 0F667721
00:0000CB2C 9B60B421
00:0000CB30 99EDF021        	  3548: .long     0x21F0ED99, 0x222D0F51, 0x2268C7F4, 0x22A419A2
00:0000CB34 510F2D22
00:0000CB38 F4C76822
00:0000CB3C A219A422
00:0000CB40 6806DF22        	  3549: .long     0x22DF0668, 0x23199043, 0x2353B91E, 0x238D82D6
00:0000CB44 43901923
00:0000CB48 1EB95323
00:0000CB4C D6828D23
00:0000CB50 37EFC623        	  3550: .long     0x23C6EF37, 0x23FFFFFF, 0x2438B6E1, 0x2471157F
00:0000CB54 FFFFFF23
00:0000CB58 E1B63824
00:0000CB5C 7F157124
00:0000CB60 721DA924        	  3551: .long     0x24A91D72, 0x24E0D043, 0x25182F72, 0x254F3C74
00:0000CB64 43D0E024
00:0000CB68 722F1825
00:0000CB6C 743C4F25
00:0000CB70 B2F88525        	  3552: .long     0x2585F8B2, 0x25BC658C, 0x25F28458, 0x26285661
00:0000CB74 8C65BC25
00:0000CB78 5884F225
00:0000CB7C 61562826
00:0000CB80 EADC5D26        	  3553: .long     0x265DDCEA, 0x2693192F, 0x26C80C60, 0x26FCB7A7
00:0000CB84 2F199326
00:0000CB88 600CC826
00:0000CB8C A7B7FC26
00:0000CB90 271C3127        	  3554: .long     0x27311C27, 0x27653AFA, 0x27991533, 0x27CCABDD
00:0000CB94 FA3A6527
00:0000CB98 33159927
00:0000CB9C DDABCC27
00:0000CBA0 FFFFFF27        	  3555: .long     0x27FFFFFF, 0x28331298, 0x2865E49F, 0x28987707
00:0000CBA4 98123328
00:0000CBA8 9FE46528
00:0000CBAC 07779828
00:0000CBB0 BECACA28        	  3556: .long     0x28CACABE, 0x28FCE0A9, 0x292EB9AA, 0x2960569E
00:0000CBB4 A9E0FC28
00:0000CBB8 AAB92E29
00:0000CBBC 9E566029
00:0000CBC0 5CB89129        	  3557: .long     0x2991B85C, 0x29C2DFB5, 0x29F3CD77, 0x2A24826A
00:0000CBC4 B5DFC229
00:0000CBC8 77CDF329
00:0000CBCC 6A82242A
00:0000CBD0 53FF542A        	  3558: .long     0x2A54FF53, 0x2A8544F1, 0x2AB55400, 0x2AE52D36
00:0000CBD4 F144852A
00:0000CBD8 0054B52A
00:0000CBDC 362DE52A
00:0000CBE0 49D1142B        	  3559: .long     0x2B14D149, 0x2B4440E6, 0x2B737CBA, 0x2BA2856D
00:0000CBE4 E640442B
00:0000CBE8 BA7C732B
00:0000CBEC 6D85A22B
00:0000CBF0 A45BD12B        	  3560: .long     0x2BD15BA4, 0x2BFFFFFF, 0x2C2E731E, 0x2C5CB599
00:0000CBF4 FFFFFF2B
00:0000CBF8 1E732E2C
00:0000CBFC 99B55C2C
00:0000CC00 0AC88A2C        	  3561: .long     0x2C8AC80A, 0x2CB8AB04, 0x2CE65F19, 0x2D13E4D8
00:0000CC04 04ABB82C
00:0000CC08 195FE62C
00:0000CC0C D8E4132D
00:0000CC10 CC3C412D        	  3562: .long     0x2D413CCC, 0x2D6E677F, 0x2D9B6577, 0x2DC83737
00:0000CC14 7F676E2D
00:0000CC18 77659B2D
00:0000CC1C 3737C82D
00:0000CC20 42DDF42D        	  3563: .long     0x2DF4DD42, 0x2E215816, 0x2E4DA830, 0x2E79CE09
00:0000CC24 1658212E
00:0000CC28 30A84D2E
00:0000CC2C 09CE792E
00:0000CC30 1BCAA52E        	  3564: .long     0x2EA5CA1B, 0x2ED19CDA, 0x2EFD46BA, 0x2F28C82D
00:0000CC34 DA9CD12E
00:0000CC38 BA46FD2E
00:0000CC3C 2DC8282F
00:0000CC40 A321542F        	  3565: .long     0x2F5421A3, 0x2F7F5388, 0x2FAA5E48, 0x2FD5424D
00:0000CC44 88537F2F
00:0000CC48 485EAA2F
00:0000CC4C 4D42D52F
00:0000CC50 FFFFFF2F        	  3566: .long     0x2FFFFFFF, 0x302A97C4, 0x30550A00, 0x307F5716
00:0000CC54 C4972A30
00:0000CC58 000A5530
00:0000CC5C 16577F30
00:0000CC60 667FA930        	  3567: .long     0x30A97F66, 0x30D38350, 0x30FD6331, 0x31271F66
00:0000CC64 5083D330
00:0000CC68 3163FD30
00:0000CC6C 661F2731
00:0000CC70 49B85031        	  3568: .long     0x3150B849, 0x317A2E33, 0x31A3817C, 0x31CCB27A
00:0000CC74 332E7A31
00:0000CC78 7C81A331
00:0000CC7C 7AB2CC31
00:0000CC80 82C1F531        	  3569: .long     0x31F5C182, 0x321EAEE7, 0x32477AFB, 0x32702610
00:0000CC84 E7AE1E32
00:0000CC88 FB7A4732
00:0000CC8C 10267032
00:0000CC90 75B09832        	  3570: .long     0x3298B075, 0x32C11A78, 0x32E96466, 0x33118E8B
00:0000CC94 781AC132
00:0000CC98 6664E932
00:0000CC9C 8B8E1133
00:0000CCA0 32993933        	  3571: .long     0x33399932, 0x336184A5, 0x3389512C, 0x33B0FF0F
00:0000CCA4 A5846133
00:0000CCA8 2C518933
00:0000CCAC 0FFFB033
00:0000CCB0 938ED833        	  3572: .long     0x33D88E93, 0x33FFFFFF, 0x34275396, 0x344E899C
00:0000CCB4 FFFFFF33
00:0000CCB8 96532734
00:0000CCBC 9C894E34
00:0000CCC0 53A27534        	  3573: .long     0x3475A253, 0x349C9DFD, 0x34C37CD9, 0x34EA3F28
00:0000CCC4 FD9D9C34
00:0000CCC8 D97CC334
00:0000CCCC 283FEA34
00:0000CCD0 27E51035        	  3574: .long     0x3510E527, 0x35376F15, 0x355DDD2E, 0x35842FAF
00:0000CCD4 156F3735
00:0000CCD8 2EDD5D35
00:0000CCDC AF2F8435
00:0000CCE0 D266AA35        	  3575: .long     0x35AA66D2, 0x35D082D2, 0x35F683E8, 0x361C6A4C
00:0000CCE4 D282D035
00:0000CCE8 E883F635
00:0000CCEC 4C6A1C36
00:0000CCF0 38364236        	  3576: .long     0x36423638, 0x3667E7E2, 0x368D7F80, 0x36B2FD48
00:0000CCF4 E2E76736
00:0000CCF8 807F8D36
00:0000CCFC 48FDB236
00:0000CD00 7061D836        	  3577: .long     0x36D86170, 0x36FDAC2A, 0x3722DDAC, 0x3747F628
00:0000CD04 2AACFD36
00:0000CD08 ACDD2237
00:0000CD0C 28F64737
00:0000CD10 D0F56C37        	  3578: .long     0x376CF5D0, 0x3791DCD5, 0x37B6AB6A, 0x37DB61BD
00:0000CD14 D5DC9137
00:0000CD18 6AABB637
00:0000CD1C BD61DB37
00:0000CD20 FFFFFF37        	  3579: .long     0x37FFFFFF, 0x3824865F, 0x3848F50B, 0x386D4C31
00:0000CD24 5F862438
00:0000CD28 0BF54838
00:0000CD2C 314C6D38
00:0000CD30 FF8B9138        	  3580: .long     0x38918BFF, 0x38B5B4A2, 0x38D9C644, 0x38FDC113
00:0000CD34 A2B4B538
00:0000CD38 44C6D938
00:0000CD3C 13C1FD38
00:0000CD40 39A52139        	  3581: .long     0x3921A539, 0x394572E2, 0x39692A36, 0x398CCB60
00:0000CD44 E2724539
00:0000CD48 362A6939
00:0000CD4C 60CB8C39
00:0000CD50 8856B039        	  3582: .long     0x39B05688, 0x39D3CBD7, 0x39F72B76, 0x3A1A758C
00:0000CD54 D7CBD339
00:0000CD58 762BF739
00:0000CD5C 8C751A3A
00:0000CD60 40AA3D3A        	  3583: .long     0x3A3DAA40, 0x3A60C9B9, 0x3A83D41C, 0x3AA6C991
00:0000CD64 B9C9603A
00:0000CD68 1CD4833A
00:0000CD6C 91C9A63A
00:0000CD70 3BAAC93A        	  3584: .long     0x3AC9AA3B, 0x3AEC7641, 0x3B0F2DC6, 0x3B31D0EF
00:0000CD74 4176EC3A
00:0000CD78 C62D0F3B
00:0000CD7C EFD0313B
00:0000CD80 DE5F543B        	  3585: .long     0x3B545FDE, 0x3B76DAB9, 0x3B9941A1, 0x3BBB94B8
00:0000CD84 B9DA763B
00:0000CD88 A141993B
00:0000CD8C B894BB3B
00:0000CD90 22D4DD3B        	  3586: .long     0x3BDDD422, 0x3BFFFFFF, 0x3C221871, 0x3C441D99
00:0000CD94 FFFFFF3B
00:0000CD98 7118223C
00:0000CD9C 991D443C
00:0000CDA0 980F663C        	  3587: .long     0x3C660F98, 0x3C87EE8D, 0x3CA9BA99, 0x3CCB73DB
00:0000CDA4 8DEE873C
00:0000CDA8 99BAA93C
00:0000CDAC DB73CB3C
00:0000CDB0 721AED3C        	  3588: .long     0x3CED1A72, 0x3D0EAE7E, 0x3D30301C, 0x3D519F6C
00:0000CDB4 7EAE0E3D
00:0000CDB8 1C30303D
00:0000CDBC 6C9F513D
00:0000CDC0 8AFC723D        	  3589: .long     0x3D72FC8A, 0x3D944794, 0x3DB580A9, 0x3DD6A7E4
00:0000CDC4 9447943D
00:0000CDC8 A980B53D
00:0000CDCC E4A7D63D
00:0000CDD0 62BDF73D        	  3590: .long     0x3DF7BD62, 0x3E18C140, 0x3E39B399, 0x3E5A948A
00:0000CDD4 40C1183E
00:0000CDD8 99B3393E
00:0000CDDC 8A945A3E
00:0000CDE0 2E647B3E        	  3591: .long     0x3E7B642E, 0x3E9C22A0, 0x3EBCCFFB, 0x3EDD6C59
00:0000CDE4 A0229C3E
00:0000CDE8 FBCFBC3E
00:0000CDEC 596CDD3E
00:0000CDF0 D6F7FD3E        	  3592: .long     0x3EFDF7D6, 0x3F1E728B, 0x3F3EDC92, 0x3F5F3605
00:0000CDF4 8B721E3F
00:0000CDF8 92DC3E3F
00:0000CDFC 05365F3F
00:0000CE00 FD7E7F3F        	  3593: .long     0x3F7F7EFD, 0x3F9FB792, 0x3FBFDFDF, 0x3FDFF7FB
00:0000CE04 92B79F3F
00:0000CE08 DFDFBF3F
00:0000CE0C FBF7DF3F
00:0000CE10 FFFFFF3F        	  3594: .long     0x3FFFFFFF, 0x401FF803, 0x403FE01F, 0x405FB86A
00:0000CE14 03F81F40
00:0000CE18 1FE03F40
00:0000CE1C 6AB85F40
00:0000CE20 FD807F40        	  3595: .long     0x407F80FD, 0x409F39ED, 0x40BEE353, 0x40DE7D44
00:0000CE24 ED399F40
00:0000CE28 53E3BE40
00:0000CE2C 447DDE40
00:0000CE30 D807FE40        	  3596: .long     0x40FE07D8, 0x411D8325, 0x413CEF40, 0x415C4C40
00:0000CE34 25831D41
00:0000CE38 40EF3C41
00:0000CE3C 404C5C41
00:0000CE40 3B9A7B41        	  3597: .long     0x417B9A3B, 0x419AD946, 0x41BA0976, 0x41D92AE0
00:0000CE44 46D99A41
00:0000CE48 7609BA41
00:0000CE4C E02AD941
00:0000CE50 9A3DF841        	  3598: .long     0x41F83D9A, 0x421741B8, 0x4236374E, 0x42551E71
00:0000CE54 B8411742
00:0000CE58 4E373642
00:0000CE5C 711E5542
00:0000CE60 35F77342        	  3599: .long     0x4273F735, 0x4292C1AF, 0x42B17DF1, 0x42D02C0F
00:0000CE64 AFC19242
00:0000CE68 F17DB142
00:0000CE6C 0F2CD042
00:0000CE70 1ECCEE42        	  3600: .long     0x42EECC1E, 0x430D5E30, 0x432BE257, 0x434A58A9
00:0000CE74 305E0D43
00:0000CE78 57E22B43
00:0000CE7C A9584A43
00:0000CE80 36C16843        	  3601: .long     0x4368C136, 0x43871C11, 0x43A5694E, 0x43C3A8FE
00:0000CE84 111C8743
00:0000CE88 4E69A543
00:0000CE8C FEA8C343
00:0000CE90 33DBE143        	  3602: .long     0x43E1DB33, 0x43FFFFFF, 0x441E1775, 0x443C21A5
00:0000CE94 FFFFFF43
00:0000CE98 75171E44
00:0000CE9C A5213C44
00:0000CEA0 A21E5A44        	  3603: .long     0x445A1EA2, 0x44780E7C, 0x4495F145, 0x44B3C70E
00:0000CEA4 7C0E7844
00:0000CEA8 45F19544
00:0000CEAC 0EC7B344
00:0000CEB0 E88FD144        	  3604: .long     0x44D18FE8, 0x44EF4BE3, 0x450CFB11, 0x452A9D81
00:0000CEB4 E34BEF44
00:0000CEB8 11FB0C45
00:0000CEBC 819D2A45
00:0000CEC0 44334845        	  3605: .long     0x45483344, 0x4565BC6A, 0x45833904, 0x45A0A921
00:0000CEC4 6ABC6545
00:0000CEC8 04398345
00:0000CECC 21A9A045
00:0000CED0 D10CBE45        	  3606: .long     0x45BE0CD1, 0x45DB6423, 0x45F8AF28, 0x4615EDEF
00:0000CED4 2364DB45
00:0000CED8 28AFF845
00:0000CEDC EFED1546
00:0000CEE0 87203346        	  3607: .long     0x46332087, 0x465046FE, 0x466D6165, 0x468A6FCB
00:0000CEE4 FE465046
00:0000CEE8 65616D46
00:0000CEEC CB6F8A46
00:0000CEF0 3D72A746        	  3608: .long     0x46A7723D, 0x46C468CB, 0x46E15383, 0x46FE3274
00:0000CEF4 CB68C446
00:0000CEF8 8353E146
00:0000CEFC 7432FE46
00:0000CF00 AC051B47        	  3609: .long     0x471B05AC, 0x4737CD39, 0x4754892A, 0x4771398C
00:0000CF04 39CD3747
00:0000CF08 2A895447
00:0000CF0C 8C397147
00:0000CF10 6EDE8D47        	  3610: .long     0x478DDE6E, 0x47AA77DC, 0x47C705E6, 0x47E38898
00:0000CF14 DC77AA47
00:0000CF18 E605C747
00:0000CF1C 9888E347
00:0000CF20 FFFFFF47        	  3611: .long     0x47FFFFFF, 0x481C6C2A, 0x4838CD26, 0x485522FF
00:0000CF24 2A6C1C48
00:0000CF28 26CD3848
00:0000CF2C FF225548
00:0000CF30 C36D7148        	  3612: .long     0x48716DC3, 0x488DAD7E, 0x48A9E23E, 0x48C60C10
00:0000CF34 7EAD8D48
00:0000CF38 3EE2A948
00:0000CF3C 100CC648
00:0000CF40 FF2AE248        	  3613: .long     0x48E22AFF, 0x48FE3F19, 0x491A486B, 0x493646FF
00:0000CF44 193FFE48
00:0000CF48 6B481A49
00:0000CF4C FF463649
00:0000CF50 E43A5249        	  3614: .long     0x49523AE4, 0x496E2424, 0x498A02CC, 0x49A5D6E9
00:0000CF54 24246E49
00:0000CF58 CC028A49
00:0000CF5C E9D6A549
00:0000CF60 86A0C149        	  3615: .long     0x49C1A086, 0x49DD5FAE, 0x49F9146E, 0x4A14BED2
00:0000CF64 AE5FDD49
00:0000CF68 6E14F949
00:0000CF6C D2BE144A
00:0000CF70 E45E304A        	  3616: .long     0x4A305EE4, 0x4A4BF4B1, 0x4A678044, 0x4A8301A8
00:0000CF74 B1F44B4A
00:0000CF78 4480674A
00:0000CF7C A801834A
00:0000CF80 E8789E4A        	  3617: .long     0x4A9E78E8, 0x4AB9E610, 0x4AD5492B, 0x4AF0A243
00:0000CF84 10E6B94A
00:0000CF88 2B49D54A
00:0000CF8C 43A2F04A
00:0000CF90 65F10B4B        	  3618: .long     0x4B0BF165, 0x4B273699, 0x4B4271ED, 0x4B5DA369
00:0000CF94 9936274B
00:0000CF98 ED71424B
00:0000CF9C 69A35D4B
00:0000CFA0 19CB784B        	  3619: .long     0x4B78CB19, 0x4B93E907, 0x4BAEFD3E, 0x4BCA07C8
00:0000CFA4 07E9934B
00:0000CFA8 3EFDAE4B
00:0000CFAC C807CA4B
00:0000CFB0 B008E54B        	  3620: .long     0x4BE508B0, 0x4BFFFFFF, 0x4C1AEDC1, 0x4C35D1FE
00:0000CFB4 FFFFFF4B
00:0000CFB8 C1ED1A4C
00:0000CFBC FED1354C
00:0000CFC0 C2AC504C        	  3621: .long     0x4C50ACC2, 0x4C6B7E16, 0x4C864604, 0x4CA10496
00:0000CFC4 167E6B4C
00:0000CFC8 0446864C
00:0000CFCC 9604A14C
00:0000CFD0 D5B9BB4C        	  3622: .long     0x4CBBB9D5, 0x4CD665CC, 0x4CF10884, 0x4D0BA207
00:0000CFD4 CC65D64C
00:0000CFD8 8408F14C
00:0000CFDC 07A20B4D
00:0000CFE0 5E32264D        	  3623: .long     0x4D26325E, 0x4D40B993, 0x4D5B37AE, 0x4D75ACBB
00:0000CFE4 93B9404D
00:0000CFE8 AE375B4D
00:0000CFEC BBAC754D
00:0000CFF0 C018904D        	  3624: .long     0x4D9018C0, 0x4DAA7BC9, 0x4DC4D5DE, 0x4DDF2708
00:0000CFF4 C97BAA4D
00:0000CFF8 DED5C44D
00:0000CFFC 0827DF4D
00:0000D000 4F6FF94D        	  3625: .long     0x4DF96F4F, 0x4E13AEBF, 0x4E2DE55E, 0x4E481336
00:0000D004 BFAE134E
00:0000D008 5EE52D4E
00:0000D00C 3613484E
00:0000D010 4F38624E        	  3626: .long     0x4E62384F, 0x4E7C54B3, 0x4E96686B, 0x4EB0737E
00:0000D014 B3547C4E
00:0000D018 6B68964E
00:0000D01C 7E73B04E
00:0000D020 F575CA4E        	  3627: .long     0x4ECA75F5, 0x4EE46FD9, 0x4EFE6132, 0x4F184A09
00:0000D024 D96FE44E
00:0000D028 3261FE4E
00:0000D02C 094A184F
00:0000D030 662A324F        	  3628: .long     0x4F322A66, 0x4F4C0251, 0x4F65D1D3, 0x4F7F98F4
00:0000D034 51024C4F
00:0000D038 D3D1654F
00:0000D03C F4987F4F
00:0000D040 BB57994F        	  3629: .long     0x4F9957BB, 0x4FB30E32, 0x4FCCBC5F, 0x4FE6624C
00:0000D044 320EB34F
00:0000D048 5FBCCC4F
00:0000D04C 4C62E64F
00:0000D050 FFFFFF4F        	  3630: .long     0x4FFFFFFF, 0x50199582, 0x503322DB, 0x504CA812
00:0000D054 82951950
00:0000D058 DB223350
00:0000D05C 12A84C50
00:0000D060 30256650        	  3631: .long     0x50662530, 0x507F9A3B, 0x5099073D, 0x50B26C3B
00:0000D064 3B9A7F50
00:0000D068 3D079950
00:0000D06C 3B6CB250
00:0000D070 3EC9CB50        	  3632: .long     0x50CBC93E, 0x50E51E4D, 0x50FE6B70, 0x5117B0AE
00:0000D074 4D1EE550
00:0000D078 706BFE50
00:0000D07C AEB01751
00:0000D080 0FEE3051        	  3633: .long     0x5130EE0F, 0x514A2399, 0x51635155, 0x517C7748
00:0000D084 99234A51
00:0000D088 55516351
00:0000D08C 48777C51
00:0000D090 7C959551        	  3634: .long     0x5195957C, 0x51AEABF5, 0x51C7BABD, 0x51E0C1DA
00:0000D094 F5ABAE51
00:0000D098 BDBAC751
00:0000D09C DAC1E051
00:0000D0A0 52C1F951        	  3635: .long     0x51F9C152, 0x5212B92D, 0x522BA972, 0x52449228
00:0000D0A4 2DB91252
00:0000D0A8 72A92B52
00:0000D0AC 28924452
00:0000D0B0 55735D52        	  3636: .long     0x525D7355, 0x52764D01, 0x528F1F31, 0x52A7E9EE
00:0000D0B4 014D7652
00:0000D0B8 311F8F52
00:0000D0BC EEE9A752
00:0000D0C0 3DADC052        	  3637: .long     0x52C0AD3D, 0x52D96926, 0x52F21DAE, 0x530ACADD
00:0000D0C4 2669D952
00:0000D0C8 AE1DF252
00:0000D0CC DDCA0A53
00:0000D0D0 B8702353        	  3638: .long     0x532370B8, 0x533C0F47, 0x5354A691, 0x536D369A
00:0000D0D4 470F3C53
00:0000D0D8 91A65453
00:0000D0DC 9A366D53
00:0000D0E0 6ABF8553        	  3639: .long     0x5385BF6A, 0x539E4108, 0x53B6BB79, 0x53CF2EC4
00:0000D0E4 08419E53
00:0000D0E8 79BBB653
00:0000D0EC C42ECF53
00:0000D0F0 EE9AE753        	  3640: .long     0x53E79AEE, 0x53FFFFFF, 0x54185DFD, 0x5430B4EC
00:0000D0F4 FFFFFF53
00:0000D0F8 FD5D1854
00:0000D0FC ECB43054
00:0000D100 D5044954        	  3641: .long     0x544904D5, 0x54614DBC, 0x54798FA8, 0x5491CA9F
00:0000D104 BC4D6154
00:0000D108 A88F7954
00:0000D10C 9FCA9154
00:0000D110 A7FEA954        	  3642: .long     0x54A9FEA7, 0x54C22BC5, 0x54DA5200, 0x54F2715D
00:0000D114 C52BC254
00:0000D118 0052DA54
00:0000D11C 5D71F254
00:0000D120 E3890A55        	  3643: .long     0x550A89E3, 0x55229B96, 0x553AA67E, 0x5552AA9F
00:0000D124 969B2255
00:0000D128 7EA63A55
00:0000D12C 9FAA5255
00:0000D130 00A86A55        	  3644: .long     0x556AA800, 0x55829EA6, 0x559A8E96, 0x55B277D7
00:0000D134 A69E8255
00:0000D138 968E9A55
00:0000D13C D777B255
00:0000D140 6D5ACA55        	  3645: .long     0x55CA5A6D, 0x55E23660, 0x55FA0BB3, 0x5611DA6C
00:0000D144 6036E255
00:0000D148 B30BFA55
00:0000D14C 6CDA1156
00:0000D150 92A22956        	  3646: .long     0x5629A292, 0x56416429, 0x56591F37, 0x5670D3C1
00:0000D154 29644156
00:0000D158 371F5956
00:0000D15C C1D37056
00:0000D160 CC818856        	  3647: .long     0x568881CC, 0x56A0295F, 0x56B7CA7E, 0x56CF652E
00:0000D164 5F29A056
00:0000D168 7ECAB756
00:0000D16C 2E65CF56
00:0000D170 75F9E656        	  3648: .long     0x56E6F975, 0x56FE8757, 0x57160EDB, 0x572D9005
00:0000D174 5787FE56
00:0000D178 DB0E1657
00:0000D17C 05902D57
00:0000D180 DB0A4557        	  3649: .long     0x57450ADB, 0x575C7F61, 0x5773ED9C, 0x578B5592
00:0000D184 617F5C57
00:0000D188 9CED7357
00:0000D18C 92558B57
00:0000D190 48B7A257        	  3650: .long     0x57A2B748, 0x57BA12C3, 0x57D16807, 0x57E8B719
00:0000D194 C312BA57
00:0000D198 0768D157
00:0000D19C 19B7E857
00:0000D1A0 FFFFFF57        	  3651: .long     0x57FFFFFF, 0x581742BE, 0x582E7F59, 0x5845B5D7
00:0000D1A4 BE421758
00:0000D1A8 597F2E58
00:0000D1AC D7B54558
00:0000D1B0 3CE65C58        	  3652: .long     0x585CE63C, 0x5874108C, 0x588B34CD, 0x58A25303
00:0000D1B4 8C107458
00:0000D1B8 CD348B58
00:0000D1BC 0353A258
00:0000D1C0 336BB958        	  3653: .long     0x58B96B33, 0x58D07D62, 0x58E78994, 0x58FE8FCE
00:0000D1C4 627DD058
00:0000D1C8 9489E758
00:0000D1CC CE8FFE58
00:0000D1D0 15901559        	  3654: .long     0x59159015, 0x592C8A6D, 0x59437EDA, 0x595A6D62
00:0000D1D4 6D8A2C59
00:0000D1D8 DA7E4359
00:0000D1DC 626D5A59
00:0000D1E0 09567159        	  3655: .long     0x59715609, 0x598838D3, 0x599F15C6, 0x59B5ECE4
00:0000D1E4 D3388859
00:0000D1E8 C6159F59
00:0000D1EC E4ECB559
00:0000D1F0 33BECC59        	  3656: .long     0x59CCBE33, 0x59E389B8, 0x59FA4F76, 0x5A110F72
00:0000D1F4 B889E359
00:0000D1F8 764FFA59
00:0000D1FC 720F115A
00:0000D200 B1C9275A        	  3657: .long     0x5A27C9B1, 0x5A3E7E36, 0x5A552D06, 0x5A6BD626
00:0000D204 367E3E5A
00:0000D208 062D555A
00:0000D20C 26D66B5A
00:0000D210 9979825A        	  3658: .long     0x5A827999, 0x5A991764, 0x5AAFAF8B, 0x5AC64213
00:0000D214 6417995A
00:0000D218 8BAFAF5A
00:0000D21C 1342C65A
00:0000D220 FFCEDC5A        	  3659: .long     0x5ADCCEFF, 0x5AF35653, 0x5B09D814, 0x5B205447
00:0000D224 5356F35A
00:0000D228 14D8095B
00:0000D22C 4754205B
00:0000D230 EECA365B        	  3660: .long     0x5B36CAEE, 0x5B4D3C0E, 0x5B63A7AC, 0x5B7A0DCB
00:0000D234 0E3C4D5B
00:0000D238 ACA7635B
00:0000D23C CB0D7A5B
00:0000D240 6F6E905B        	  3661: .long     0x5B906E6F, 0x5BA6C99D, 0x5BBD1F57, 0x5BD36FA4
00:0000D244 9DC9A65B
00:0000D248 571FBD5B
00:0000D24C A46FD35B
00:0000D250 85BAE95B        	  3662: .long     0x5BE9BA85, 0x5BFFFFFF, 0x5C164017, 0x5C2C7ACF
00:0000D254 FFFFFF5B
00:0000D258 1740165C
00:0000D25C CF7A2C5C
00:0000D260 2DB0425C        	  3663: .long     0x5C42B02D, 0x5C58E033, 0x5C6F0AE6, 0x5C853049
00:0000D264 33E0585C
00:0000D268 E60A6F5C
00:0000D26C 4930855C
00:0000D270 60509B5C        	  3664: .long     0x5C9B5060, 0x5CB16B2F, 0x5CC780BB, 0x5CDD9105
00:0000D274 2F6BB15C
00:0000D278 BB80C75C
00:0000D27C 0591DD5C
00:0000D280 139CF35C        	  3665: .long     0x5CF39C13, 0x5D09A1E8, 0x5D1FA288, 0x5D359DF6
00:0000D284 E8A1095D
00:0000D288 88A21F5D
00:0000D28C F69D355D
00:0000D290 36944B5D        	  3666: .long     0x5D4B9436, 0x5D61854C, 0x5D77713B, 0x5D8D5807
00:0000D294 4C85615D
00:0000D298 3B71775D
00:0000D29C 07588D5D
00:0000D2A0 B439A35D        	  3667: .long     0x5DA339B4, 0x5DB91645, 0x5DCEEDBE, 0x5DE4C022
00:0000D2A4 4516B95D
00:0000D2A8 BEEDCE5D
00:0000D2AC 22C0E45D
00:0000D2B0 758DFA5D        	  3668: .long     0x5DFA8D75, 0x5E1055BA, 0x5E2618F5, 0x5E3BD72A
00:0000D2B4 BA55105E
00:0000D2B8 F518265E
00:0000D2BC 2AD73B5E
00:0000D2C0 5B90515E        	  3669: .long     0x5E51905B, 0x5E67448D, 0x5E7CF3C2, 0x5E929DFE
00:0000D2C4 8D44675E
00:0000D2C8 C2F37C5E
00:0000D2CC FE9D925E
00:0000D2D0 4643A85E        	  3670: .long     0x5EA84346, 0x5EBDE39B, 0x5ED37F01, 0x5EE9157C
00:0000D2D4 9BE3BD5E
00:0000D2D8 017FD35E
00:0000D2DC 7C15E95E
00:0000D2E0 10A7FE5E        	  3671: .long     0x5EFEA710, 0x5F1433BE, 0x5F29BB8C, 0x5F3F3E7B
00:0000D2E4 BE33145F
00:0000D2E8 8CBB295F
00:0000D2EC 7B3E3F5F
00:0000D2F0 90BC545F        	  3672: .long     0x5F54BC90, 0x5F6A35CE, 0x5F7FAA37, 0x5F9519D0
00:0000D2F4 CE356A5F
00:0000D2F8 37AA7F5F
00:0000D2FC D019955F
00:0000D300 9B84AA5F        	  3673: .long     0x5FAA849B, 0x5FBFEA9C, 0x5FD54BD5, 0x5FEAA84B
00:0000D304 9CEABF5F
00:0000D308 D54BD55F
00:0000D30C 4BA8EA5F
00:0000D310 FFFFFF5F        	  3674: .long     0x5FFFFFFF, 0x601552F6, 0x602AA132, 0x603FEAB8
00:0000D314 F6521560
00:0000D318 32A12A60
00:0000D31C B8EA3F60
00:0000D320 892F5560        	  3675: .long     0x60552F89, 0x606A6FA9, 0x607FAB1A, 0x6094E1E1
00:0000D324 A96F6A60
00:0000D328 1AAB7F60
00:0000D32C E1E19460
00:0000D330 0114AA60        	  3676: .long     0x60AA1401, 0x60BF417B, 0x60D46A54, 0x60E98E8E
00:0000D334 7B41BF60
00:0000D338 546AD460
00:0000D33C 8E8EE960
00:0000D340 2CAEFE60        	  3677: .long     0x60FEAE2C, 0x6113C932, 0x6128DFA2, 0x613DF17F
00:0000D344 32C91361
00:0000D348 A2DF2861
00:0000D34C 7FF13D61
00:0000D350 CCFE5261        	  3678: .long     0x6152FECC, 0x6168078D, 0x617D0BC4, 0x61920B74
00:0000D354 8D076861
00:0000D358 C40B7D61
00:0000D35C 740B9261
00:0000D360 A006A761        	  3679: .long     0x61A706A0, 0x61BBFD4B, 0x61D0EF78, 0x61E5DD2A
00:0000D364 4BFDBB61
00:0000D368 78EFD061
00:0000D36C 2ADDE561
00:0000D370 63C6FA61        	  3680: .long     0x61FAC663, 0x620FAB27, 0x62248B78, 0x62396759
00:0000D374 27AB0F62
00:0000D378 788B2462
00:0000D37C 59673962
00:0000D380 CD3E4E62        	  3681: .long     0x624E3ECD, 0x626311D7, 0x6277E079, 0x628CAAB7
00:0000D384 D7116362
00:0000D388 79E07762
00:0000D38C B7AA8C62
00:0000D390 9370A162        	  3682: .long     0x62A17093, 0x62B6320F, 0x62CAEF30, 0x62DFA7F7
00:0000D394 0F32B662
00:0000D398 30EFCA62
00:0000D39C F7A7DF62
00:0000D3A0 675CF462        	  3683: .long     0x62F45C67, 0x63090C83, 0x631DB84D, 0x63325FC9
00:0000D3A4 830C0963
00:0000D3A8 4DB81D63
00:0000D3AC C95F3263
00:0000D3B0 F9024763        	  3684: .long     0x634702F9, 0x635BA1DF, 0x63703C7F, 0x6384D2DA
00:0000D3B4 DFA15B63
00:0000D3B8 7F3C7063
00:0000D3BC DAD28463
00:0000D3C0 F5649963        	  3685: .long     0x639964F5, 0x63ADF2D0, 0x63C27C6F, 0x63D701D5
00:0000D3C4 D0F2AD63
00:0000D3C8 6F7CC263
00:0000D3CC D501D763
00:0000D3D0 0483EB63        	  3686: .long     0x63EB8304, 0x63FFFFFF, 0x641478C8, 0x6428ED61
00:0000D3D4 FFFFFF63
00:0000D3D8 C8781464
00:0000D3DC 61ED2864
00:0000D3E0 CE5D3D64        	  3687: .long     0x643D5DCE, 0x6451CA11, 0x6466322D, 0x647A9623
00:0000D3E4 11CA5164
00:0000D3E8 2D326664
00:0000D3EC 23967A64
00:0000D3F0 F7F58E64        	  3688: .long     0x648EF5F7, 0x64A351AB, 0x64B7A942, 0x64CBFCBE
00:0000D3F4 AB51A364
00:0000D3F8 42A9B764
00:0000D3FC BEFCCB64
00:0000D400 214CE064        	  3689: .long     0x64E04C21, 0x64F4976E, 0x6508DEA8, 0x651D21D0
00:0000D404 6E97F464
00:0000D408 A8DE0865
00:0000D40C D0211D65
00:0000D410 EA603165        	  3690: .long     0x653160EA, 0x65459BF8, 0x6559D2FC, 0x656E05F8
00:0000D414 F89B4565
00:0000D418 FCD25965
00:0000D41C F8056E65
00:0000D420 F0348265        	  3691: .long     0x658234F0, 0x65965FE5, 0x65AA86DA, 0x65BEA9D0
00:0000D424 E55F9665
00:0000D428 DA86AA65
00:0000D42C D0A9BE65
00:0000D430 CCC8D265        	  3692: .long     0x65D2C8CC, 0x65E6E3CE, 0x65FAFADA, 0x660F0DF1
00:0000D434 CEE3E665
00:0000D438 DAFAFA65
00:0000D43C F10D0F66
00:0000D440 171D2366        	  3693: .long     0x66231D17, 0x6637284C, 0x664B2F94, 0x665F32F1
00:0000D444 4C283766
00:0000D448 942F4B66
00:0000D44C F1325F66
00:0000D450 65327366        	  3694: .long     0x66733265, 0x66872DF3, 0x669B259C, 0x66AF1963
00:0000D454 F32D8766
00:0000D458 9C259B66
00:0000D45C 6319AF66
00:0000D460 4B09C366        	  3695: .long     0x66C3094B, 0x66D6F555, 0x66EADD84, 0x66FEC1DA
00:0000D464 55F5D666
00:0000D468 84DDEA66
00:0000D46C DAC1FE66
00:0000D470 59A21267        	  3696: .long     0x6712A259, 0x67267F04, 0x673A57DC, 0x674E2CE4
00:0000D474 047F2667
00:0000D478 DC573A67
00:0000D47C E42C4E67
00:0000D480 1EFE6167        	  3697: .long     0x6761FE1E, 0x6775CB8D, 0x67899532, 0x679D5B0F
00:0000D484 8DCB7567
00:0000D488 32958967
00:0000D48C 0F5B9D67
00:0000D490 271DB167        	  3698: .long     0x67B11D27, 0x67C4DB7C, 0x67D89611, 0x67EC4CE6
00:0000D494 7CDBC467
00:0000D498 1196D867
00:0000D49C E64CEC67
00:0000D4A0 FFFFFF67        	  3699: .long     0x67FFFFFF, 0x6813AF5D, 0x68275B03, 0x683B02F2
00:0000D4A4 5DAF1368
00:0000D4A8 035B2768
00:0000D4AC F2023B68
00:0000D4B0 2DA74E68        	  3700: .long     0x684EA72D, 0x686247B6, 0x6875E48F, 0x68897DBA
00:0000D4B4 B6476268
00:0000D4B8 8FE47568
00:0000D4BC BA7D8968
00:0000D4C0 39139D68        	  3701: .long     0x689D1339, 0x68B0A50E, 0x68C4333C, 0x68D7BDC3
00:0000D4C4 0EA5B068
00:0000D4C8 3C33C468
00:0000D4CC C3BDD768
00:0000D4D0 A744EB68        	  3702: .long     0x68EB44A7, 0x68FEC7E9, 0x6912478C, 0x6925C391
00:0000D4D4 E9C7FE68
00:0000D4D8 8C471269
00:0000D4DC 91C32569
00:0000D4E0 FA3B3969        	  3703: .long     0x69393BFA, 0x694CB0CA, 0x69602202, 0x69738FA4
00:0000D4E4 CAB04C69
00:0000D4E8 02226069
00:0000D4EC A48F7369
00:0000D4F0 B3F98669        	  3704: .long     0x6986F9B3, 0x699A6030, 0x69ADC31D, 0x69C1227C
00:0000D4F4 30609A69
00:0000D4F8 1DC3AD69
00:0000D4FC 7C22C169
00:0000D500 507ED469        	  3705: .long     0x69D47E50, 0x69E7D69A, 0x69FB2B5B, 0x6A0E7C97
00:0000D504 9AD6E769
00:0000D508 5B2BFB69
00:0000D50C 977C0E6A
00:0000D510 4FCA216A        	  3706: .long     0x6A21CA4F, 0x6A351484, 0x6A485B39, 0x6A5B9E70
00:0000D514 8414356A
00:0000D518 395B486A
00:0000D51C 709E5B6A
00:0000D520 2BDE6E6A        	  3707: .long     0x6A6EDE2B, 0x6A821A6A, 0x6A955332, 0x6AA88882
00:0000D524 6A1A826A
00:0000D528 3253956A
00:0000D52C 8288A86A
00:0000D530 5DBABB6A        	  3708: .long     0x6ABBBA5D, 0x6ACEE8C5, 0x6AE213BD, 0x6AF53B44
00:0000D534 C5E8CE6A
00:0000D538 BD13E26A
00:0000D53C 443BF56A
00:0000D540 5E5F086B        	  3709: .long     0x6B085F5E, 0x6B1B800D, 0x6B2E9D51, 0x6B41B72E
00:0000D544 0D801B6B
00:0000D548 519D2E6B
00:0000D54C 2EB7416B
00:0000D550 A4CD546B        	  3710: .long     0x6B54CDA4, 0x6B67E0B6, 0x6B7AF066, 0x6B8DFCB4
00:0000D554 B6E0676B
00:0000D558 66F07A6B
00:0000D55C B4FC8D6B
00:0000D560 A405A16B        	  3711: .long     0x6BA105A4, 0x6BB40B36, 0x6BC70D6D, 0x6BDA0C4A
00:0000D564 360BB46B
00:0000D568 6D0DC76B
00:0000D56C 4A0CDA6B
00:0000D570 D007ED6B        	  3712: .long     0x6BED07D0, 0x6BFFFFFF, 0x6C12F4DA, 0x6C25E662
00:0000D574 FFFFFF6B
00:0000D578 DAF4126C
00:0000D57C 62E6256C
00:0000D580 99D4386C        	  3713: .long     0x6C38D499, 0x6C4BBF81, 0x6C5EA71C, 0x6C718B6B
00:0000D584 81BF4B6C
00:0000D588 1CA75E6C
00:0000D58C 6B8B716C
00:0000D590 716C846C        	  3714: .long     0x6C846C71, 0x6C974A2D, 0x6CAA24A4, 0x6CBCFBD5
00:0000D594 2D4A976C
00:0000D598 A424AA6C
00:0000D59C D5FBBC6C
00:0000D5A0 C4CFCF6C        	  3715: .long     0x6CCFCFC4, 0x6CE2A071, 0x6CF56DDE, 0x6D08380D
00:0000D5A4 71A0E26C
00:0000D5A8 DE6DF56C
00:0000D5AC 0D38086D
00:0000D5B0 00FF1A6D        	  3716: .long     0x6D1AFF00, 0x6D2DC2B8, 0x6D408337, 0x6D53407F
00:0000D5B4 B8C22D6D
00:0000D5B8 3783406D
00:0000D5BC 7F40536D
00:0000D5C0 91FA656D        	  3717: .long     0x6D65FA91, 0x6D78B16F, 0x6D8B651A, 0x6D9E1594
00:0000D5C4 6FB1786D
00:0000D5C8 1A658B6D
00:0000D5CC 94159E6D
00:0000D5D0 E0C2B06D        	  3718: .long     0x6DB0C2E0, 0x6DC36CFD, 0x6DD613EF, 0x6DE8B7B7
00:0000D5D4 FD6CC36D
00:0000D5D8 EF13D66D
00:0000D5DC B7B7E86D
00:0000D5E0 5558FB6D        	  3719: .long     0x6DFB5855, 0x6E0DF5CD, 0x6E20901F, 0x6E33274D
00:0000D5E4 CDF50D6E
00:0000D5E8 1F90206E
00:0000D5EC 4D27336E
00:0000D5F0 59BB456E        	  3720: .long     0x6E45BB59, 0x6E584C44, 0x6E6ADA10, 0x6E7D64BE
00:0000D5F4 444C586E
00:0000D5F8 10DA6A6E
00:0000D5FC BE647D6E
00:0000D600 50EC8F6E        	  3721: .long     0x6E8FEC50, 0x6EA270C8, 0x6EB4F227, 0x6EC7706E
00:0000D604 C870A26E
00:0000D608 27F2B46E
00:0000D60C 6E70C76E
00:0000D610 A0EBD96E        	  3722: .long     0x6ED9EBA0, 0x6EEC63BE, 0x6EFED8C8, 0x6F114AC2
00:0000D614 BE63EC6E
00:0000D618 C8D8FE6E
00:0000D61C C24A116F
00:0000D620 ABB9236F        	  3723: .long     0x6F23B9AB, 0x6F362587, 0x6F488E56, 0x6F5AF41A
00:0000D624 8725366F
00:0000D628 568E486F
00:0000D62C 1AF45A6F
00:0000D630 D4566D6F        	  3724: .long     0x6F6D56D4, 0x6F7FB686, 0x6F921332, 0x6FA46CD8
00:0000D634 86B67F6F
00:0000D638 3213926F
00:0000D63C D86CA46F
00:0000D640 7BC3B66F        	  3725: .long     0x6FB6C37B, 0x6FC9171B, 0x6FDB67BB, 0x6FEDB55C
00:0000D644 1B17C96F
00:0000D648 BB67DB6F
00:0000D64C 5CB5ED6F
00:0000D650 FFFFFF6F        	  3726: .long     0x6FFFFFFF, 0x701247A5, 0x70248C51, 0x7036CE04
00:0000D654 A5471270
00:0000D658 518C2470
00:0000D65C 04CE3670
00:0000D660 BE0C4970        	  3727: .long     0x70490CBE, 0x705B4883, 0x706D8152, 0x707FB72D
00:0000D664 83485B70
00:0000D668 52816D70
00:0000D66C 2DB77F70
00:0000D670 17EA9170        	  3728: .long     0x7091EA17, 0x70A41A0F, 0x70B64719, 0x70C87134
00:0000D674 0F1AA470
00:0000D678 1947B670
00:0000D67C 3471C870
00:0000D680 6398DA70        	  3729: .long     0x70DA9863, 0x70ECBCA7, 0x70FEDE02, 0x7110FC74
00:0000D684 A7BCEC70
00:0000D688 02DEFE70
00:0000D68C 74FC1071
00:0000D690 FF172371        	  3730: .long     0x712317FF, 0x713530A5, 0x71474667, 0x71595946
00:0000D694 A5303571
00:0000D698 67464771
00:0000D69C 46595971
00:0000D6A0 44696B71        	  3731: .long     0x716B6944, 0x717D7661, 0x718F80A1, 0x71A18803
00:0000D6A4 61767D71
00:0000D6A8 A1808F71
00:0000D6AC 0388A171
00:0000D6B0 898CB371        	  3732: .long     0x71B38C89, 0x71C58E35, 0x71D78D08, 0x71E98902
00:0000D6B4 358EC571
00:0000D6B8 088DD771
00:0000D6BC 0289E971
00:0000D6C0 2782FB71        	  3733: .long     0x71FB8227, 0x720D7876, 0x721F6BF2, 0x72315C9B
00:0000D6C4 76780D72
00:0000D6C8 F26B1F72
00:0000D6CC 9B5C3172
00:0000D6D0 734A4372        	  3734: .long     0x72434A73, 0x7255357C, 0x72671DB6, 0x72790323
00:0000D6D4 7C355572
00:0000D6D8 B61D6772
00:0000D6DC 23037972
00:0000D6E0 C4E58A72        	  3735: .long     0x728AE5C4, 0x729CC59A, 0x72AEA2A8, 0x72C07CED
00:0000D6E4 9AC59C72
00:0000D6E8 A8A2AE72
00:0000D6EC ED7CC072
00:0000D6F0 6C54D272        	  3736: .long     0x72D2546C, 0x72E42926, 0x72F5FB1B, 0x7307CA4E
00:0000D6F4 2629E472
00:0000D6F8 1BFBF572
00:0000D6FC 4ECA0773
00:0000D700 C0961973        	  3737: .long     0x731996C0, 0x732B6071, 0x733D2763, 0x734EEB98
00:0000D704 71602B73
00:0000D708 63273D73
00:0000D70C 98EB4E73
00:0000D710 10AD6073        	  3738: .long     0x7360AD10, 0x73726BCE, 0x738427D1, 0x7395E11C
00:0000D714 CE6B7273
00:0000D718 D1278473
00:0000D71C 1CE19573
00:0000D720 AF97A773        	  3739: .long     0x73A797AF, 0x73B94B8D, 0x73CAFCB6, 0x73DCAB2B
00:0000D724 8D4BB973
00:0000D728 B6FCCA73
00:0000D72C 2BABDC73
00:0000D730 ED56EE73        	  3740: .long     0x73EE56ED, 0x73FFFFFF, 0x7411A660, 0x74234A13
00:0000D734 FFFFFF73
00:0000D738 60A61174
00:0000D73C 134A2374
00:0000D740 19EB3474        	  3741: .long     0x7434EB19, 0x74468972, 0x74582520, 0x7469BE25
00:0000D744 72894674
00:0000D748 20255874
00:0000D74C 25BE6974
00:0000D750 81547B74        	  3742: .long     0x747B5481, 0x748CE835, 0x749E7943, 0x74B007AC
00:0000D754 35E88C74
00:0000D758 43799E74
00:0000D75C AC07B074
00:0000D760 7293C174        	  3743: .long     0x74C19372, 0x74D31C95, 0x74E4A316, 0x74F626F7
00:0000D764 951CD374
00:0000D768 16A3E474
00:0000D76C F726F674
00:0000D770 39A80775        	  3744: .long     0x7507A839, 0x751926DD, 0x752AA2E5, 0x753C1C50
00:0000D774 DD261975
00:0000D778 E5A22A75
00:0000D77C 501C3C75
00:0000D780 22934D75        	  3745: .long     0x754D9322, 0x755F075A, 0x757078FA, 0x7581E804
00:0000D784 5A075F75
00:0000D788 FA787075
00:0000D78C 04E88175
00:0000D790 77549375        	  3746: .long     0x75935477, 0x75A4BE56, 0x75B625A1, 0x75C78A5A
00:0000D794 56BEA475
00:0000D798 A125B675
00:0000D79C 5A8AC775
00:0000D7A0 82ECD875        	  3747: .long     0x75D8EC82, 0x75EA4C1A, 0x75FBA923, 0x760D039E
00:0000D7A4 1A4CEA75
00:0000D7A8 23A9FB75
00:0000D7AC 9E030D76
00:0000D7B0 8C5B1E76        	  3748: .long     0x761E5B8C, 0x762FB0EF, 0x764103C8, 0x76525417
00:0000D7B4 EFB02F76
00:0000D7B8 C8034176
00:0000D7BC 17545276
00:0000D7C0 DEA16376        	  3749: .long     0x7663A1DE, 0x7674ED1D, 0x768635D7, 0x76977C0C
00:0000D7C4 1DED7476
00:0000D7C8 D7358676
00:0000D7CC 0C7C9776
00:0000D7D0 BDBFA876        	  3750: .long     0x76A8BFBD, 0x76BA00EC, 0x76CB3F99, 0x76DC7BC5
00:0000D7D4 EC00BA76
00:0000D7D8 993FCB76
00:0000D7DC C57BDC76
00:0000D7E0 72B5ED76        	  3751: .long     0x76EDB572, 0x76FEECA1, 0x77102152, 0x77215388
00:0000D7E4 A1ECFE76
00:0000D7E8 52211077
00:0000D7EC 88532177
00:0000D7F0 42833277        	  3752: .long     0x77328342, 0x7743B082, 0x7754DB49, 0x77660399
00:0000D7F4 82B04377
00:0000D7F8 49DB5477
00:0000D7FC 99036677
00:0000D800 71297777        	  3753: .long     0x77772971, 0x77884CD4, 0x77996DC2, 0x77AA8C3D
00:0000D804 D44C8877
00:0000D808 C26D9977
00:0000D80C 3D8CAA77
00:0000D810 44A8BB77        	  3754: .long     0x77BBA844, 0x77CCC1DB, 0x77DDD900, 0x77EEEDB7
00:0000D814 DBC1CC77
00:0000D818 00D9DD77
00:0000D81C B7EDEE77
00:0000D820 FFFFFF77        	  3755: .long     0x77FFFFFF, 0x78110FD9, 0x78221D48, 0x7833284A
00:0000D824 D90F1178
00:0000D828 481D2278
00:0000D82C 4A283378
00:0000D830 E3304478        	  3756: .long     0x784430E3, 0x78553712, 0x78663AD9, 0x78773C39
00:0000D834 12375578
00:0000D838 D93A6678
00:0000D83C 393C7778
00:0000D840 333B8878        	  3757: .long     0x78883B33, 0x789937C8, 0x78AA31F8, 0x78BB29C5
00:0000D844 C8379978
00:0000D848 F831AA78
00:0000D84C C529BB78
00:0000D850 301FCC78        	  3758: .long     0x78CC1F30, 0x78DD123A, 0x78EE02E4, 0x78FEF12E
00:0000D854 3A12DD78
00:0000D858 E402EE78
00:0000D85C 2EF1FE78
00:0000D860 1BDD0F79        	  3759: .long     0x790FDD1B, 0x7920C6AA, 0x7931ADDD, 0x794292B5
00:0000D864 AAC62079
00:0000D868 DDAD3179
00:0000D86C B5924279
00:0000D870 32755379        	  3760: .long     0x79537532, 0x79645557, 0x79753323, 0x79860E98
00:0000D874 57556479
00:0000D878 23337579
00:0000D87C 980E8679
00:0000D880 B6E79679        	  3761: .long     0x7996E7B6, 0x79A7BE80, 0x79B892F5, 0x79C96516
00:0000D884 80BEA779
00:0000D888 F592B879
00:0000D88C 1665C979
00:0000D890 E534DA79        	  3762: .long     0x79DA34E5, 0x79EB0263, 0x79FBCD90, 0x7A0C966D
00:0000D894 6302EB79
00:0000D898 90CDFB79
00:0000D89C 6D960C7A
00:0000D8A0 FC5C1D7A        	  3763: .long     0x7A1D5CFC, 0x7A2E213E, 0x7A3EE332, 0x7A4FA2DB
00:0000D8A4 3E212E7A
00:0000D8A8 32E33E7A
00:0000D8AC DBA24F7A
00:0000D8B0 3960607A        	  3764: .long     0x7A606039, 0x7A711B4D, 0x7A81D419, 0x7A928A9C
00:0000D8B4 4D1B717A
00:0000D8B8 19D4817A
00:0000D8BC 9C8A927A
00:0000D8C0 D83EA37A        	  3765: .long     0x7AA33ED8, 0x7AB3F0CE, 0x7AC4A07F, 0x7AD54DEB
00:0000D8C4 CEF0B37A
00:0000D8C8 7FA0C47A
00:0000D8CC EB4DD57A
00:0000D8D0 14F9E57A        	  3766: .long     0x7AE5F914, 0x7AF6A1FB, 0x7B0748A0, 0x7B17ED05
00:0000D8D4 FBA1F67A
00:0000D8D8 A048077B
00:0000D8DC 05ED177B
00:0000D8E0 298F287B        	  3767: .long     0x7B288F29, 0x7B392F0F, 0x7B49CCB8, 0x7B5A6823
00:0000D8E4 0F2F397B
00:0000D8E8 B8CC497B
00:0000D8EC 23685A7B
00:0000D8F0 52016B7B        	  3768: .long     0x7B6B0152, 0x7B7B9846, 0x7B8C2D00, 0x7B9CBF80
00:0000D8F4 46987B7B
00:0000D8F8 002D8C7B
00:0000D8FC 80BF9C7B
00:0000D900 C84FAD7B        	  3769: .long     0x7BAD4FC8, 0x7BBDDDD8, 0x7BCE69B1, 0x7BDEF355
00:0000D904 D8DDBD7B
00:0000D908 B169CE7B
00:0000D90C 55F3DE7B
00:0000D910 C47AEF7B        	  3770: .long     0x7BEF7AC4, 0x7BFFFFFF, 0x7C108306, 0x7C2103DC
00:0000D914 FFFFFF7B
00:0000D918 0683107C
00:0000D91C DC03217C
00:0000D920 8082317C        	  3771: .long     0x7C318280, 0x7C41FEF3, 0x7C527937, 0x7C62F14C
00:0000D924 F3FE417C
00:0000D928 3779527C
00:0000D92C 4CF1627C
00:0000D930 3267737C        	  3772: .long     0x7C736732, 0x7C83DAEC, 0x7C944C7A, 0x7CA4BBDC
00:0000D934 ECDA837C
00:0000D938 7A4C947C
00:0000D93C DCBBA47C
00:0000D940 1429B57C        	  3773: .long     0x7CB52914, 0x7CC59423, 0x7CD5FD08, 0x7CE663C6
00:0000D944 2394C57C
00:0000D948 08FDD57C
00:0000D94C C663E67C
00:0000D950 5CC8F67C        	  3774: .long     0x7CF6C85C, 0x7D072ACC, 0x7D178B17, 0x7D27E93D
00:0000D954 CC2A077D
00:0000D958 178B177D
00:0000D95C 3DE9277D
00:0000D960 4045387D        	  3775: .long     0x7D384540, 0x7D489F20, 0x7D58F6DD, 0x7D694C7A
00:0000D964 209F487D
00:0000D968 DDF6587D
00:0000D96C 7A4C697D
00:0000D970 F69F797D        	  3776: .long     0x7D799FF6, 0x7D89F153, 0x7D9A4090, 0x7DAA8DB0
00:0000D974 53F1897D
00:0000D978 90409A7D
00:0000D97C B08DAA7D
00:0000D980 B3D8BA7D        	  3777: .long     0x7DBAD8B3, 0x7DCB219A, 0x7DDB6865, 0x7DEBAD16
00:0000D984 9A21CB7D
00:0000D988 6568DB7D
00:0000D98C 16ADEB7D
00:0000D990 ADEFFB7D        	  3778: .long     0x7DFBEFAD, 0x7E0C302B, 0x7E1C6E91, 0x7E2CAADF
00:0000D994 2B300C7E
00:0000D998 916E1C7E
00:0000D99C DFAA2C7E
00:0000D9A0 17E53C7E        	  3779: .long     0x7E3CE517, 0x7E4D1D39, 0x7E5D5346, 0x7E6D873F
00:0000D9A4 391D4D7E
00:0000D9A8 46535D7E
00:0000D9AC 3F876D7E
00:0000D9B0 25B97D7E        	  3780: .long     0x7E7DB925, 0x7E8DE8F8, 0x7E9E16BA, 0x7EAE426A
00:0000D9B4 F8E88D7E
00:0000D9B8 BA169E7E
00:0000D9BC 6A42AE7E
00:0000D9C0 0A6CBE7E        	  3781: .long     0x7EBE6C0A, 0x7ECE939B, 0x7EDEB91E, 0x7EEEDC92
00:0000D9C4 9B93CE7E
00:0000D9C8 1EB9DE7E
00:0000D9CC 92DCEE7E
00:0000D9D0 FAFDFE7E        	  3782: .long     0x7EFEFDFA, 0x7F0F1D55, 0x7F1F3AA5, 0x7F2F55EA
00:0000D9D4 551D0F7F
00:0000D9D8 A53A1F7F
00:0000D9DC EA552F7F
00:0000D9E0 256F3F7F        	  3783: .long     0x7F3F6F25, 0x7F4F8657, 0x7F5F9B81, 0x7F6FAEA3
00:0000D9E4 57864F7F
00:0000D9E8 819B5F7F
00:0000D9EC A3AE6F7F
00:0000D9F0 BEBF7F7F        	  3784: .long     0x7F7FBFBE, 0x7F8FCED4, 0x7F9FDBE4, 0x7FAFE6EF
00:0000D9F4 D4CE8F7F
00:0000D9F8 E4DB9F7F
00:0000D9FC EFE6AF7F
00:0000DA00 F7EFBF7F        	  3785: .long     0x7FBFEFF7, 0x7FCFF6FB, 0x7FDFFBFE, 0x7FEFFEFF
00:0000DA04 FBF6CF7F
00:0000DA08 FEFBDF7F
00:0000DA0C FFFEEF7F
                            	  3786: divisionTable:
00:0000DA10 FFFFFFFF        	  3787: .long     0xFFFFFFFF, 0x00000000, 0x00000000, 0x00000000
00:0000DA14 00000000
00:0000DA18 00000000
00:0000DA1C 00000000
00:0000DA20 00000000        	  3788: .long     0x00000000, 0x00000000, 0x00000000, 0x00000000
00:0000DA24 00000000
00:0000DA28 00000000
00:0000DA2C 00000000
00:0000DA30 00000000        	  3789: .long     0x00000000, 0x00000000, 0x00000000, 0x00000000
00:0000DA34 00000000
00:0000DA38 00000000
00:0000DA3C 00000000
00:0000DA40 00000000        	  3790: .long     0x00000000, 0x00000000, 0x00000000, 0x00000000
00:0000DA44 00000000
00:0000DA48 00000000
00:0000DA4C 00000000
00:0000DA50 00000000        	  3791: .long     0x00000000, 0x00000000, 0x00000000, 0x00000000
00:0000DA54 00000000
00:0000DA58 00000000
00:0000DA5C 00000000
00:0000DA60 00000000        	  3792: .long     0x00000000, 0x00000000, 0x00000000, 0x00000000
00:0000DA64 00000000
00:0000DA68 00000000
00:0000DA6C 00000000
00:0000DA70 00000000        	  3793: .long     0x00000000, 0x00000000, 0x00000000, 0x00000000
00:0000DA74 00000000
00:0000DA78 00000000
00:0000DA7C 00000000
00:0000DA80 00000000        	  3794: .long     0x00000000, 0x00000000, 0x00000000, 0x00000000
00:0000DA84 00000000
00:0000DA88 00000000
00:0000DA8C 00000000
00:0000DA90 00000000        	  3795: .long     0x00000000, 0x00000000, 0x00000000, 0x00000000
00:0000DA94 00000000
00:0000DA98 00000000
00:0000DA9C 00000000
00:0000DAA0 00000000        	  3796: .long     0x00000000, 0x00000000, 0x00000000, 0x00000000
00:0000DAA4 00000000
00:0000DAA8 00000000
00:0000DAAC 00000000
00:0000DAB0 00000000        	  3797: .long     0x00000000, 0x00000000, 0x00000000, 0x00000000
00:0000DAB4 00000000
00:0000DAB8 00000000
00:0000DABC 00000000
00:0000DAC0 00000000        	  3798: .long     0x00000000, 0x00000000, 0x00000000, 0x00000000
00:0000DAC4 00000000
00:0000DAC8 00000000
00:0000DACC 00000000
00:0000DAD0 00000000        	  3799: .long     0x00000000, 0x00000000, 0x00000000, 0x00000000
00:0000DAD4 00000000
00:0000DAD8 00000000
00:0000DADC 00000000
00:0000DAE0 00000000        	  3800: .long     0x00000000, 0x00000000, 0x00000000, 0x00000000
00:0000DAE4 00000000
00:0000DAE8 00000000
00:0000DAEC 00000000
00:0000DAF0 00000000        	  3801: .long     0x00000000, 0x00000000, 0x00000000, 0x00000000
00:0000DAF4 00000000
00:0000DAF8 00000000
00:0000DAFC 00000000
00:0000DB00 00000000        	  3802: .long     0x00000000, 0x00000000, 0x00000000, 0x00000000
00:0000DB04 00000000
00:0000DB08 00000000
00:0000DB0C 00000000
00:0000DB10 FFFFFFFF        	  3803: .long     0xFFFFFFFF, 0x00010000, 0x00008000, 0x00005555
00:0000DB14 00000100
00:0000DB18 00800000
00:0000DB1C 55550000
00:0000DB20 00400000        	  3804: .long     0x00004000, 0x00003333, 0x00002AAA, 0x00002492
00:0000DB24 33330000
00:0000DB28 AA2A0000
00:0000DB2C 92240000
00:0000DB30 00200000        	  3805: .long     0x00002000, 0x00001C71, 0x00001999, 0x00001745
00:0000DB34 711C0000
00:0000DB38 99190000
00:0000DB3C 45170000
00:0000DB40 55150000        	  3806: .long     0x00001555, 0x000013B1, 0x00001249, 0x00001111
00:0000DB44 B1130000
00:0000DB48 49120000
00:0000DB4C 11110000
00:0000DB50 00100000        	  3807: .long     0x00001000, 0x00000F0F, 0x00000E38, 0x00000D79
00:0000DB54 0F0F0000
00:0000DB58 380E0000
00:0000DB5C 790D0000
00:0000DB60 CC0C0000        	  3808: .long     0x00000CCC, 0x00000C30, 0x00000BA2, 0x00000B21
00:0000DB64 300C0000
00:0000DB68 A20B0000
00:0000DB6C 210B0000
00:0000DB70 AA0A0000        	  3809: .long     0x00000AAA, 0x00000A3D, 0x000009D8, 0x0000097B
00:0000DB74 3D0A0000
00:0000DB78 D8090000
00:0000DB7C 7B090000
00:0000DB80 24090000        	  3810: .long     0x00000924, 0x000008D3, 0x00000888, 0x00000842
00:0000DB84 D3080000
00:0000DB88 88080000
00:0000DB8C 42080000
00:0000DB90 00080000        	  3811: .long     0x00000800, 0x000007C1, 0x00000787, 0x00000750
00:0000DB94 C1070000
00:0000DB98 87070000
00:0000DB9C 50070000
00:0000DBA0 1C070000        	  3812: .long     0x0000071C, 0x000006EB, 0x000006BC, 0x00000690
00:0000DBA4 EB060000
00:0000DBA8 BC060000
00:0000DBAC 90060000
00:0000DBB0 66060000        	  3813: .long     0x00000666, 0x0000063E, 0x00000618, 0x000005F4
00:0000DBB4 3E060000
00:0000DBB8 18060000
00:0000DBBC F4050000
00:0000DBC0 D1050000        	  3814: .long     0x000005D1, 0x000005B0, 0x00000590, 0x00000572
00:0000DBC4 B0050000
00:0000DBC8 90050000
00:0000DBCC 72050000
00:0000DBD0 55050000        	  3815: .long     0x00000555, 0x00000539, 0x0000051E, 0x00000505
00:0000DBD4 39050000
00:0000DBD8 1E050000
00:0000DBDC 05050000
00:0000DBE0 EC040000        	  3816: .long     0x000004EC, 0x000004D4, 0x000004BD, 0x000004A7
00:0000DBE4 D4040000
00:0000DBE8 BD040000
00:0000DBEC A7040000
00:0000DBF0 92040000        	  3817: .long     0x00000492, 0x0000047D, 0x00000469, 0x00000456
00:0000DBF4 7D040000
00:0000DBF8 69040000
00:0000DBFC 56040000
00:0000DC00 44040000        	  3818: .long     0x00000444, 0x00000432, 0x00000421, 0x00000410
00:0000DC04 32040000
00:0000DC08 21040000
00:0000DC0C 10040000
00:0000DC10 FFFFFFFF        	  3819: .long     0xFFFFFFFF, 0x00020000, 0x00010000, 0x0000AAAA
00:0000DC14 00000200
00:0000DC18 00000100
00:0000DC1C AAAA0000
00:0000DC20 00800000        	  3820: .long     0x00008000, 0x00006666, 0x00005555, 0x00004924
00:0000DC24 66660000
00:0000DC28 55550000
00:0000DC2C 24490000
00:0000DC30 00400000        	  3821: .long     0x00004000, 0x000038E3, 0x00003333, 0x00002E8B
00:0000DC34 E3380000
00:0000DC38 33330000
00:0000DC3C 8B2E0000
00:0000DC40 AA2A0000        	  3822: .long     0x00002AAA, 0x00002762, 0x00002492, 0x00002222
00:0000DC44 62270000
00:0000DC48 92240000
00:0000DC4C 22220000
00:0000DC50 00200000        	  3823: .long     0x00002000, 0x00001E1E, 0x00001C71, 0x00001AF2
00:0000DC54 1E1E0000
00:0000DC58 711C0000
00:0000DC5C F21A0000
00:0000DC60 99190000        	  3824: .long     0x00001999, 0x00001861, 0x00001745, 0x00001642
00:0000DC64 61180000
00:0000DC68 45170000
00:0000DC6C 42160000
00:0000DC70 55150000        	  3825: .long     0x00001555, 0x0000147A, 0x000013B1, 0x000012F6
00:0000DC74 7A140000
00:0000DC78 B1130000
00:0000DC7C F6120000
00:0000DC80 49120000        	  3826: .long     0x00001249, 0x000011A7, 0x00001111, 0x00001084
00:0000DC84 A7110000
00:0000DC88 11110000
00:0000DC8C 84100000
00:0000DC90 00100000        	  3827: .long     0x00001000, 0x00000F83, 0x00000F0F, 0x00000EA0
00:0000DC94 830F0000
00:0000DC98 0F0F0000
00:0000DC9C A00E0000
00:0000DCA0 380E0000        	  3828: .long     0x00000E38, 0x00000DD6, 0x00000D79, 0x00000D20
00:0000DCA4 D60D0000
00:0000DCA8 790D0000
00:0000DCAC 200D0000
00:0000DCB0 CC0C0000        	  3829: .long     0x00000CCC, 0x00000C7C, 0x00000C30, 0x00000BE8
00:0000DCB4 7C0C0000
00:0000DCB8 300C0000
00:0000DCBC E80B0000
00:0000DCC0 A20B0000        	  3830: .long     0x00000BA2, 0x00000B60, 0x00000B21, 0x00000AE4
00:0000DCC4 600B0000
00:0000DCC8 210B0000
00:0000DCCC E40A0000
00:0000DCD0 AA0A0000        	  3831: .long     0x00000AAA, 0x00000A72, 0x00000A3D, 0x00000A0A
00:0000DCD4 720A0000
00:0000DCD8 3D0A0000
00:0000DCDC 0A0A0000
00:0000DCE0 D8090000        	  3832: .long     0x000009D8, 0x000009A9, 0x0000097B, 0x0000094F
00:0000DCE4 A9090000
00:0000DCE8 7B090000
00:0000DCEC 4F090000
00:0000DCF0 24090000        	  3833: .long     0x00000924, 0x000008FB, 0x000008D3, 0x000008AD
00:0000DCF4 FB080000
00:0000DCF8 D3080000
00:0000DCFC AD080000
00:0000DD00 88080000        	  3834: .long     0x00000888, 0x00000864, 0x00000842, 0x00000820
00:0000DD04 64080000
00:0000DD08 42080000
00:0000DD0C 20080000
00:0000DD10 FFFFFFFF        	  3835: .long     0xFFFFFFFF, 0x00030000, 0x00018000, 0x00010000
00:0000DD14 00000300
00:0000DD18 00800100
00:0000DD1C 00000100
00:0000DD20 00C00000        	  3836: .long     0x0000C000, 0x00009999, 0x00008000, 0x00006DB6
00:0000DD24 99990000
00:0000DD28 00800000
00:0000DD2C B66D0000
00:0000DD30 00600000        	  3837: .long     0x00006000, 0x00005555, 0x00004CCC, 0x000045D1
00:0000DD34 55550000
00:0000DD38 CC4C0000
00:0000DD3C D1450000
00:0000DD40 00400000        	  3838: .long     0x00004000, 0x00003B13, 0x000036DB, 0x00003333
00:0000DD44 133B0000
00:0000DD48 DB360000
00:0000DD4C 33330000
00:0000DD50 00300000        	  3839: .long     0x00003000, 0x00002D2D, 0x00002AAA, 0x0000286B
00:0000DD54 2D2D0000
00:0000DD58 AA2A0000
00:0000DD5C 6B280000
00:0000DD60 66260000        	  3840: .long     0x00002666, 0x00002492, 0x000022E8, 0x00002164
00:0000DD64 92240000
00:0000DD68 E8220000
00:0000DD6C 64210000
00:0000DD70 00200000        	  3841: .long     0x00002000, 0x00001EB8, 0x00001D89, 0x00001C71
00:0000DD74 B81E0000
00:0000DD78 891D0000
00:0000DD7C 711C0000
00:0000DD80 6D1B0000        	  3842: .long     0x00001B6D, 0x00001A7B, 0x00001999, 0x000018C6
00:0000DD84 7B1A0000
00:0000DD88 99190000
00:0000DD8C C6180000
00:0000DD90 00180000        	  3843: .long     0x00001800, 0x00001745, 0x00001696, 0x000015F1
00:0000DD94 45170000
00:0000DD98 96160000
00:0000DD9C F1150000
00:0000DDA0 55150000        	  3844: .long     0x00001555, 0x000014C1, 0x00001435, 0x000013B1
00:0000DDA4 C1140000
00:0000DDA8 35140000
00:0000DDAC B1130000
00:0000DDB0 33130000        	  3845: .long     0x00001333, 0x000012BB, 0x00001249, 0x000011DC
00:0000DDB4 BB120000
00:0000DDB8 49120000
00:0000DDBC DC110000
00:0000DDC0 74110000        	  3846: .long     0x00001174, 0x00001111, 0x000010B2, 0x00001057
00:0000DDC4 11110000
00:0000DDC8 B2100000
00:0000DDCC 57100000
00:0000DDD0 00100000        	  3847: .long     0x00001000, 0x00000FAC, 0x00000F5C, 0x00000F0F
00:0000DDD4 AC0F0000
00:0000DDD8 5C0F0000
00:0000DDDC 0F0F0000
00:0000DDE0 C40E0000        	  3848: .long     0x00000EC4, 0x00000E7D, 0x00000E38, 0x00000DF6
00:0000DDE4 7D0E0000
00:0000DDE8 380E0000
00:0000DDEC F60D0000
00:0000DDF0 B60D0000        	  3849: .long     0x00000DB6, 0x00000D79, 0x00000D3D, 0x00000D04
00:0000DDF4 790D0000
00:0000DDF8 3D0D0000
00:0000DDFC 040D0000
00:0000DE00 CC0C0000        	  3850: .long     0x00000CCC, 0x00000C97, 0x00000C63, 0x00000C30
00:0000DE04 970C0000
00:0000DE08 630C0000
00:0000DE0C 300C0000
00:0000DE10 FFFFFFFF        	  3851: .long     0xFFFFFFFF, 0x00040000, 0x00020000, 0x00015555
00:0000DE14 00000400
00:0000DE18 00000200
00:0000DE1C 55550100
00:0000DE20 00000100        	  3852: .long     0x00010000, 0x0000CCCC, 0x0000AAAA, 0x00009249
00:0000DE24 CCCC0000
00:0000DE28 AAAA0000
00:0000DE2C 49920000
00:0000DE30 00800000        	  3853: .long     0x00008000, 0x000071C7, 0x00006666, 0x00005D17
00:0000DE34 C7710000
00:0000DE38 66660000
00:0000DE3C 175D0000
00:0000DE40 55550000        	  3854: .long     0x00005555, 0x00004EC4, 0x00004924, 0x00004444
00:0000DE44 C44E0000
00:0000DE48 24490000
00:0000DE4C 44440000
00:0000DE50 00400000        	  3855: .long     0x00004000, 0x00003C3C, 0x000038E3, 0x000035E5
00:0000DE54 3C3C0000
00:0000DE58 E3380000
00:0000DE5C E5350000
00:0000DE60 33330000        	  3856: .long     0x00003333, 0x000030C3, 0x00002E8B, 0x00002C85
00:0000DE64 C3300000
00:0000DE68 8B2E0000
00:0000DE6C 852C0000
00:0000DE70 AA2A0000        	  3857: .long     0x00002AAA, 0x000028F5, 0x00002762, 0x000025ED
00:0000DE74 F5280000
00:0000DE78 62270000
00:0000DE7C ED250000
00:0000DE80 92240000        	  3858: .long     0x00002492, 0x0000234F, 0x00002222, 0x00002108
00:0000DE84 4F230000
00:0000DE88 22220000
00:0000DE8C 08210000
00:0000DE90 00200000        	  3859: .long     0x00002000, 0x00001F07, 0x00001E1E, 0x00001D41
00:0000DE94 071F0000
00:0000DE98 1E1E0000
00:0000DE9C 411D0000
00:0000DEA0 711C0000        	  3860: .long     0x00001C71, 0x00001BAC, 0x00001AF2, 0x00001A41
00:0000DEA4 AC1B0000
00:0000DEA8 F21A0000
00:0000DEAC 411A0000
00:0000DEB0 99190000        	  3861: .long     0x00001999, 0x000018F9, 0x00001861, 0x000017D0
00:0000DEB4 F9180000
00:0000DEB8 61180000
00:0000DEBC D0170000
00:0000DEC0 45170000        	  3862: .long     0x00001745, 0x000016C1, 0x00001642, 0x000015C9
00:0000DEC4 C1160000
00:0000DEC8 42160000
00:0000DECC C9150000
00:0000DED0 55150000        	  3863: .long     0x00001555, 0x000014E5, 0x0000147A, 0x00001414
00:0000DED4 E5140000
00:0000DED8 7A140000
00:0000DEDC 14140000
00:0000DEE0 B1130000        	  3864: .long     0x000013B1, 0x00001352, 0x000012F6, 0x0000129E
00:0000DEE4 52130000
00:0000DEE8 F6120000
00:0000DEEC 9E120000
00:0000DEF0 49120000        	  3865: .long     0x00001249, 0x000011F7, 0x000011A7, 0x0000115B
00:0000DEF4 F7110000
00:0000DEF8 A7110000
00:0000DEFC 5B110000
00:0000DF00 11110000        	  3866: .long     0x00001111, 0x000010C9, 0x00001084, 0x00001041
00:0000DF04 C9100000
00:0000DF08 84100000
00:0000DF0C 41100000
00:0000DF10 FFFFFFFF        	  3867: .long     0xFFFFFFFF, 0x00050000, 0x00028000, 0x0001AAAA
00:0000DF14 00000500
00:0000DF18 00800200
00:0000DF1C AAAA0100
00:0000DF20 00400100        	  3868: .long     0x00014000, 0x00010000, 0x0000D555, 0x0000B6DB
00:0000DF24 00000100
00:0000DF28 55D50000
00:0000DF2C DBB60000
00:0000DF30 00A00000        	  3869: .long     0x0000A000, 0x00008E38, 0x00008000, 0x0000745D
00:0000DF34 388E0000
00:0000DF38 00800000
00:0000DF3C 5D740000
00:0000DF40 AA6A0000        	  3870: .long     0x00006AAA, 0x00006276, 0x00005B6D, 0x00005555
00:0000DF44 76620000
00:0000DF48 6D5B0000
00:0000DF4C 55550000
00:0000DF50 00500000        	  3871: .long     0x00005000, 0x00004B4B, 0x0000471C, 0x0000435E
00:0000DF54 4B4B0000
00:0000DF58 1C470000
00:0000DF5C 5E430000
00:0000DF60 00400000        	  3872: .long     0x00004000, 0x00003CF3, 0x00003A2E, 0x000037A6
00:0000DF64 F33C0000
00:0000DF68 2E3A0000
00:0000DF6C A6370000
00:0000DF70 55350000        	  3873: .long     0x00003555, 0x00003333, 0x0000313B, 0x00002F68
00:0000DF74 33330000
00:0000DF78 3B310000
00:0000DF7C 682F0000
00:0000DF80 B62D0000        	  3874: .long     0x00002DB6, 0x00002C23, 0x00002AAA, 0x0000294A
00:0000DF84 232C0000
00:0000DF88 AA2A0000
00:0000DF8C 4A290000
00:0000DF90 00280000        	  3875: .long     0x00002800, 0x000026C9, 0x000025A5, 0x00002492
00:0000DF94 C9260000
00:0000DF98 A5250000
00:0000DF9C 92240000
00:0000DFA0 8E230000        	  3876: .long     0x0000238E, 0x00002298, 0x000021AF, 0x000020D2
00:0000DFA4 98220000
00:0000DFA8 AF210000
00:0000DFAC D2200000
00:0000DFB0 00200000        	  3877: .long     0x00002000, 0x00001F38, 0x00001E79, 0x00001DC4
00:0000DFB4 381F0000
00:0000DFB8 791E0000
00:0000DFBC C41D0000
00:0000DFC0 171D0000        	  3878: .long     0x00001D17, 0x00001C71, 0x00001BD3, 0x00001B3B
00:0000DFC4 711C0000
00:0000DFC8 D31B0000
00:0000DFCC 3B1B0000
00:0000DFD0 AA1A0000        	  3879: .long     0x00001AAA, 0x00001A1F, 0x00001999, 0x00001919
00:0000DFD4 1F1A0000
00:0000DFD8 99190000
00:0000DFDC 19190000
00:0000DFE0 9D180000        	  3880: .long     0x0000189D, 0x00001826, 0x000017B4, 0x00001745
00:0000DFE4 26180000
00:0000DFE8 B4170000
00:0000DFEC 45170000
00:0000DFF0 DB160000        	  3881: .long     0x000016DB, 0x00001674, 0x00001611, 0x000015B1
00:0000DFF4 74160000
00:0000DFF8 11160000
00:0000DFFC B1150000
00:0000E000 55150000        	  3882: .long     0x00001555, 0x000014FB, 0x000014A5, 0x00001451
00:0000E004 FB140000
00:0000E008 A5140000
00:0000E00C 51140000
00:0000E010 FFFFFFFF        	  3883: .long     0xFFFFFFFF, 0x00060000, 0x00030000, 0x00020000
00:0000E014 00000600
00:0000E018 00000300
00:0000E01C 00000200
00:0000E020 00800100        	  3884: .long     0x00018000, 0x00013333, 0x00010000, 0x0000DB6D
00:0000E024 33330100
00:0000E028 00000100
00:0000E02C 6DDB0000
00:0000E030 00C00000        	  3885: .long     0x0000C000, 0x0000AAAA, 0x00009999, 0x00008BA2
00:0000E034 AAAA0000
00:0000E038 99990000
00:0000E03C A28B0000
00:0000E040 00800000        	  3886: .long     0x00008000, 0x00007627, 0x00006DB6, 0x00006666
00:0000E044 27760000
00:0000E048 B66D0000
00:0000E04C 66660000
00:0000E050 00600000        	  3887: .long     0x00006000, 0x00005A5A, 0x00005555, 0x000050D7
00:0000E054 5A5A0000
00:0000E058 55550000
00:0000E05C D7500000
00:0000E060 CC4C0000        	  3888: .long     0x00004CCC, 0x00004924, 0x000045D1, 0x000042C8
00:0000E064 24490000
00:0000E068 D1450000
00:0000E06C C8420000
00:0000E070 00400000        	  3889: .long     0x00004000, 0x00003D70, 0x00003B13, 0x000038E3
00:0000E074 703D0000
00:0000E078 133B0000
00:0000E07C E3380000
00:0000E080 DB360000        	  3890: .long     0x000036DB, 0x000034F7, 0x00003333, 0x0000318C
00:0000E084 F7340000
00:0000E088 33330000
00:0000E08C 8C310000
00:0000E090 00300000        	  3891: .long     0x00003000, 0x00002E8B, 0x00002D2D, 0x00002BE2
00:0000E094 8B2E0000
00:0000E098 2D2D0000
00:0000E09C E22B0000
00:0000E0A0 AA2A0000        	  3892: .long     0x00002AAA, 0x00002983, 0x0000286B, 0x00002762
00:0000E0A4 83290000
00:0000E0A8 6B280000
00:0000E0AC 62270000
00:0000E0B0 66260000        	  3893: .long     0x00002666, 0x00002576, 0x00002492, 0x000023B8
00:0000E0B4 76250000
00:0000E0B8 92240000
00:0000E0BC B8230000
00:0000E0C0 E8220000        	  3894: .long     0x000022E8, 0x00002222, 0x00002164, 0x000020AE
00:0000E0C4 22220000
00:0000E0C8 64210000
00:0000E0CC AE200000
00:0000E0D0 00200000        	  3895: .long     0x00002000, 0x00001F58, 0x00001EB8, 0x00001E1E
00:0000E0D4 581F0000
00:0000E0D8 B81E0000
00:0000E0DC 1E1E0000
00:0000E0E0 891D0000        	  3896: .long     0x00001D89, 0x00001CFB, 0x00001C71, 0x00001BED
00:0000E0E4 FB1C0000
00:0000E0E8 711C0000
00:0000E0EC ED1B0000
00:0000E0F0 6D1B0000        	  3897: .long     0x00001B6D, 0x00001AF2, 0x00001A7B, 0x00001A08
00:0000E0F4 F21A0000
00:0000E0F8 7B1A0000
00:0000E0FC 081A0000
00:0000E100 99190000        	  3898: .long     0x00001999, 0x0000192E, 0x000018C6, 0x00001861
00:0000E104 2E190000
00:0000E108 C6180000
00:0000E10C 61180000
00:0000E110 FFFFFFFF        	  3899: .long     0xFFFFFFFF, 0x00070000, 0x00038000, 0x00025555
00:0000E114 00000700
00:0000E118 00800300
00:0000E11C 55550200
00:0000E120 00C00100        	  3900: .long     0x0001C000, 0x00016666, 0x00012AAA, 0x00010000
00:0000E124 66660100
00:0000E128 AA2A0100
00:0000E12C 00000100
00:0000E130 00E00000        	  3901: .long     0x0000E000, 0x0000C71C, 0x0000B333, 0x0000A2E8
00:0000E134 1CC70000
00:0000E138 33B30000
00:0000E13C E8A20000
00:0000E140 55950000        	  3902: .long     0x00009555, 0x000089D8, 0x00008000, 0x00007777
00:0000E144 D8890000
00:0000E148 00800000
00:0000E14C 77770000
00:0000E150 00700000        	  3903: .long     0x00007000, 0x00006969, 0x0000638E, 0x00005E50
00:0000E154 69690000
00:0000E158 8E630000
00:0000E15C 505E0000
00:0000E160 99590000        	  3904: .long     0x00005999, 0x00005555, 0x00005174, 0x00004DE9
00:0000E164 55550000
00:0000E168 74510000
00:0000E16C E94D0000
00:0000E170 AA4A0000        	  3905: .long     0x00004AAA, 0x000047AE, 0x000044EC, 0x0000425E
00:0000E174 AE470000
00:0000E178 EC440000
00:0000E17C 5E420000
00:0000E180 00400000        	  3906: .long     0x00004000, 0x00003DCB, 0x00003BBB, 0x000039CE
00:0000E184 CB3D0000
00:0000E188 BB3B0000
00:0000E18C CE390000
00:0000E190 00380000        	  3907: .long     0x00003800, 0x0000364D, 0x000034B4, 0x00003333
00:0000E194 4D360000
00:0000E198 B4340000
00:0000E19C 33330000
00:0000E1A0 C7310000        	  3908: .long     0x000031C7, 0x0000306E, 0x00002F28, 0x00002DF2
00:0000E1A4 6E300000
00:0000E1A8 282F0000
00:0000E1AC F22D0000
00:0000E1B0 CC2C0000        	  3909: .long     0x00002CCC, 0x00002BB5, 0x00002AAA, 0x000029AC
00:0000E1B4 B52B0000
00:0000E1B8 AA2A0000
00:0000E1BC AC290000
00:0000E1C0 BA280000        	  3910: .long     0x000028BA, 0x000027D2, 0x000026F4, 0x00002620
00:0000E1C4 D2270000
00:0000E1C8 F4260000
00:0000E1CC 20260000
00:0000E1D0 55250000        	  3911: .long     0x00002555, 0x00002492, 0x000023D7, 0x00002323
00:0000E1D4 92240000
00:0000E1D8 D7230000
00:0000E1DC 23230000
00:0000E1E0 76220000        	  3912: .long     0x00002276, 0x000021CF, 0x0000212F, 0x00002094
00:0000E1E4 CF210000
00:0000E1E8 2F210000
00:0000E1EC 94200000
00:0000E1F0 00200000        	  3913: .long     0x00002000, 0x00001F70, 0x00001EE5, 0x00001E5F
00:0000E1F4 701F0000
00:0000E1F8 E51E0000
00:0000E1FC 5F1E0000
00:0000E200 DD1D0000        	  3914: .long     0x00001DDD, 0x00001D60, 0x00001CE7, 0x00001C71
00:0000E204 601D0000
00:0000E208 E71C0000
00:0000E20C 711C0000
00:0000E210 FFFFFFFF        	  3915: .long     0xFFFFFFFF, 0x00080000, 0x00040000, 0x0002AAAA
00:0000E214 00000800
00:0000E218 00000400
00:0000E21C AAAA0200
00:0000E220 00000200        	  3916: .long     0x00020000, 0x00019999, 0x00015555, 0x00012492
00:0000E224 99990100
00:0000E228 55550100
00:0000E22C 92240100
00:0000E230 00000100        	  3917: .long     0x00010000, 0x0000E38E, 0x0000CCCC, 0x0000BA2E
00:0000E234 8EE30000
00:0000E238 CCCC0000
00:0000E23C 2EBA0000
00:0000E240 AAAA0000        	  3918: .long     0x0000AAAA, 0x00009D89, 0x00009249, 0x00008888
00:0000E244 899D0000
00:0000E248 49920000
00:0000E24C 88880000
00:0000E250 00800000        	  3919: .long     0x00008000, 0x00007878, 0x000071C7, 0x00006BCA
00:0000E254 78780000
00:0000E258 C7710000
00:0000E25C CA6B0000
00:0000E260 66660000        	  3920: .long     0x00006666, 0x00006186, 0x00005D17, 0x0000590B
00:0000E264 86610000
00:0000E268 175D0000
00:0000E26C 0B590000
00:0000E270 55550000        	  3921: .long     0x00005555, 0x000051EB, 0x00004EC4, 0x00004BDA
00:0000E274 EB510000
00:0000E278 C44E0000
00:0000E27C DA4B0000
00:0000E280 24490000        	  3922: .long     0x00004924, 0x0000469E, 0x00004444, 0x00004210
00:0000E284 9E460000
00:0000E288 44440000
00:0000E28C 10420000
00:0000E290 00400000        	  3923: .long     0x00004000, 0x00003E0F, 0x00003C3C, 0x00003A83
00:0000E294 0F3E0000
00:0000E298 3C3C0000
00:0000E29C 833A0000
00:0000E2A0 E3380000        	  3924: .long     0x000038E3, 0x00003759, 0x000035E5, 0x00003483
00:0000E2A4 59370000
00:0000E2A8 E5350000
00:0000E2AC 83340000
00:0000E2B0 33330000        	  3925: .long     0x00003333, 0x000031F3, 0x000030C3, 0x00002FA0
00:0000E2B4 F3310000
00:0000E2B8 C3300000
00:0000E2BC A02F0000
00:0000E2C0 8B2E0000        	  3926: .long     0x00002E8B, 0x00002D82, 0x00002C85, 0x00002B93
00:0000E2C4 822D0000
00:0000E2C8 852C0000
00:0000E2CC 932B0000
00:0000E2D0 AA2A0000        	  3927: .long     0x00002AAA, 0x000029CB, 0x000028F5, 0x00002828
00:0000E2D4 CB290000
00:0000E2D8 F5280000
00:0000E2DC 28280000
00:0000E2E0 62270000        	  3928: .long     0x00002762, 0x000026A4, 0x000025ED, 0x0000253C
00:0000E2E4 A4260000
00:0000E2E8 ED250000
00:0000E2EC 3C250000
00:0000E2F0 92240000        	  3929: .long     0x00002492, 0x000023EE, 0x0000234F, 0x000022B6
00:0000E2F4 EE230000
00:0000E2F8 4F230000
00:0000E2FC B6220000
00:0000E300 22220000        	  3930: .long     0x00002222, 0x00002192, 0x00002108, 0x00002082
00:0000E304 92210000
00:0000E308 08210000
00:0000E30C 82200000
00:0000E310 FFFFFFFF        	  3931: .long     0xFFFFFFFF, 0x00090000, 0x00048000, 0x00030000
00:0000E314 00000900
00:0000E318 00800400
00:0000E31C 00000300
00:0000E320 00400200        	  3932: .long     0x00024000, 0x0001CCCC, 0x00018000, 0x00014924
00:0000E324 CCCC0100
00:0000E328 00800100
00:0000E32C 24490100
00:0000E330 00200100        	  3933: .long     0x00012000, 0x00010000, 0x0000E666, 0x0000D174
00:0000E334 00000100
00:0000E338 66E60000
00:0000E33C 74D10000
00:0000E340 00C00000        	  3934: .long     0x0000C000, 0x0000B13B, 0x0000A492, 0x00009999
00:0000E344 3BB10000
00:0000E348 92A40000
00:0000E34C 99990000
00:0000E350 00900000        	  3935: .long     0x00009000, 0x00008787, 0x00008000, 0x00007943
00:0000E354 87870000
00:0000E358 00800000
00:0000E35C 43790000
00:0000E360 33730000        	  3936: .long     0x00007333, 0x00006DB6, 0x000068BA, 0x0000642C
00:0000E364 B66D0000
00:0000E368 BA680000
00:0000E36C 2C640000
00:0000E370 00600000        	  3937: .long     0x00006000, 0x00005C28, 0x0000589D, 0x00005555
00:0000E374 285C0000
00:0000E378 9D580000
00:0000E37C 55550000
00:0000E380 49520000        	  3938: .long     0x00005249, 0x00004F72, 0x00004CCC, 0x00004A52
00:0000E384 724F0000
00:0000E388 CC4C0000
00:0000E38C 524A0000
00:0000E390 00480000        	  3939: .long     0x00004800, 0x000045D1, 0x000043C3, 0x000041D4
00:0000E394 D1450000
00:0000E398 C3430000
00:0000E39C D4410000
00:0000E3A0 00400000        	  3940: .long     0x00004000, 0x00003E45, 0x00003CA1, 0x00003B13
00:0000E3A4 453E0000
00:0000E3A8 A13C0000
00:0000E3AC 133B0000
00:0000E3B0 99390000        	  3941: .long     0x00003999, 0x00003831, 0x000036DB, 0x00003594
00:0000E3B4 31380000
00:0000E3B8 DB360000
00:0000E3BC 94350000
00:0000E3C0 5D340000        	  3942: .long     0x0000345D, 0x00003333, 0x00003216, 0x00003105
00:0000E3C4 33330000
00:0000E3C8 16320000
00:0000E3CC 05310000
00:0000E3D0 00300000        	  3943: .long     0x00003000, 0x00002F05, 0x00002E14, 0x00002D2D
00:0000E3D4 052F0000
00:0000E3D8 142E0000
00:0000E3DC 2D2D0000
00:0000E3E0 4E2C0000        	  3944: .long     0x00002C4E, 0x00002B78, 0x00002AAA, 0x000029E4
00:0000E3E4 782B0000
00:0000E3E8 AA2A0000
00:0000E3EC E4290000
00:0000E3F0 24290000        	  3945: .long     0x00002924, 0x0000286B, 0x000027B9, 0x0000270D
00:0000E3F4 6B280000
00:0000E3F8 B9270000
00:0000E3FC 0D270000
00:0000E400 66260000        	  3946: .long     0x00002666, 0x000025C5, 0x00002529, 0x00002492
00:0000E404 C5250000
00:0000E408 29250000
00:0000E40C 92240000
00:0000E410 FFFFFFFF        	  3947: .long     0xFFFFFFFF, 0x000A0000, 0x00050000, 0x00035555
00:0000E414 00000A00
00:0000E418 00000500
00:0000E41C 55550300
00:0000E420 00800200        	  3948: .long     0x00028000, 0x00020000, 0x0001AAAA, 0x00016DB6
00:0000E424 00000200
00:0000E428 AAAA0100
00:0000E42C B66D0100
00:0000E430 00400100        	  3949: .long     0x00014000, 0x00011C71, 0x00010000, 0x0000E8BA
00:0000E434 711C0100
00:0000E438 00000100
00:0000E43C BAE80000
00:0000E440 55D50000        	  3950: .long     0x0000D555, 0x0000C4EC, 0x0000B6DB, 0x0000AAAA
00:0000E444 ECC40000
00:0000E448 DBB60000
00:0000E44C AAAA0000
00:0000E450 00A00000        	  3951: .long     0x0000A000, 0x00009696, 0x00008E38, 0x000086BC
00:0000E454 96960000
00:0000E458 388E0000
00:0000E45C BC860000
00:0000E460 00800000        	  3952: .long     0x00008000, 0x000079E7, 0x0000745D, 0x00006F4D
00:0000E464 E7790000
00:0000E468 5D740000
00:0000E46C 4D6F0000
00:0000E470 AA6A0000        	  3953: .long     0x00006AAA, 0x00006666, 0x00006276, 0x00005ED0
00:0000E474 66660000
00:0000E478 76620000
00:0000E47C D05E0000
00:0000E480 6D5B0000        	  3954: .long     0x00005B6D, 0x00005846, 0x00005555, 0x00005294
00:0000E484 46580000
00:0000E488 55550000
00:0000E48C 94520000
00:0000E490 00500000        	  3955: .long     0x00005000, 0x00004D93, 0x00004B4B, 0x00004924
00:0000E494 934D0000
00:0000E498 4B4B0000
00:0000E49C 24490000
00:0000E4A0 1C470000        	  3956: .long     0x0000471C, 0x00004530, 0x0000435E, 0x000041A4
00:0000E4A4 30450000
00:0000E4A8 5E430000
00:0000E4AC A4410000
00:0000E4B0 00400000        	  3957: .long     0x00004000, 0x00003E70, 0x00003CF3, 0x00003B88
00:0000E4B4 703E0000
00:0000E4B8 F33C0000
00:0000E4BC 883B0000
00:0000E4C0 2E3A0000        	  3958: .long     0x00003A2E, 0x000038E3, 0x000037A6, 0x00003677
00:0000E4C4 E3380000
00:0000E4C8 A6370000
00:0000E4CC 77360000
00:0000E4D0 55350000        	  3959: .long     0x00003555, 0x0000343E, 0x00003333, 0x00003232
00:0000E4D4 3E340000
00:0000E4D8 33330000
00:0000E4DC 32320000
00:0000E4E0 3B310000        	  3960: .long     0x0000313B, 0x0000304D, 0x00002F68, 0x00002E8B
00:0000E4E4 4D300000
00:0000E4E8 682F0000
00:0000E4EC 8B2E0000
00:0000E4F0 B62D0000        	  3961: .long     0x00002DB6, 0x00002CE9, 0x00002C23, 0x00002B63
00:0000E4F4 E92C0000
00:0000E4F8 232C0000
00:0000E4FC 632B0000
00:0000E500 AA2A0000        	  3962: .long     0x00002AAA, 0x000029F7, 0x0000294A, 0x000028A2
00:0000E504 F7290000
00:0000E508 4A290000
00:0000E50C A2280000
00:0000E510 FFFFFFFF        	  3963: .long     0xFFFFFFFF, 0x000B0000, 0x00058000, 0x0003AAAA
00:0000E514 00000B00
00:0000E518 00800500
00:0000E51C AAAA0300
00:0000E520 00C00200        	  3964: .long     0x0002C000, 0x00023333, 0x0001D555, 0x00019249
00:0000E524 33330200
00:0000E528 55D50100
00:0000E52C 49920100
00:0000E530 00600100        	  3965: .long     0x00016000, 0x000138E3, 0x00011999, 0x00010000
00:0000E534 E3380100
00:0000E538 99190100
00:0000E53C 00000100
00:0000E540 AAEA0000        	  3966: .long     0x0000EAAA, 0x0000D89D, 0x0000C924, 0x0000BBBB
00:0000E544 9DD80000
00:0000E548 24C90000
00:0000E54C BBBB0000
00:0000E550 00B00000        	  3967: .long     0x0000B000, 0x0000A5A5, 0x00009C71, 0x00009435
00:0000E554 A5A50000
00:0000E558 719C0000
00:0000E55C 35940000
00:0000E560 CC8C0000        	  3968: .long     0x00008CCC, 0x00008618, 0x00008000, 0x00007A6F
00:0000E564 18860000
00:0000E568 00800000
00:0000E56C 6F7A0000
00:0000E570 55750000        	  3969: .long     0x00007555, 0x000070A3, 0x00006C4E, 0x0000684B
00:0000E574 A3700000
00:0000E578 4E6C0000
00:0000E57C 4B680000
00:0000E580 92640000        	  3970: .long     0x00006492, 0x0000611A, 0x00005DDD, 0x00005AD6
00:0000E584 1A610000
00:0000E588 DD5D0000
00:0000E58C D65A0000
00:0000E590 00580000        	  3971: .long     0x00005800, 0x00005555, 0x000052D2, 0x00005075
00:0000E594 55550000
00:0000E598 D2520000
00:0000E59C 75500000
00:0000E5A0 384E0000        	  3972: .long     0x00004E38, 0x00004C1B, 0x00004A1A, 0x00004834
00:0000E5A4 1B4C0000
00:0000E5A8 1A4A0000
00:0000E5AC 34480000
00:0000E5B0 66460000        	  3973: .long     0x00004666, 0x000044AE, 0x0000430C, 0x0000417D
00:0000E5B4 AE440000
00:0000E5B8 0C430000
00:0000E5BC 7D410000
00:0000E5C0 00400000        	  3974: .long     0x00004000, 0x00003E93, 0x00003D37, 0x00003BEA
00:0000E5C4 933E0000
00:0000E5C8 373D0000
00:0000E5CC EA3B0000
00:0000E5D0 AA3A0000        	  3975: .long     0x00003AAA, 0x00003978, 0x00003851, 0x00003737
00:0000E5D4 78390000
00:0000E5D8 51380000
00:0000E5DC 37370000
00:0000E5E0 27360000        	  3976: .long     0x00003627, 0x00003521, 0x00003425, 0x00003333
00:0000E5E4 21350000
00:0000E5E8 25340000
00:0000E5EC 33330000
00:0000E5F0 49320000        	  3977: .long     0x00003249, 0x00003167, 0x0000308D, 0x00002FBA
00:0000E5F4 67310000
00:0000E5F8 8D300000
00:0000E5FC BA2F0000
00:0000E600 EE2E0000        	  3978: .long     0x00002EEE, 0x00002E29, 0x00002D6B, 0x00002CB2
00:0000E604 292E0000
00:0000E608 6B2D0000
00:0000E60C B22C0000
00:0000E610 FFFFFFFF        	  3979: .long     0xFFFFFFFF, 0x000C0000, 0x00060000, 0x00040000
00:0000E614 00000C00
00:0000E618 00000600
00:0000E61C 00000400
00:0000E620 00000300        	  3980: .long     0x00030000, 0x00026666, 0x00020000, 0x0001B6DB
00:0000E624 66660200
00:0000E628 00000200
00:0000E62C DBB60100
00:0000E630 00800100        	  3981: .long     0x00018000, 0x00015555, 0x00013333, 0x00011745
00:0000E634 55550100
00:0000E638 33330100
00:0000E63C 45170100
00:0000E640 00000100        	  3982: .long     0x00010000, 0x0000EC4E, 0x0000DB6D, 0x0000CCCC
00:0000E644 4EEC0000
00:0000E648 6DDB0000
00:0000E64C CCCC0000
00:0000E650 00C00000        	  3983: .long     0x0000C000, 0x0000B4B4, 0x0000AAAA, 0x0000A1AF
00:0000E654 B4B40000
00:0000E658 AAAA0000
00:0000E65C AFA10000
00:0000E660 99990000        	  3984: .long     0x00009999, 0x00009249, 0x00008BA2, 0x00008590
00:0000E664 49920000
00:0000E668 A28B0000
00:0000E66C 90850000
00:0000E670 00800000        	  3985: .long     0x00008000, 0x00007AE1, 0x00007627, 0x000071C7
00:0000E674 E17A0000
00:0000E678 27760000
00:0000E67C C7710000
00:0000E680 B66D0000        	  3986: .long     0x00006DB6, 0x000069EE, 0x00006666, 0x00006318
00:0000E684 EE690000
00:0000E688 66660000
00:0000E68C 18630000
00:0000E690 00600000        	  3987: .long     0x00006000, 0x00005D17, 0x00005A5A, 0x000057C5
00:0000E694 175D0000
00:0000E698 5A5A0000
00:0000E69C C5570000
00:0000E6A0 55550000        	  3988: .long     0x00005555, 0x00005306, 0x000050D7, 0x00004EC4
00:0000E6A4 06530000
00:0000E6A8 D7500000
00:0000E6AC C44E0000
00:0000E6B0 CC4C0000        	  3989: .long     0x00004CCC, 0x00004AED, 0x00004924, 0x00004771
00:0000E6B4 ED4A0000
00:0000E6B8 24490000
00:0000E6BC 71470000
00:0000E6C0 D1450000        	  3990: .long     0x000045D1, 0x00004444, 0x000042C8, 0x0000415C
00:0000E6C4 44440000
00:0000E6C8 C8420000
00:0000E6CC 5C410000
00:0000E6D0 00400000        	  3991: .long     0x00004000, 0x00003EB1, 0x00003D70, 0x00003C3C
00:0000E6D4 B13E0000
00:0000E6D8 703D0000
00:0000E6DC 3C3C0000
00:0000E6E0 133B0000        	  3992: .long     0x00003B13, 0x000039F6, 0x000038E3, 0x000037DA
00:0000E6E4 F6390000
00:0000E6E8 E3380000
00:0000E6EC DA370000
00:0000E6F0 DB360000        	  3993: .long     0x000036DB, 0x000035E5, 0x000034F7, 0x00003411
00:0000E6F4 E5350000
00:0000E6F8 F7340000
00:0000E6FC 11340000
00:0000E700 33330000        	  3994: .long     0x00003333, 0x0000325C, 0x0000318C, 0x000030C3
00:0000E704 5C320000
00:0000E708 8C310000
00:0000E70C C3300000
00:0000E710 FFFFFFFF        	  3995: .long     0xFFFFFFFF, 0x000D0000, 0x00068000, 0x00045555
00:0000E714 00000D00
00:0000E718 00800600
00:0000E71C 55550400
00:0000E720 00400300        	  3996: .long     0x00034000, 0x00029999, 0x00022AAA, 0x0001DB6D
00:0000E724 99990200
00:0000E728 AA2A0200
00:0000E72C 6DDB0100
00:0000E730 00A00100        	  3997: .long     0x0001A000, 0x000171C7, 0x00014CCC, 0x00012E8B
00:0000E734 C7710100
00:0000E738 CC4C0100
00:0000E73C 8B2E0100
00:0000E740 55150100        	  3998: .long     0x00011555, 0x00010000, 0x0000EDB6, 0x0000DDDD
00:0000E744 00000100
00:0000E748 B6ED0000
00:0000E74C DDDD0000
00:0000E750 00D00000        	  3999: .long     0x0000D000, 0x0000C3C3, 0x0000B8E3, 0x0000AF28
00:0000E754 C3C30000
00:0000E758 E3B80000
00:0000E75C 28AF0000
00:0000E760 66A60000        	  4000: .long     0x0000A666, 0x00009E79, 0x00009745, 0x000090B2
00:0000E764 799E0000
00:0000E768 45970000
00:0000E76C B2900000
00:0000E770 AA8A0000        	  4001: .long     0x00008AAA, 0x0000851E, 0x00008000, 0x00007B42
00:0000E774 1E850000
00:0000E778 00800000
00:0000E77C 427B0000
00:0000E780 DB760000        	  4002: .long     0x000076DB, 0x000072C2, 0x00006EEE, 0x00006B5A
00:0000E784 C2720000
00:0000E788 EE6E0000
00:0000E78C 5A6B0000
00:0000E790 00680000        	  4003: .long     0x00006800, 0x000064D9, 0x000061E1, 0x00005F15
00:0000E794 D9640000
00:0000E798 E1610000
00:0000E79C 155F0000
00:0000E7A0 715C0000        	  4004: .long     0x00005C71, 0x000059F2, 0x00005794, 0x00005555
00:0000E7A4 F2590000
00:0000E7A8 94570000
00:0000E7AC 55550000
00:0000E7B0 33530000        	  4005: .long     0x00005333, 0x0000512B, 0x00004F3C, 0x00004D65
00:0000E7B4 2B510000
00:0000E7B8 3C4F0000
00:0000E7BC 654D0000
00:0000E7C0 A24B0000        	  4006: .long     0x00004BA2, 0x000049F4, 0x00004859, 0x000046CE
00:0000E7C4 F4490000
00:0000E7C8 59480000
00:0000E7CC CE460000
00:0000E7D0 55450000        	  4007: .long     0x00004555, 0x000043EB, 0x0000428F, 0x00004141
00:0000E7D4 EB430000
00:0000E7D8 8F420000
00:0000E7DC 41410000
00:0000E7E0 00400000        	  4008: .long     0x00004000, 0x00003ECA, 0x00003DA1, 0x00003C82
00:0000E7E4 CA3E0000
00:0000E7E8 A13D0000
00:0000E7EC 823C0000
00:0000E7F0 6D3B0000        	  4009: .long     0x00003B6D, 0x00003A62, 0x00003961, 0x00003868
00:0000E7F4 623A0000
00:0000E7F8 61390000
00:0000E7FC 68380000
00:0000E800 77370000        	  4010: .long     0x00003777, 0x0000368E, 0x000035AD, 0x000034D3
00:0000E804 8E360000
00:0000E808 AD350000
00:0000E80C D3340000
00:0000E810 FFFFFFFF        	  4011: .long     0xFFFFFFFF, 0x000E0000, 0x00070000, 0x0004AAAA
00:0000E814 00000E00
00:0000E818 00000700
00:0000E81C AAAA0400
00:0000E820 00800300        	  4012: .long     0x00038000, 0x0002CCCC, 0x00025555, 0x00020000
00:0000E824 CCCC0200
00:0000E828 55550200
00:0000E82C 00000200
00:0000E830 00C00100        	  4013: .long     0x0001C000, 0x00018E38, 0x00016666, 0x000145D1
00:0000E834 388E0100
00:0000E838 66660100
00:0000E83C D1450100
00:0000E840 AA2A0100        	  4014: .long     0x00012AAA, 0x000113B1, 0x00010000, 0x0000EEEE
00:0000E844 B1130100
00:0000E848 00000100
00:0000E84C EEEE0000
00:0000E850 00E00000        	  4015: .long     0x0000E000, 0x0000D2D2, 0x0000C71C, 0x0000BCA1
00:0000E854 D2D20000
00:0000E858 1CC70000
00:0000E85C A1BC0000
00:0000E860 33B30000        	  4016: .long     0x0000B333, 0x0000AAAA, 0x0000A2E8, 0x00009BD3
00:0000E864 AAAA0000
00:0000E868 E8A20000
00:0000E86C D39B0000
00:0000E870 55950000        	  4017: .long     0x00009555, 0x00008F5C, 0x000089D8, 0x000084BD
00:0000E874 5C8F0000
00:0000E878 D8890000
00:0000E87C BD840000
00:0000E880 00800000        	  4018: .long     0x00008000, 0x00007B96, 0x00007777, 0x0000739C
00:0000E884 967B0000
00:0000E888 77770000
00:0000E88C 9C730000
00:0000E890 00700000        	  4019: .long     0x00007000, 0x00006C9B, 0x00006969, 0x00006666
00:0000E894 9B6C0000
00:0000E898 69690000
00:0000E89C 66660000
00:0000E8A0 8E630000        	  4020: .long     0x0000638E, 0x000060DD, 0x00005E50, 0x00005BE5
00:0000E8A4 DD600000
00:0000E8A8 505E0000
00:0000E8AC E55B0000
00:0000E8B0 99590000        	  4021: .long     0x00005999, 0x0000576A, 0x00005555, 0x00005359
00:0000E8B4 6A570000
00:0000E8B8 55550000
00:0000E8BC 59530000
00:0000E8C0 74510000        	  4022: .long     0x00005174, 0x00004FA4, 0x00004DE9, 0x00004C41
00:0000E8C4 A44F0000
00:0000E8C8 E94D0000
00:0000E8CC 414C0000
00:0000E8D0 AA4A0000        	  4023: .long     0x00004AAA, 0x00004924, 0x000047AE, 0x00004646
00:0000E8D4 24490000
00:0000E8D8 AE470000
00:0000E8DC 46460000
00:0000E8E0 EC440000        	  4024: .long     0x000044EC, 0x0000439F, 0x0000425E, 0x00004129
00:0000E8E4 9F430000
00:0000E8E8 5E420000
00:0000E8EC 29410000
00:0000E8F0 00400000        	  4025: .long     0x00004000, 0x00003EE0, 0x00003DCB, 0x00003CBE
00:0000E8F4 E03E0000
00:0000E8F8 CB3D0000
00:0000E8FC BE3C0000
00:0000E900 BB3B0000        	  4026: .long     0x00003BBB, 0x00003AC1, 0x000039CE, 0x000038E3
00:0000E904 C13A0000
00:0000E908 CE390000
00:0000E90C E3380000
00:0000E910 FFFFFFFF        	  4027: .long     0xFFFFFFFF, 0x000F0000, 0x00078000, 0x00050000
00:0000E914 00000F00
00:0000E918 00800700
00:0000E91C 00000500
00:0000E920 00C00300        	  4028: .long     0x0003C000, 0x00030000, 0x00028000, 0x00022492
00:0000E924 00000300
00:0000E928 00800200
00:0000E92C 92240200
00:0000E930 00E00100        	  4029: .long     0x0001E000, 0x0001AAAA, 0x00018000, 0x00015D17
00:0000E934 AAAA0100
00:0000E938 00800100
00:0000E93C 175D0100
00:0000E940 00400100        	  4030: .long     0x00014000, 0x00012762, 0x00011249, 0x00010000
00:0000E944 62270100
00:0000E948 49120100
00:0000E94C 00000100
00:0000E950 00F00000        	  4031: .long     0x0000F000, 0x0000E1E1, 0x0000D555, 0x0000CA1A
00:0000E954 E1E10000
00:0000E958 55D50000
00:0000E95C 1ACA0000
00:0000E960 00C00000        	  4032: .long     0x0000C000, 0x0000B6DB, 0x0000AE8B, 0x0000A6F4
00:0000E964 DBB60000
00:0000E968 8BAE0000
00:0000E96C F4A60000
00:0000E970 00A00000        	  4033: .long     0x0000A000, 0x00009999, 0x000093B1, 0x00008E38
00:0000E974 99990000
00:0000E978 B1930000
00:0000E97C 388E0000
00:0000E980 24890000        	  4034: .long     0x00008924, 0x00008469, 0x00008000, 0x00007BDE
00:0000E984 69840000
00:0000E988 00800000
00:0000E98C DE7B0000
00:0000E990 00780000        	  4035: .long     0x00007800, 0x0000745D, 0x000070F0, 0x00006DB6
00:0000E994 5D740000
00:0000E998 F0700000
00:0000E99C B66D0000
00:0000E9A0 AA6A0000        	  4036: .long     0x00006AAA, 0x000067C8, 0x0000650D, 0x00006276
00:0000E9A4 C8670000
00:0000E9A8 0D650000
00:0000E9AC 76620000
00:0000E9B0 00600000        	  4037: .long     0x00006000, 0x00005DA8, 0x00005B6D, 0x0000594D
00:0000E9B4 A85D0000
00:0000E9B8 6D5B0000
00:0000E9BC 4D590000
00:0000E9C0 45570000        	  4038: .long     0x00005745, 0x00005555, 0x0000537A, 0x000051B3
00:0000E9C4 55550000
00:0000E9C8 7A530000
00:0000E9CC B3510000
00:0000E9D0 00500000        	  4039: .long     0x00005000, 0x00004E5E, 0x00004CCC, 0x00004B4B
00:0000E9D4 5E4E0000
00:0000E9D8 CC4C0000
00:0000E9DC 4B4B0000
00:0000E9E0 D8490000        	  4040: .long     0x000049D8, 0x00004873, 0x0000471C, 0x000045D1
00:0000E9E4 73480000
00:0000E9E8 1C470000
00:0000E9EC D1450000
00:0000E9F0 92440000        	  4041: .long     0x00004492, 0x0000435E, 0x00004234, 0x00004115
00:0000E9F4 5E430000
00:0000E9F8 34420000
00:0000E9FC 15410000
00:0000EA00 00400000        	  4042: .long     0x00004000, 0x00003EF3, 0x00003DEF, 0x00003CF3
00:0000EA04 F33E0000
00:0000EA08 EF3D0000
00:0000EA0C F33C0000
00:0000EA10 FFFFFFFF        	  4043: .long     0xFFFFFFFF, 0x00100000, 0x00080000, 0x00055555
00:0000EA14 00001000
00:0000EA18 00000800
00:0000EA1C 55550500
00:0000EA20 00000400        	  4044: .long     0x00040000, 0x00033333, 0x0002AAAA, 0x00024924
00:0000EA24 33330300
00:0000EA28 AAAA0200
00:0000EA2C 24490200
00:0000EA30 00000200        	  4045: .long     0x00020000, 0x0001C71C, 0x00019999, 0x0001745D
00:0000EA34 1CC70100
00:0000EA38 99990100
00:0000EA3C 5D740100
00:0000EA40 55550100        	  4046: .long     0x00015555, 0x00013B13, 0x00012492, 0x00011111
00:0000EA44 133B0100
00:0000EA48 92240100
00:0000EA4C 11110100
00:0000EA50 00000100        	  4047: .long     0x00010000, 0x0000F0F0, 0x0000E38E, 0x0000D794
00:0000EA54 F0F00000
00:0000EA58 8EE30000
00:0000EA5C 94D70000
00:0000EA60 CCCC0000        	  4048: .long     0x0000CCCC, 0x0000C30C, 0x0000BA2E, 0x0000B216
00:0000EA64 0CC30000
00:0000EA68 2EBA0000
00:0000EA6C 16B20000
00:0000EA70 AAAA0000        	  4049: .long     0x0000AAAA, 0x0000A3D7, 0x00009D89, 0x000097B4
00:0000EA74 D7A30000
00:0000EA78 899D0000
00:0000EA7C B4970000
00:0000EA80 49920000        	  4050: .long     0x00009249, 0x00008D3D, 0x00008888, 0x00008421
00:0000EA84 3D8D0000
00:0000EA88 88880000
00:0000EA8C 21840000
00:0000EA90 00800000        	  4051: .long     0x00008000, 0x00007C1F, 0x00007878, 0x00007507
00:0000EA94 1F7C0000
00:0000EA98 78780000
00:0000EA9C 07750000
00:0000EAA0 C7710000        	  4052: .long     0x000071C7, 0x00006EB3, 0x00006BCA, 0x00006906
00:0000EAA4 B36E0000
00:0000EAA8 CA6B0000
00:0000EAAC 06690000
00:0000EAB0 66660000        	  4053: .long     0x00006666, 0x000063E7, 0x00006186, 0x00005F41
00:0000EAB4 E7630000
00:0000EAB8 86610000
00:0000EABC 415F0000
00:0000EAC0 175D0000        	  4054: .long     0x00005D17, 0x00005B05, 0x0000590B, 0x00005726
00:0000EAC4 055B0000
00:0000EAC8 0B590000
00:0000EACC 26570000
00:0000EAD0 55550000        	  4055: .long     0x00005555, 0x00005397, 0x000051EB, 0x00005050
00:0000EAD4 97530000
00:0000EAD8 EB510000
00:0000EADC 50500000
00:0000EAE0 C44E0000        	  4056: .long     0x00004EC4, 0x00004D48, 0x00004BDA, 0x00004A79
00:0000EAE4 484D0000
00:0000EAE8 DA4B0000
00:0000EAEC 794A0000
00:0000EAF0 24490000        	  4057: .long     0x00004924, 0x000047DC, 0x0000469E, 0x0000456C
00:0000EAF4 DC470000
00:0000EAF8 9E460000
00:0000EAFC 6C450000
00:0000EB00 44440000        	  4058: .long     0x00004444, 0x00004325, 0x00004210, 0x00004104
00:0000EB04 25430000
00:0000EB08 10420000
00:0000EB0C 04410000
00:0000EB10 FFFFFFFF        	  4059: .long     0xFFFFFFFF, 0x00110000, 0x00088000, 0x0005AAAA
00:0000EB14 00001100
00:0000EB18 00800800
00:0000EB1C AAAA0500
00:0000EB20 00400400        	  4060: .long     0x00044000, 0x00036666, 0x0002D555, 0x00026DB6
00:0000EB24 66660300
00:0000EB28 55D50200
00:0000EB2C B66D0200
00:0000EB30 00200200        	  4061: .long     0x00022000, 0x0001E38E, 0x0001B333, 0x00018BA2
00:0000EB34 8EE30100
00:0000EB38 33B30100
00:0000EB3C A28B0100
00:0000EB40 AA6A0100        	  4062: .long     0x00016AAA, 0x00014EC4, 0x000136DB, 0x00012222
00:0000EB44 C44E0100
00:0000EB48 DB360100
00:0000EB4C 22220100
00:0000EB50 00100100        	  4063: .long     0x00011000, 0x00010000, 0x0000F1C7, 0x0000E50D
00:0000EB54 00000100
00:0000EB58 C7F10000
00:0000EB5C 0DE50000
00:0000EB60 99D90000        	  4064: .long     0x0000D999, 0x0000CF3C, 0x0000C5D1, 0x0000BD37
00:0000EB64 3CCF0000
00:0000EB68 D1C50000
00:0000EB6C 37BD0000
00:0000EB70 55B50000        	  4065: .long     0x0000B555, 0x0000AE14, 0x0000A762, 0x0000A12F
00:0000EB74 14AE0000
00:0000EB78 62A70000
00:0000EB7C 2FA10000
00:0000EB80 6D9B0000        	  4066: .long     0x00009B6D, 0x00009611, 0x00009111, 0x00008C63
00:0000EB84 11960000
00:0000EB88 11910000
00:0000EB8C 638C0000
00:0000EB90 00880000        	  4067: .long     0x00008800, 0x000083E0, 0x00008000, 0x00007C57
00:0000EB94 E0830000
00:0000EB98 00800000
00:0000EB9C 577C0000
00:0000EBA0 E3780000        	  4068: .long     0x000078E3, 0x0000759F, 0x00007286, 0x00006F96
00:0000EBA4 9F750000
00:0000EBA8 86720000
00:0000EBAC 966F0000
00:0000EBB0 CC6C0000        	  4069: .long     0x00006CCC, 0x00006A25, 0x0000679E, 0x00006535
00:0000EBB4 256A0000
00:0000EBB8 9E670000
00:0000EBBC 35650000
00:0000EBC0 E8620000        	  4070: .long     0x000062E8, 0x000060B6, 0x00005E9B, 0x00005C98
00:0000EBC4 B6600000
00:0000EBC8 9B5E0000
00:0000EBCC 985C0000
00:0000EBD0 AA5A0000        	  4071: .long     0x00005AAA, 0x000058D0, 0x0000570A, 0x00005555
00:0000EBD4 D0580000
00:0000EBD8 0A570000
00:0000EBDC 55550000
00:0000EBE0 B1530000        	  4072: .long     0x000053B1, 0x0000521C, 0x00005097, 0x00004F20
00:0000EBE4 1C520000
00:0000EBE8 97500000
00:0000EBEC 204F0000
00:0000EBF0 B64D0000        	  4073: .long     0x00004DB6, 0x00004C59, 0x00004B08, 0x000049C3
00:0000EBF4 594C0000
00:0000EBF8 084B0000
00:0000EBFC C3490000
00:0000EC00 88480000        	  4074: .long     0x00004888, 0x00004758, 0x00004631, 0x00004514
00:0000EC04 58470000
00:0000EC08 31460000
00:0000EC0C 14450000
00:0000EC10 FFFFFFFF        	  4075: .long     0xFFFFFFFF, 0x00120000, 0x00090000, 0x00060000
00:0000EC14 00001200
00:0000EC18 00000900
00:0000EC1C 00000600
00:0000EC20 00800400        	  4076: .long     0x00048000, 0x00039999, 0x00030000, 0x00029249
00:0000EC24 99990300
00:0000EC28 00000300
00:0000EC2C 49920200
00:0000EC30 00400200        	  4077: .long     0x00024000, 0x00020000, 0x0001CCCC, 0x0001A2E8
00:0000EC34 00000200
00:0000EC38 CCCC0100
00:0000EC3C E8A20100
00:0000EC40 00800100        	  4078: .long     0x00018000, 0x00016276, 0x00014924, 0x00013333
00:0000EC44 76620100
00:0000EC48 24490100
00:0000EC4C 33330100
00:0000EC50 00200100        	  4079: .long     0x00012000, 0x00010F0F, 0x00010000, 0x0000F286
00:0000EC54 0F0F0100
00:0000EC58 00000100
00:0000EC5C 86F20000
00:0000EC60 66E60000        	  4080: .long     0x0000E666, 0x0000DB6D, 0x0000D174, 0x0000C859
00:0000EC64 6DDB0000
00:0000EC68 74D10000
00:0000EC6C 59C80000
00:0000EC70 00C00000        	  4081: .long     0x0000C000, 0x0000B851, 0x0000B13B, 0x0000AAAA
00:0000EC74 51B80000
00:0000EC78 3BB10000
00:0000EC7C AAAA0000
00:0000EC80 92A40000        	  4082: .long     0x0000A492, 0x00009EE5, 0x00009999, 0x000094A5
00:0000EC84 E59E0000
00:0000EC88 99990000
00:0000EC8C A5940000
00:0000EC90 00900000        	  4083: .long     0x00009000, 0x00008BA2, 0x00008787, 0x000083A8
00:0000EC94 A28B0000
00:0000EC98 87870000
00:0000EC9C A8830000
00:0000ECA0 00800000        	  4084: .long     0x00008000, 0x00007C8A, 0x00007943, 0x00007627
00:0000ECA4 8A7C0000
00:0000ECA8 43790000
00:0000ECAC 27760000
00:0000ECB0 33730000        	  4085: .long     0x00007333, 0x00007063, 0x00006DB6, 0x00006B29
00:0000ECB4 63700000
00:0000ECB8 B66D0000
00:0000ECBC 296B0000
00:0000ECC0 BA680000        	  4086: .long     0x000068BA, 0x00006666, 0x0000642C, 0x0000620A
00:0000ECC4 66660000
00:0000ECC8 2C640000
00:0000ECCC 0A620000
00:0000ECD0 00600000        	  4087: .long     0x00006000, 0x00005E0A, 0x00005C28, 0x00005A5A
00:0000ECD4 0A5E0000
00:0000ECD8 285C0000
00:0000ECDC 5A5A0000
00:0000ECE0 9D580000        	  4088: .long     0x0000589D, 0x000056F1, 0x00005555, 0x000053C8
00:0000ECE4 F1560000
00:0000ECE8 55550000
00:0000ECEC C8530000
00:0000ECF0 49520000        	  4089: .long     0x00005249, 0x000050D7, 0x00004F72, 0x00004E1A
00:0000ECF4 D7500000
00:0000ECF8 724F0000
00:0000ECFC 1A4E0000
00:0000ED00 CC4C0000        	  4090: .long     0x00004CCC, 0x00004B8A, 0x00004A52, 0x00004924
00:0000ED04 8A4B0000
00:0000ED08 524A0000
00:0000ED0C 24490000
00:0000ED10 FFFFFFFF        	  4091: .long     0xFFFFFFFF, 0x00130000, 0x00098000, 0x00065555
00:0000ED14 00001300
00:0000ED18 00800900
00:0000ED1C 55550600
00:0000ED20 00C00400        	  4092: .long     0x0004C000, 0x0003CCCC, 0x00032AAA, 0x0002B6DB
00:0000ED24 CCCC0300
00:0000ED28 AA2A0300
00:0000ED2C DBB60200
00:0000ED30 00600200        	  4093: .long     0x00026000, 0x00021C71, 0x0001E666, 0x0001BA2E
00:0000ED34 711C0200
00:0000ED38 66E60100
00:0000ED3C 2EBA0100
00:0000ED40 55950100        	  4094: .long     0x00019555, 0x00017627, 0x00015B6D, 0x00014444
00:0000ED44 27760100
00:0000ED48 6D5B0100
00:0000ED4C 44440100
00:0000ED50 00300100        	  4095: .long     0x00013000, 0x00011E1E, 0x00010E38, 0x00010000
00:0000ED54 1E1E0100
00:0000ED58 380E0100
00:0000ED5C 00000100
00:0000ED60 33F30000        	  4096: .long     0x0000F333, 0x0000E79E, 0x0000DD17, 0x0000D37A
00:0000ED64 9EE70000
00:0000ED68 17DD0000
00:0000ED6C 7AD30000
00:0000ED70 AACA0000        	  4097: .long     0x0000CAAA, 0x0000C28F, 0x0000BB13, 0x0000B425
00:0000ED74 8FC20000
00:0000ED78 13BB0000
00:0000ED7C 25B40000
00:0000ED80 B6AD0000        	  4098: .long     0x0000ADB6, 0x0000A7B9, 0x0000A222, 0x00009CE7
00:0000ED84 B9A70000
00:0000ED88 22A20000
00:0000ED8C E79C0000
00:0000ED90 00980000        	  4099: .long     0x00009800, 0x00009364, 0x00008F0F, 0x00008AF8
00:0000ED94 64930000
00:0000ED98 0F8F0000
00:0000ED9C F88A0000
00:0000EDA0 1C870000        	  4100: .long     0x0000871C, 0x00008375, 0x00008000, 0x00007CB7
00:0000EDA4 75830000
00:0000EDA8 00800000
00:0000EDAC B77C0000
00:0000EDB0 99790000        	  4101: .long     0x00007999, 0x000076A2, 0x000073CF, 0x0000711D
00:0000EDB4 A2760000
00:0000EDB8 CF730000
00:0000EDBC 1D710000
00:0000EDC0 8B6E0000        	  4102: .long     0x00006E8B, 0x00006C16, 0x000069BD, 0x0000677D
00:0000EDC4 166C0000
00:0000EDC8 BD690000
00:0000EDCC 7D670000
00:0000EDD0 55650000        	  4103: .long     0x00006555, 0x00006343, 0x00006147, 0x00005F5F
00:0000EDD4 43630000
00:0000EDD8 47610000
00:0000EDDC 5F5F0000
00:0000EDE0 895D0000        	  4104: .long     0x00005D89, 0x00005BC6, 0x00005A12, 0x0000586F
00:0000EDE4 C65B0000
00:0000EDE8 125A0000
00:0000EDEC 6F580000
00:0000EDF0 DB560000        	  4105: .long     0x000056DB, 0x00005555, 0x000053DC, 0x00005270
00:0000EDF4 55550000
00:0000EDF8 DC530000
00:0000EDFC 70520000
00:0000EE00 11510000        	  4106: .long     0x00005111, 0x00004FBC, 0x00004E73, 0x00004D34
00:0000EE04 BC4F0000
00:0000EE08 734E0000
00:0000EE0C 344D0000
00:0000EE10 FFFFFFFF        	  4107: .long     0xFFFFFFFF, 0x00140000, 0x000A0000, 0x0006AAAA
00:0000EE14 00001400
00:0000EE18 00000A00
00:0000EE1C AAAA0600
00:0000EE20 00000500        	  4108: .long     0x00050000, 0x00040000, 0x00035555, 0x0002DB6D
00:0000EE24 00000400
00:0000EE28 55550300
00:0000EE2C 6DDB0200
00:0000EE30 00800200        	  4109: .long     0x00028000, 0x000238E3, 0x00020000, 0x0001D174
00:0000EE34 E3380200
00:0000EE38 00000200
00:0000EE3C 74D10100
00:0000EE40 AAAA0100        	  4110: .long     0x0001AAAA, 0x000189D8, 0x00016DB6, 0x00015555
00:0000EE44 D8890100
00:0000EE48 B66D0100
00:0000EE4C 55550100
00:0000EE50 00400100        	  4111: .long     0x00014000, 0x00012D2D, 0x00011C71, 0x00010D79
00:0000EE54 2D2D0100
00:0000EE58 711C0100
00:0000EE5C 790D0100
00:0000EE60 00000100        	  4112: .long     0x00010000, 0x0000F3CF, 0x0000E8BA, 0x0000DE9B
00:0000EE64 CFF30000
00:0000EE68 BAE80000
00:0000EE6C 9BDE0000
00:0000EE70 55D50000        	  4113: .long     0x0000D555, 0x0000CCCC, 0x0000C4EC, 0x0000BDA1
00:0000EE74 CCCC0000
00:0000EE78 ECC40000
00:0000EE7C A1BD0000
00:0000EE80 DBB60000        	  4114: .long     0x0000B6DB, 0x0000B08D, 0x0000AAAA, 0x0000A529
00:0000EE84 8DB00000
00:0000EE88 AAAA0000
00:0000EE8C 29A50000
00:0000EE90 00A00000        	  4115: .long     0x0000A000, 0x00009B26, 0x00009696, 0x00009249
00:0000EE94 269B0000
00:0000EE98 96960000
00:0000EE9C 49920000
00:0000EEA0 388E0000        	  4116: .long     0x00008E38, 0x00008A60, 0x000086BC, 0x00008348
00:0000EEA4 608A0000
00:0000EEA8 BC860000
00:0000EEAC 48830000
00:0000EEB0 00800000        	  4117: .long     0x00008000, 0x00007CE0, 0x000079E7, 0x00007711
00:0000EEB4 E07C0000
00:0000EEB8 E7790000
00:0000EEBC 11770000
00:0000EEC0 5D740000        	  4118: .long     0x0000745D, 0x000071C7, 0x00006F4D, 0x00006CEF
00:0000EEC4 C7710000
00:0000EEC8 4D6F0000
00:0000EECC EF6C0000
00:0000EED0 AA6A0000        	  4119: .long     0x00006AAA, 0x0000687D, 0x00006666, 0x00006464
00:0000EED4 7D680000
00:0000EED8 66660000
00:0000EEDC 64640000
00:0000EEE0 76620000        	  4120: .long     0x00006276, 0x0000609A, 0x00005ED0, 0x00005D17
00:0000EEE4 9A600000
00:0000EEE8 D05E0000
00:0000EEEC 175D0000
00:0000EEF0 6D5B0000        	  4121: .long     0x00005B6D, 0x000059D3, 0x00005846, 0x000056C7
00:0000EEF4 D3590000
00:0000EEF8 46580000
00:0000EEFC C7560000
00:0000EF00 55550000        	  4122: .long     0x00005555, 0x000053EF, 0x00005294, 0x00005145
00:0000EF04 EF530000
00:0000EF08 94520000
00:0000EF0C 45510000
00:0000EF10 FFFFFFFF        	  4123: .long     0xFFFFFFFF, 0x00150000, 0x000A8000, 0x00070000
00:0000EF14 00001500
00:0000EF18 00800A00
00:0000EF1C 00000700
00:0000EF20 00400500        	  4124: .long     0x00054000, 0x00043333, 0x00038000, 0x00030000
00:0000EF24 33330400
00:0000EF28 00800300
00:0000EF2C 00000300
00:0000EF30 00A00200        	  4125: .long     0x0002A000, 0x00025555, 0x00021999, 0x0001E8BA
00:0000EF34 55550200
00:0000EF38 99190200
00:0000EF3C BAE80100
00:0000EF40 00C00100        	  4126: .long     0x0001C000, 0x00019D89, 0x00018000, 0x00016666
00:0000EF44 899D0100
00:0000EF48 00800100
00:0000EF4C 66660100
00:0000EF50 00500100        	  4127: .long     0x00015000, 0x00013C3C, 0x00012AAA, 0x00011AF2
00:0000EF54 3C3C0100
00:0000EF58 AA2A0100
00:0000EF5C F21A0100
00:0000EF60 CC0C0100        	  4128: .long     0x00010CCC, 0x00010000, 0x0000F45D, 0x0000E9BD
00:0000EF64 00000100
00:0000EF68 5DF40000
00:0000EF6C BDE90000
00:0000EF70 00E00000        	  4129: .long     0x0000E000, 0x0000D70A, 0x0000CEC4, 0x0000C71C
00:0000EF74 0AD70000
00:0000EF78 C4CE0000
00:0000EF7C 1CC70000
00:0000EF80 00C00000        	  4130: .long     0x0000C000, 0x0000B961, 0x0000B333, 0x0000AD6B
00:0000EF84 61B90000
00:0000EF88 33B30000
00:0000EF8C 6BAD0000
00:0000EF90 00A80000        	  4131: .long     0x0000A800, 0x0000A2E8, 0x00009E1E, 0x00009999
00:0000EF94 E8A20000
00:0000EF98 1E9E0000
00:0000EF9C 99990000
00:0000EFA0 55950000        	  4132: .long     0x00009555, 0x0000914C, 0x00008D79, 0x000089D8
00:0000EFA4 4C910000
00:0000EFA8 798D0000
00:0000EFAC D8890000
00:0000EFB0 66860000        	  4133: .long     0x00008666, 0x0000831F, 0x00008000, 0x00007D05
00:0000EFB4 1F830000
00:0000EFB8 00800000
00:0000EFBC 057D0000
00:0000EFC0 2E7A0000        	  4134: .long     0x00007A2E, 0x00007777, 0x000074DE, 0x00007262
00:0000EFC4 77770000
00:0000EFC8 DE740000
00:0000EFCC 62720000
00:0000EFD0 00700000        	  4135: .long     0x00007000, 0x00006DB6, 0x00006B85, 0x00006969
00:0000EFD4 B66D0000
00:0000EFD8 856B0000
00:0000EFDC 69690000
00:0000EFE0 62670000        	  4136: .long     0x00006762, 0x0000656F, 0x0000638E, 0x000061BE
00:0000EFE4 6F650000
00:0000EFE8 8E630000
00:0000EFEC BE610000
00:0000EFF0 00600000        	  4137: .long     0x00006000, 0x00005E50, 0x00005CB0, 0x00005B1E
00:0000EFF4 505E0000
00:0000EFF8 B05C0000
00:0000EFFC 1E5B0000
00:0000F000 99590000        	  4138: .long     0x00005999, 0x00005821, 0x000056B5, 0x00005555
00:0000F004 21580000
00:0000F008 B5560000
00:0000F00C 55550000
00:0000F010 FFFFFFFF        	  4139: .long     0xFFFFFFFF, 0x00160000, 0x000B0000, 0x00075555
00:0000F014 00001600
00:0000F018 00000B00
00:0000F01C 55550700
00:0000F020 00800500        	  4140: .long     0x00058000, 0x00046666, 0x0003AAAA, 0x00032492
00:0000F024 66660400
00:0000F028 AAAA0300
00:0000F02C 92240300
00:0000F030 00C00200        	  4141: .long     0x0002C000, 0x000271C7, 0x00023333, 0x00020000
00:0000F034 C7710200
00:0000F038 33330200
00:0000F03C 00000200
00:0000F040 55D50100        	  4142: .long     0x0001D555, 0x0001B13B, 0x00019249, 0x00017777
00:0000F044 3BB10100
00:0000F048 49920100
00:0000F04C 77770100
00:0000F050 00600100        	  4143: .long     0x00016000, 0x00014B4B, 0x000138E3, 0x0001286B
00:0000F054 4B4B0100
00:0000F058 E3380100
00:0000F05C 6B280100
00:0000F060 99190100        	  4144: .long     0x00011999, 0x00010C30, 0x00010000, 0x0000F4DE
00:0000F064 300C0100
00:0000F068 00000100
00:0000F06C DEF40000
00:0000F070 AAEA0000        	  4145: .long     0x0000EAAA, 0x0000E147, 0x0000D89D, 0x0000D097
00:0000F074 47E10000
00:0000F078 9DD80000
00:0000F07C 97D00000
00:0000F080 24C90000        	  4146: .long     0x0000C924, 0x0000C234, 0x0000BBBB, 0x0000B5AD
00:0000F084 34C20000
00:0000F088 BBBB0000
00:0000F08C ADB50000
00:0000F090 00B00000        	  4147: .long     0x0000B000, 0x0000AAAA, 0x0000A5A5, 0x0000A0EA
00:0000F094 AAAA0000
00:0000F098 A5A50000
00:0000F09C EAA00000
00:0000F0A0 719C0000        	  4148: .long     0x00009C71, 0x00009837, 0x00009435, 0x00009069
00:0000F0A4 37980000
00:0000F0A8 35940000
00:0000F0AC 69900000
00:0000F0B0 CC8C0000        	  4149: .long     0x00008CCC, 0x0000895D, 0x00008618, 0x000082FA
00:0000F0B4 5D890000
00:0000F0B8 18860000
00:0000F0BC FA820000
00:0000F0C0 00800000        	  4150: .long     0x00008000, 0x00007D27, 0x00007A6F, 0x000077D4
00:0000F0C4 277D0000
00:0000F0C8 6F7A0000
00:0000F0CC D4770000
00:0000F0D0 55750000        	  4151: .long     0x00007555, 0x000072F0, 0x000070A3, 0x00006E6E
00:0000F0D4 F0720000
00:0000F0D8 A3700000
00:0000F0DC 6E6E0000
00:0000F0E0 4E6C0000        	  4152: .long     0x00006C4E, 0x00006A43, 0x0000684B, 0x00006666
00:0000F0E4 436A0000
00:0000F0E8 4B680000
00:0000F0EC 66660000
00:0000F0F0 92640000        	  4153: .long     0x00006492, 0x000062CE, 0x0000611A, 0x00005F75
00:0000F0F4 CE620000
00:0000F0F8 1A610000
00:0000F0FC 755F0000
00:0000F100 DD5D0000        	  4154: .long     0x00005DDD, 0x00005C53, 0x00005AD6, 0x00005965
00:0000F104 535C0000
00:0000F108 D65A0000
00:0000F10C 65590000
00:0000F110 FFFFFFFF        	  4155: .long     0xFFFFFFFF, 0x00170000, 0x000B8000, 0x0007AAAA
00:0000F114 00001700
00:0000F118 00800B00
00:0000F11C AAAA0700
00:0000F120 00C00500        	  4156: .long     0x0005C000, 0x00049999, 0x0003D555, 0x00034924
00:0000F124 99990400
00:0000F128 55D50300
00:0000F12C 24490300
00:0000F130 00E00200        	  4157: .long     0x0002E000, 0x00028E38, 0x00024CCC, 0x00021745
00:0000F134 388E0200
00:0000F138 CC4C0200
00:0000F13C 45170200
00:0000F140 AAEA0100        	  4158: .long     0x0001EAAA, 0x0001C4EC, 0x0001A492, 0x00018888
00:0000F144 ECC40100
00:0000F148 92A40100
00:0000F14C 88880100
00:0000F150 00700100        	  4159: .long     0x00017000, 0x00015A5A, 0x0001471C, 0x000135E5
00:0000F154 5A5A0100
00:0000F158 1C470100
00:0000F15C E5350100
00:0000F160 66260100        	  4160: .long     0x00012666, 0x00011861, 0x00010BA2, 0x00010000
00:0000F164 61180100
00:0000F168 A20B0100
00:0000F16C 00000100
00:0000F170 55F50000        	  4161: .long     0x0000F555, 0x0000EB85, 0x0000E276, 0x0000DA12
00:0000F174 85EB0000
00:0000F178 76E20000
00:0000F17C 12DA0000
00:0000F180 49D20000        	  4162: .long     0x0000D249, 0x0000CB08, 0x0000C444, 0x0000BDEF
00:0000F184 08CB0000
00:0000F188 44C40000
00:0000F18C EFBD0000
00:0000F190 00B80000        	  4163: .long     0x0000B800, 0x0000B26C, 0x0000AD2D, 0x0000A83A
00:0000F194 6CB20000
00:0000F198 2DAD0000
00:0000F19C 3AA80000
00:0000F1A0 8EA30000        	  4164: .long     0x0000A38E, 0x00009F22, 0x00009AF2, 0x000096F9
00:0000F1A4 229F0000
00:0000F1A8 F29A0000
00:0000F1AC F9960000
00:0000F1B0 33930000        	  4165: .long     0x00009333, 0x00008F9C, 0x00008C30, 0x000088EE
00:0000F1B4 9C8F0000
00:0000F1B8 308C0000
00:0000F1BC EE880000
00:0000F1C0 D1850000        	  4166: .long     0x000085D1, 0x000082D8, 0x00008000, 0x00007D46
00:0000F1C4 D8820000
00:0000F1C8 00800000
00:0000F1CC 467D0000
00:0000F1D0 AA7A0000        	  4167: .long     0x00007AAA, 0x00007829, 0x000075C2, 0x00007373
00:0000F1D4 29780000
00:0000F1D8 C2750000
00:0000F1DC 73730000
00:0000F1E0 3B710000        	  4168: .long     0x0000713B, 0x00006F18, 0x00006D09, 0x00006B0D
00:0000F1E4 186F0000
00:0000F1E8 096D0000
00:0000F1EC 0D6B0000
00:0000F1F0 24690000        	  4169: .long     0x00006924, 0x0000674C, 0x00006584, 0x000063CB
00:0000F1F4 4C670000
00:0000F1F8 84650000
00:0000F1FC CB630000
00:0000F200 22620000        	  4170: .long     0x00006222, 0x00006086, 0x00005EF7, 0x00005D75
00:0000F204 86600000
00:0000F208 F75E0000
00:0000F20C 755D0000
00:0000F210 FFFFFFFF        	  4171: .long     0xFFFFFFFF, 0x00180000, 0x000C0000, 0x00080000
00:0000F214 00001800
00:0000F218 00000C00
00:0000F21C 00000800
00:0000F220 00000600        	  4172: .long     0x00060000, 0x0004CCCC, 0x00040000, 0x00036DB6
00:0000F224 CCCC0400
00:0000F228 00000400
00:0000F22C B66D0300
00:0000F230 00000300        	  4173: .long     0x00030000, 0x0002AAAA, 0x00026666, 0x00022E8B
00:0000F234 AAAA0200
00:0000F238 66660200
00:0000F23C 8B2E0200
00:0000F240 00000200        	  4174: .long     0x00020000, 0x0001D89D, 0x0001B6DB, 0x00019999
00:0000F244 9DD80100
00:0000F248 DBB60100
00:0000F24C 99990100
00:0000F250 00800100        	  4175: .long     0x00018000, 0x00016969, 0x00015555, 0x0001435E
00:0000F254 69690100
00:0000F258 55550100
00:0000F25C 5E430100
00:0000F260 33330100        	  4176: .long     0x00013333, 0x00012492, 0x00011745, 0x00010B21
00:0000F264 92240100
00:0000F268 45170100
00:0000F26C 210B0100
00:0000F270 00000100        	  4177: .long     0x00010000, 0x0000F5C2, 0x0000EC4E, 0x0000E38E
00:0000F274 C2F50000
00:0000F278 4EEC0000
00:0000F27C 8EE30000
00:0000F280 6DDB0000        	  4178: .long     0x0000DB6D, 0x0000D3DC, 0x0000CCCC, 0x0000C631
00:0000F284 DCD30000
00:0000F288 CCCC0000
00:0000F28C 31C60000
00:0000F290 00C00000        	  4179: .long     0x0000C000, 0x0000BA2E, 0x0000B4B4, 0x0000AF8A
00:0000F294 2EBA0000
00:0000F298 B4B40000
00:0000F29C 8AAF0000
00:0000F2A0 AAAA0000        	  4180: .long     0x0000AAAA, 0x0000A60D, 0x0000A1AF, 0x00009D89
00:0000F2A4 0DA60000
00:0000F2A8 AFA10000
00:0000F2AC 899D0000
00:0000F2B0 99990000        	  4181: .long     0x00009999, 0x000095DA, 0x00009249, 0x00008EE2
00:0000F2B4 DA950000
00:0000F2B8 49920000
00:0000F2BC E28E0000
00:0000F2C0 A28B0000        	  4182: .long     0x00008BA2, 0x00008888, 0x00008590, 0x000082B9
00:0000F2C4 88880000
00:0000F2C8 90850000
00:0000F2CC B9820000
00:0000F2D0 00800000        	  4183: .long     0x00008000, 0x00007D63, 0x00007AE1, 0x00007878
00:0000F2D4 637D0000
00:0000F2D8 E17A0000
00:0000F2DC 78780000
00:0000F2E0 27760000        	  4184: .long     0x00007627, 0x000073EC, 0x000071C7, 0x00006FB5
00:0000F2E4 EC730000
00:0000F2E8 C7710000
00:0000F2EC B56F0000
00:0000F2F0 B66D0000        	  4185: .long     0x00006DB6, 0x00006BCA, 0x000069EE, 0x00006822
00:0000F2F4 CA6B0000
00:0000F2F8 EE690000
00:0000F2FC 22680000
00:0000F300 66660000        	  4186: .long     0x00006666, 0x000064B8, 0x00006318, 0x00006186
00:0000F304 B8640000
00:0000F308 18630000
00:0000F30C 86610000
00:0000F310 FFFFFFFF        	  4187: .long     0xFFFFFFFF, 0x00190000, 0x000C8000, 0x00085555
00:0000F314 00001900
00:0000F318 00800C00
00:0000F31C 55550800
00:0000F320 00400600        	  4188: .long     0x00064000, 0x00050000, 0x00042AAA, 0x00039249
00:0000F324 00000500
00:0000F328 AA2A0400
00:0000F32C 49920300
00:0000F330 00200300        	  4189: .long     0x00032000, 0x0002C71C, 0x00028000, 0x000245D1
00:0000F334 1CC70200
00:0000F338 00800200
00:0000F33C D1450200
00:0000F340 55150200        	  4190: .long     0x00021555, 0x0001EC4E, 0x0001C924, 0x0001AAAA
00:0000F344 4EEC0100
00:0000F348 24C90100
00:0000F34C AAAA0100
00:0000F350 00900100        	  4191: .long     0x00019000, 0x00017878, 0x0001638E, 0x000150D7
00:0000F354 78780100
00:0000F358 8E630100
00:0000F35C D7500100
00:0000F360 00400100        	  4192: .long     0x00014000, 0x000130C3, 0x000122E8, 0x00011642
00:0000F364 C3300100
00:0000F368 E8220100
00:0000F36C 42160100
00:0000F370 AA0A0100        	  4193: .long     0x00010AAA, 0x00010000, 0x0000F627, 0x0000ED09
00:0000F374 00000100
00:0000F378 27F60000
00:0000F37C 09ED0000
00:0000F380 92E40000        	  4194: .long     0x0000E492, 0x0000DCB0, 0x0000D555, 0x0000CE73
00:0000F384 B0DC0000
00:0000F388 55D50000
00:0000F38C 73CE0000
00:0000F390 00C80000        	  4195: .long     0x0000C800, 0x0000C1F0, 0x0000BC3C, 0x0000B6DB
00:0000F394 F0C10000
00:0000F398 3CBC0000
00:0000F39C DBB60000
00:0000F3A0 C7B10000        	  4196: .long     0x0000B1C7, 0x0000ACF9, 0x0000A86B, 0x0000A41A
00:0000F3A4 F9AC0000
00:0000F3A8 6BA80000
00:0000F3AC 1AA40000
00:0000F3B0 00A00000        	  4197: .long     0x0000A000, 0x00009C18, 0x00009861, 0x000094D6
00:0000F3B4 189C0000
00:0000F3B8 61980000
00:0000F3BC D6940000
00:0000F3C0 74910000        	  4198: .long     0x00009174, 0x00008E38, 0x00008B21, 0x0000882B
00:0000F3C4 388E0000
00:0000F3C8 218B0000
00:0000F3CC 2B880000
00:0000F3D0 55850000        	  4199: .long     0x00008555, 0x0000829C, 0x00008000, 0x00007D7D
00:0000F3D4 9C820000
00:0000F3D8 00800000
00:0000F3DC 7D7D0000
00:0000F3E0 137B0000        	  4200: .long     0x00007B13, 0x000078C1, 0x00007684, 0x0000745D
00:0000F3E4 C1780000
00:0000F3E8 84760000
00:0000F3EC 5D740000
00:0000F3F0 49720000        	  4201: .long     0x00007249, 0x00007047, 0x00006E58, 0x00006C79
00:0000F3F4 47700000
00:0000F3F8 586E0000
00:0000F3FC 796C0000
00:0000F400 AA6A0000        	  4202: .long     0x00006AAA, 0x000068EB, 0x00006739, 0x00006596
00:0000F404 EB680000
00:0000F408 39670000
00:0000F40C 96650000
00:0000F410 FFFFFFFF        	  4203: .long     0xFFFFFFFF, 0x001A0000, 0x000D0000, 0x0008AAAA
00:0000F414 00001A00
00:0000F418 00000D00
00:0000F41C AAAA0800
00:0000F420 00800600        	  4204: .long     0x00068000, 0x00053333, 0x00045555, 0x0003B6DB
00:0000F424 33330500
00:0000F428 55550400
00:0000F42C DBB60300
00:0000F430 00400300        	  4205: .long     0x00034000, 0x0002E38E, 0x00029999, 0x00025D17
00:0000F434 8EE30200
00:0000F438 99990200
00:0000F43C 175D0200
00:0000F440 AA2A0200        	  4206: .long     0x00022AAA, 0x00020000, 0x0001DB6D, 0x0001BBBB
00:0000F444 00000200
00:0000F448 6DDB0100
00:0000F44C BBBB0100
00:0000F450 00A00100        	  4207: .long     0x0001A000, 0x00018787, 0x000171C7, 0x00015E50
00:0000F454 87870100
00:0000F458 C7710100
00:0000F45C 505E0100
00:0000F460 CC4C0100        	  4208: .long     0x00014CCC, 0x00013CF3, 0x00012E8B, 0x00012164
00:0000F464 F33C0100
00:0000F468 8B2E0100
00:0000F46C 64210100
00:0000F470 55150100        	  4209: .long     0x00011555, 0x00010A3D, 0x00010000, 0x0000F684
00:0000F474 3D0A0100
00:0000F478 00000100
00:0000F47C 84F60000
00:0000F480 B6ED0000        	  4210: .long     0x0000EDB6, 0x0000E584, 0x0000DDDD, 0x0000D6B5
00:0000F484 84E50000
00:0000F488 DDDD0000
00:0000F48C B5D60000
00:0000F490 00D00000        	  4211: .long     0x0000D000, 0x0000C9B2, 0x0000C3C3, 0x0000BE2B
00:0000F494 B2C90000
00:0000F498 C3C30000
00:0000F49C 2BBE0000
00:0000F4A0 E3B80000        	  4212: .long     0x0000B8E3, 0x0000B3E4, 0x0000AF28, 0x0000AAAA
00:0000F4A4 E4B30000
00:0000F4A8 28AF0000
00:0000F4AC AAAA0000
00:0000F4B0 66A60000        	  4213: .long     0x0000A666, 0x0000A257, 0x00009E79, 0x00009ACA
00:0000F4B4 57A20000
00:0000F4B8 799E0000
00:0000F4BC CA9A0000
00:0000F4C0 45970000        	  4214: .long     0x00009745, 0x000093E9, 0x000090B2, 0x00008D9D
00:0000F4C4 E9930000
00:0000F4C8 B2900000
00:0000F4CC 9D8D0000
00:0000F4D0 AA8A0000        	  4215: .long     0x00008AAA, 0x000087D6, 0x0000851E, 0x00008282
00:0000F4D4 D6870000
00:0000F4D8 1E850000
00:0000F4DC 82820000
00:0000F4E0 00800000        	  4216: .long     0x00008000, 0x00007D95, 0x00007B42, 0x00007904
00:0000F4E4 957D0000
00:0000F4E8 427B0000
00:0000F4EC 04790000
00:0000F4F0 DB760000        	  4217: .long     0x000076DB, 0x000074C5, 0x000072C2, 0x000070D0
00:0000F4F4 C5740000
00:0000F4F8 C2720000
00:0000F4FC D0700000
00:0000F500 EE6E0000        	  4218: .long     0x00006EEE, 0x00006D1D, 0x00006B5A, 0x000069A6
00:0000F504 1D6D0000
00:0000F508 5A6B0000
00:0000F50C A6690000
00:0000F510 FFFFFFFF        	  4219: .long     0xFFFFFFFF, 0x001B0000, 0x000D8000, 0x00090000
00:0000F514 00001B00
00:0000F518 00800D00
00:0000F51C 00000900
00:0000F520 00C00600        	  4220: .long     0x0006C000, 0x00056666, 0x00048000, 0x0003DB6D
00:0000F524 66660500
00:0000F528 00800400
00:0000F52C 6DDB0300
00:0000F530 00600300        	  4221: .long     0x00036000, 0x00030000, 0x0002B333, 0x0002745D
00:0000F534 00000300
00:0000F538 33B30200
00:0000F53C 5D740200
00:0000F540 00400200        	  4222: .long     0x00024000, 0x000213B1, 0x0001EDB6, 0x0001CCCC
00:0000F544 B1130200
00:0000F548 B6ED0100
00:0000F54C CCCC0100
00:0000F550 00B00100        	  4223: .long     0x0001B000, 0x00019696, 0x00018000, 0x00016BCA
00:0000F554 96960100
00:0000F558 00800100
00:0000F55C CA6B0100
00:0000F560 99590100        	  4224: .long     0x00015999, 0x00014924, 0x00013A2E, 0x00012C85
00:0000F564 24490100
00:0000F568 2E3A0100
00:0000F56C 852C0100
00:0000F570 00200100        	  4225: .long     0x00012000, 0x0001147A, 0x000109D8, 0x00010000
00:0000F574 7A140100
00:0000F578 D8090100
00:0000F57C 00000100
00:0000F580 DBF60000        	  4226: .long     0x0000F6DB, 0x0000EE58, 0x0000E666, 0x0000DEF7
00:0000F584 58EE0000
00:0000F588 66E60000
00:0000F58C F7DE0000
00:0000F590 00D80000        	  4227: .long     0x0000D800, 0x0000D174, 0x0000CB4B, 0x0000C57C
00:0000F594 74D10000
00:0000F598 4BCB0000
00:0000F59C 7CC50000
00:0000F5A0 00C00000        	  4228: .long     0x0000C000, 0x0000BACF, 0x0000B5E5, 0x0000B13B
00:0000F5A4 CFBA0000
00:0000F5A8 E5B50000
00:0000F5AC 3BB10000
00:0000F5B0 CCAC0000        	  4229: .long     0x0000ACCC, 0x0000A895, 0x0000A492, 0x0000A0BE
00:0000F5B4 95A80000
00:0000F5B8 92A40000
00:0000F5BC BEA00000
00:0000F5C0 179D0000        	  4230: .long     0x00009D17, 0x00009999, 0x00009642, 0x00009310
00:0000F5C4 99990000
00:0000F5C8 42960000
00:0000F5CC 10930000
00:0000F5D0 00900000        	  4231: .long     0x00009000, 0x00008D0F, 0x00008A3D, 0x00008787
00:0000F5D4 0F8D0000
00:0000F5D8 3D8A0000
00:0000F5DC 87870000
00:0000F5E0 EC840000        	  4232: .long     0x000084EC, 0x0000826A, 0x00008000, 0x00007DAC
00:0000F5E4 6A820000
00:0000F5E8 00800000
00:0000F5EC AC7D0000
00:0000F5F0 6D7B0000        	  4233: .long     0x00007B6D, 0x00007943, 0x0000772C, 0x00007527
00:0000F5F4 43790000
00:0000F5F8 2C770000
00:0000F5FC 27750000
00:0000F600 33730000        	  4234: .long     0x00007333, 0x0000714F, 0x00006F7B, 0x00006DB6
00:0000F604 4F710000
00:0000F608 7B6F0000
00:0000F60C B66D0000
00:0000F610 FFFFFFFF        	  4235: .long     0xFFFFFFFF, 0x001C0000, 0x000E0000, 0x00095555
00:0000F614 00001C00
00:0000F618 00000E00
00:0000F61C 55550900
00:0000F620 00000700        	  4236: .long     0x00070000, 0x00059999, 0x0004AAAA, 0x00040000
00:0000F624 99990500
00:0000F628 AAAA0400
00:0000F62C 00000400
00:0000F630 00800300        	  4237: .long     0x00038000, 0x00031C71, 0x0002CCCC, 0x00028BA2
00:0000F634 711C0300
00:0000F638 CCCC0200
00:0000F63C A28B0200
00:0000F640 55550200        	  4238: .long     0x00025555, 0x00022762, 0x00020000, 0x0001DDDD
00:0000F644 62270200
00:0000F648 00000200
00:0000F64C DDDD0100
00:0000F650 00C00100        	  4239: .long     0x0001C000, 0x0001A5A5, 0x00018E38, 0x00017943
00:0000F654 A5A50100
00:0000F658 388E0100
00:0000F65C 43790100
00:0000F660 66660100        	  4240: .long     0x00016666, 0x00015555, 0x000145D1, 0x000137A6
00:0000F664 55550100
00:0000F668 D1450100
00:0000F66C A6370100
00:0000F670 AA2A0100        	  4241: .long     0x00012AAA, 0x00011EB8, 0x000113B1, 0x0001097B
00:0000F674 B81E0100
00:0000F678 B1130100
00:0000F67C 7B090100
00:0000F680 00000100        	  4242: .long     0x00010000, 0x0000F72C, 0x0000EEEE, 0x0000E739
00:0000F684 2CF70000
00:0000F688 EEEE0000
00:0000F68C 39E70000
00:0000F690 00E00000        	  4243: .long     0x0000E000, 0x0000D936, 0x0000D2D2, 0x0000CCCC
00:0000F694 36D90000
00:0000F698 D2D20000
00:0000F69C CCCC0000
00:0000F6A0 1CC70000        	  4244: .long     0x0000C71C, 0x0000C1BA, 0x0000BCA1, 0x0000B7CB
00:0000F6A4 BAC10000
00:0000F6A8 A1BC0000
00:0000F6AC CBB70000
00:0000F6B0 33B30000        	  4245: .long     0x0000B333, 0x0000AED4, 0x0000AAAA, 0x0000A6B2
00:0000F6B4 D4AE0000
00:0000F6B8 AAAA0000
00:0000F6BC B2A60000
00:0000F6C0 E8A20000        	  4246: .long     0x0000A2E8, 0x00009F49, 0x00009BD3, 0x00009882
00:0000F6C4 499F0000
00:0000F6C8 D39B0000
00:0000F6CC 82980000
00:0000F6D0 55950000        	  4247: .long     0x00009555, 0x00009249, 0x00008F5C, 0x00008C8C
00:0000F6D4 49920000
00:0000F6D8 5C8F0000
00:0000F6DC 8C8C0000
00:0000F6E0 D8890000        	  4248: .long     0x000089D8, 0x0000873E, 0x000084BD, 0x00008253
00:0000F6E4 3E870000
00:0000F6E8 BD840000
00:0000F6EC 53820000
00:0000F6F0 00800000        	  4249: .long     0x00008000, 0x00007DC1, 0x00007B96, 0x0000797D
00:0000F6F4 C17D0000
00:0000F6F8 967B0000
00:0000F6FC 7D790000
00:0000F700 77770000        	  4250: .long     0x00007777, 0x00007582, 0x0000739C, 0x000071C7
00:0000F704 82750000
00:0000F708 9C730000
00:0000F70C C7710000
00:0000F710 FFFFFFFF        	  4251: .long     0xFFFFFFFF, 0x001D0000, 0x000E8000, 0x0009AAAA
00:0000F714 00001D00
00:0000F718 00800E00
00:0000F71C AAAA0900
00:0000F720 00400700        	  4252: .long     0x00074000, 0x0005CCCC, 0x0004D555, 0x00042492
00:0000F724 CCCC0500
00:0000F728 55D50400
00:0000F72C 92240400
00:0000F730 00A00300        	  4253: .long     0x0003A000, 0x000338E3, 0x0002E666, 0x0002A2E8
00:0000F734 E3380300
00:0000F738 66E60200
00:0000F73C E8A20200
00:0000F740 AA6A0200        	  4254: .long     0x00026AAA, 0x00023B13, 0x00021249, 0x0001EEEE
00:0000F744 133B0200
00:0000F748 49120200
00:0000F74C EEEE0100
00:0000F750 00D00100        	  4255: .long     0x0001D000, 0x0001B4B4, 0x00019C71, 0x000186BC
00:0000F754 B4B40100
00:0000F758 719C0100
00:0000F75C BC860100
00:0000F760 33730100        	  4256: .long     0x00017333, 0x00016186, 0x00015174, 0x000142C8
00:0000F764 86610100
00:0000F768 74510100
00:0000F76C C8420100
00:0000F770 55350100        	  4257: .long     0x00013555, 0x000128F5, 0x00011D89, 0x000112F6
00:0000F774 F5280100
00:0000F778 891D0100
00:0000F77C F6120100
00:0000F780 24090100        	  4258: .long     0x00010924, 0x00010000, 0x0000F777, 0x0000EF7B
00:0000F784 00000100
00:0000F788 77F70000
00:0000F78C 7BEF0000
00:0000F790 00E80000        	  4259: .long     0x0000E800, 0x0000E0F8, 0x0000DA5A, 0x0000D41D
00:0000F794 F8E00000
00:0000F798 5ADA0000
00:0000F79C 1DD40000
00:0000F7A0 38CE0000        	  4260: .long     0x0000CE38, 0x0000C8A6, 0x0000C35E, 0x0000BE5B
00:0000F7A4 A6C80000
00:0000F7A8 5EC30000
00:0000F7AC 5BBE0000
00:0000F7B0 99B90000        	  4261: .long     0x0000B999, 0x0000B512, 0x0000B0C3, 0x0000ACA6
00:0000F7B4 12B50000
00:0000F7B8 C3B00000
00:0000F7BC A6AC0000
00:0000F7C0 BAA80000        	  4262: .long     0x0000A8BA, 0x0000A4FA, 0x0000A164, 0x00009DF5
00:0000F7C4 FAA40000
00:0000F7C8 64A10000
00:0000F7CC F59D0000
00:0000F7D0 AA9A0000        	  4263: .long     0x00009AAA, 0x00009782, 0x0000947A, 0x00009191
00:0000F7D4 82970000
00:0000F7D8 7A940000
00:0000F7DC 91910000
00:0000F7E0 C48E0000        	  4264: .long     0x00008EC4, 0x00008C13, 0x0000897B, 0x000086FB
00:0000F7E4 138C0000
00:0000F7E8 7B890000
00:0000F7EC FB860000
00:0000F7F0 92840000        	  4265: .long     0x00008492, 0x0000823E, 0x00008000, 0x00007DD4
00:0000F7F4 3E820000
00:0000F7F8 00800000
00:0000F7FC D47D0000
00:0000F800 BB7B0000        	  4266: .long     0x00007BBB, 0x000079B4, 0x000077BD, 0x000075D7
00:0000F804 B4790000
00:0000F808 BD770000
00:0000F80C D7750000
00:0000F810 FFFFFFFF        	  4267: .long     0xFFFFFFFF, 0x001E0000, 0x000F0000, 0x000A0000
00:0000F814 00001E00
00:0000F818 00000F00
00:0000F81C 00000A00
00:0000F820 00800700        	  4268: .long     0x00078000, 0x00060000, 0x00050000, 0x00044924
00:0000F824 00000600
00:0000F828 00000500
00:0000F82C 24490400
00:0000F830 00C00300        	  4269: .long     0x0003C000, 0x00035555, 0x00030000, 0x0002BA2E
00:0000F834 55550300
00:0000F838 00000300
00:0000F83C 2EBA0200
00:0000F840 00800200        	  4270: .long     0x00028000, 0x00024EC4, 0x00022492, 0x00020000
00:0000F844 C44E0200
00:0000F848 92240200
00:0000F84C 00000200
00:0000F850 00E00100        	  4271: .long     0x0001E000, 0x0001C3C3, 0x0001AAAA, 0x00019435
00:0000F854 C3C30100
00:0000F858 AAAA0100
00:0000F85C 35940100
00:0000F860 00800100        	  4272: .long     0x00018000, 0x00016DB6, 0x00015D17, 0x00014DE9
00:0000F864 B66D0100
00:0000F868 175D0100
00:0000F86C E94D0100
00:0000F870 00400100        	  4273: .long     0x00014000, 0x00013333, 0x00012762, 0x00011C71
00:0000F874 33330100
00:0000F878 62270100
00:0000F87C 711C0100
00:0000F880 49120100        	  4274: .long     0x00011249, 0x000108D3, 0x00010000, 0x0000F7BD
00:0000F884 D3080100
00:0000F888 00000100
00:0000F88C BDF70000
00:0000F890 00F00000        	  4275: .long     0x0000F000, 0x0000E8BA, 0x0000E1E1, 0x0000DB6D
00:0000F894 BAE80000
00:0000F898 E1E10000
00:0000F89C 6DDB0000
00:0000F8A0 55D50000        	  4276: .long     0x0000D555, 0x0000CF91, 0x0000CA1A, 0x0000C4EC
00:0000F8A4 91CF0000
00:0000F8A8 1ACA0000
00:0000F8AC ECC40000
00:0000F8B0 00C00000        	  4277: .long     0x0000C000, 0x0000BB51, 0x0000B6DB, 0x0000B29A
00:0000F8B4 51BB0000
00:0000F8B8 DBB60000
00:0000F8BC 9AB20000
00:0000F8C0 8BAE0000        	  4278: .long     0x0000AE8B, 0x0000AAAA, 0x0000A6F4, 0x0000A367
00:0000F8C4 AAAA0000
00:0000F8C8 F4A60000
00:0000F8CC 67A30000
00:0000F8D0 00A00000        	  4279: .long     0x0000A000, 0x00009CBC, 0x00009999, 0x00009696
00:0000F8D4 BC9C0000
00:0000F8D8 99990000
00:0000F8DC 96960000
00:0000F8E0 B1930000        	  4280: .long     0x000093B1, 0x000090E7, 0x00008E38, 0x00008BA2
00:0000F8E4 E7900000
00:0000F8E8 388E0000
00:0000F8EC A28B0000
00:0000F8F0 24890000        	  4281: .long     0x00008924, 0x000086BC, 0x00008469, 0x0000822B
00:0000F8F4 BC860000
00:0000F8F8 69840000
00:0000F8FC 2B820000
00:0000F900 00800000        	  4282: .long     0x00008000, 0x00007DE6, 0x00007BDE, 0x000079E7
00:0000F904 E67D0000
00:0000F908 DE7B0000
00:0000F90C E7790000
00:0000F910 FFFFFFFF        	  4283: .long     0xFFFFFFFF, 0x001F0000, 0x000F8000, 0x000A5555
00:0000F914 00001F00
00:0000F918 00800F00
00:0000F91C 55550A00
00:0000F920 00C00700        	  4284: .long     0x0007C000, 0x00063333, 0x00052AAA, 0x00046DB6
00:0000F924 33330600
00:0000F928 AA2A0500
00:0000F92C B66D0400
00:0000F930 00E00300        	  4285: .long     0x0003E000, 0x000371C7, 0x00031999, 0x0002D174
00:0000F934 C7710300
00:0000F938 99190300
00:0000F93C 74D10200
00:0000F940 55950200        	  4286: .long     0x00029555, 0x00026276, 0x000236DB, 0x00021111
00:0000F944 76620200
00:0000F948 DB360200
00:0000F94C 11110200
00:0000F950 00F00100        	  4287: .long     0x0001F000, 0x0001D2D2, 0x0001B8E3, 0x0001A1AF
00:0000F954 D2D20100
00:0000F958 E3B80100
00:0000F95C AFA10100
00:0000F960 CC8C0100        	  4288: .long     0x00018CCC, 0x000179E7, 0x000168BA, 0x0001590B
00:0000F964 E7790100
00:0000F968 BA680100
00:0000F96C 0B590100
00:0000F970 AA4A0100        	  4289: .long     0x00014AAA, 0x00013D70, 0x0001313B, 0x000125ED
00:0000F974 703D0100
00:0000F978 3B310100
00:0000F97C ED250100
00:0000F980 6D1B0100        	  4290: .long     0x00011B6D, 0x000111A7, 0x00010888, 0x00010000
00:0000F984 A7110100
00:0000F988 88080100
00:0000F98C 00000100
00:0000F990 00F80000        	  4291: .long     0x0000F800, 0x0000F07C, 0x0000E969, 0x0000E2BE
00:0000F994 7CF00000
00:0000F998 69E90000
00:0000F99C BEE20000
00:0000F9A0 71DC0000        	  4292: .long     0x0000DC71, 0x0000D67C, 0x0000D0D7, 0x0000CB7C
00:0000F9A4 7CD60000
00:0000F9A8 D7D00000
00:0000F9AC 7CCB0000
00:0000F9B0 66C60000        	  4293: .long     0x0000C666, 0x0000C18F, 0x0000BCF3, 0x0000B88E
00:0000F9B4 8FC10000
00:0000F9B8 F3BC0000
00:0000F9BC 8EB80000
00:0000F9C0 5DB40000        	  4294: .long     0x0000B45D, 0x0000B05B, 0x0000AC85, 0x0000A8D9
00:0000F9C4 5BB00000
00:0000F9C8 85AC0000
00:0000F9CC D9A80000
00:0000F9D0 55A50000        	  4295: .long     0x0000A555, 0x0000A1F5, 0x00009EB8, 0x00009B9B
00:0000F9D4 F5A10000
00:0000F9D8 B89E0000
00:0000F9DC 9B9B0000
00:0000F9E0 9D980000        	  4296: .long     0x0000989D, 0x000095BC, 0x000092F6, 0x0000904A
00:0000F9E4 BC950000
00:0000F9E8 F6920000
00:0000F9EC 4A900000
00:0000F9F0 B68D0000        	  4297: .long     0x00008DB6, 0x00008B3A, 0x000088D3, 0x00008682
00:0000F9F4 3A8B0000
00:0000F9F8 D3880000
00:0000F9FC 82860000
00:0000FA00 44840000        	  4298: .long     0x00008444, 0x00008219, 0x00008000, 0x00007DF7
00:0000FA04 19820000
00:0000FA08 00800000
00:0000FA0C F77D0000
00:0000FA10 FFFFFFFF        	  4299: .long     0xFFFFFFFF, 0x00200000, 0x00100000, 0x000AAAAA
00:0000FA14 00002000
00:0000FA18 00001000
00:0000FA1C AAAA0A00
00:0000FA20 00000800        	  4300: .long     0x00080000, 0x00066666, 0x00055555, 0x00049249
00:0000FA24 66660600
00:0000FA28 55550500
00:0000FA2C 49920400
00:0000FA30 00000400        	  4301: .long     0x00040000, 0x00038E38, 0x00033333, 0x0002E8BA
00:0000FA34 388E0300
00:0000FA38 33330300
00:0000FA3C BAE80200
00:0000FA40 AAAA0200        	  4302: .long     0x0002AAAA, 0x00027627, 0x00024924, 0x00022222
00:0000FA44 27760200
00:0000FA48 24490200
00:0000FA4C 22220200
00:0000FA50 00000200        	  4303: .long     0x00020000, 0x0001E1E1, 0x0001C71C, 0x0001AF28
00:0000FA54 E1E10100
00:0000FA58 1CC70100
00:0000FA5C 28AF0100
00:0000FA60 99990100        	  4304: .long     0x00019999, 0x00018618, 0x0001745D, 0x0001642C
00:0000FA64 18860100
00:0000FA68 5D740100
00:0000FA6C 2C640100
00:0000FA70 55550100        	  4305: .long     0x00015555, 0x000147AE, 0x00013B13, 0x00012F68
00:0000FA74 AE470100
00:0000FA78 133B0100
00:0000FA7C 682F0100
00:0000FA80 92240100        	  4306: .long     0x00012492, 0x00011A7B, 0x00011111, 0x00010842
00:0000FA84 7B1A0100
00:0000FA88 11110100
00:0000FA8C 42080100
00:0000FA90 00000100        	  4307: .long     0x00010000, 0x0000F83E, 0x0000F0F0, 0x0000EA0E
00:0000FA94 3EF80000
00:0000FA98 F0F00000
00:0000FA9C 0EEA0000
00:0000FAA0 8EE30000        	  4308: .long     0x0000E38E, 0x0000DD67, 0x0000D794, 0x0000D20D
00:0000FAA4 67DD0000
00:0000FAA8 94D70000
00:0000FAAC 0DD20000
00:0000FAB0 CCCC0000        	  4309: .long     0x0000CCCC, 0x0000C7CE, 0x0000C30C, 0x0000BE82
00:0000FAB4 CEC70000
00:0000FAB8 0CC30000
00:0000FABC 82BE0000
00:0000FAC0 2EBA0000        	  4310: .long     0x0000BA2E, 0x0000B60B, 0x0000B216, 0x0000AE4C
00:0000FAC4 0BB60000
00:0000FAC8 16B20000
00:0000FACC 4CAE0000
00:0000FAD0 AAAA0000        	  4311: .long     0x0000AAAA, 0x0000A72F, 0x0000A3D7, 0x0000A0A0
00:0000FAD4 2FA70000
00:0000FAD8 D7A30000
00:0000FADC A0A00000
00:0000FAE0 899D0000        	  4312: .long     0x00009D89, 0x00009A90, 0x000097B4, 0x000094F2
00:0000FAE4 909A0000
00:0000FAE8 B4970000
00:0000FAEC F2940000
00:0000FAF0 49920000        	  4313: .long     0x00009249, 0x00008FB8, 0x00008D3D, 0x00008AD8
00:0000FAF4 B88F0000
00:0000FAF8 3D8D0000
00:0000FAFC D88A0000
00:0000FB00 88880000        	  4314: .long     0x00008888, 0x0000864B, 0x00008421, 0x00008208
00:0000FB04 4B860000
00:0000FB08 21840000
00:0000FB0C 08820000
00:0000FB10 FFFFFFFF        	  4315: .long     0xFFFFFFFF, 0x00210000, 0x00108000, 0x000B0000
00:0000FB14 00002100
00:0000FB18 00801000
00:0000FB1C 00000B00
00:0000FB20 00400800        	  4316: .long     0x00084000, 0x00069999, 0x00058000, 0x0004B6DB
00:0000FB24 99990600
00:0000FB28 00800500
00:0000FB2C DBB60400
00:0000FB30 00200400        	  4317: .long     0x00042000, 0x0003AAAA, 0x00034CCC, 0x00030000
00:0000FB34 AAAA0300
00:0000FB38 CC4C0300
00:0000FB3C 00000300
00:0000FB40 00C00200        	  4318: .long     0x0002C000, 0x000289D8, 0x00025B6D, 0x00023333
00:0000FB44 D8890200
00:0000FB48 6D5B0200
00:0000FB4C 33330200
00:0000FB50 00100200        	  4319: .long     0x00021000, 0x0001F0F0, 0x0001D555, 0x0001BCA1
00:0000FB54 F0F00100
00:0000FB58 55D50100
00:0000FB5C A1BC0100
00:0000FB60 66A60100        	  4320: .long     0x0001A666, 0x00019249, 0x00018000, 0x00016F4D
00:0000FB64 49920100
00:0000FB68 00800100
00:0000FB6C 4D6F0100
00:0000FB70 00600100        	  4321: .long     0x00016000, 0x000151EB, 0x000144EC, 0x000138E3
00:0000FB74 EB510100
00:0000FB78 EC440100
00:0000FB7C E3380100
00:0000FB80 B62D0100        	  4322: .long     0x00012DB6, 0x0001234F, 0x00011999, 0x00011084
00:0000FB84 4F230100
00:0000FB88 99190100
00:0000FB8C 84100100
00:0000FB90 00080100        	  4323: .long     0x00010800, 0x00010000, 0x0000F878, 0x0000F15F
00:0000FB94 00000100
00:0000FB98 78F80000
00:0000FB9C 5FF10000
00:0000FBA0 AAEA0000        	  4324: .long     0x0000EAAA, 0x0000E453, 0x0000DE50, 0x0000D89D
00:0000FBA4 53E40000
00:0000FBA8 50DE0000
00:0000FBAC 9DD80000
00:0000FBB0 33D30000        	  4325: .long     0x0000D333, 0x0000CE0C, 0x0000C924, 0x0000C477
00:0000FBB4 0CCE0000
00:0000FBB8 24C90000
00:0000FBBC 77C40000
00:0000FBC0 00C00000        	  4326: .long     0x0000C000, 0x0000BBBB, 0x0000B7A6, 0x0000B3BE
00:0000FBC4 BBBB0000
00:0000FBC8 A6B70000
00:0000FBCC BEB30000
00:0000FBD0 00B00000        	  4327: .long     0x0000B000, 0x0000AC68, 0x0000A8F5, 0x0000A5A5
00:0000FBD4 68AC0000
00:0000FBD8 F5A80000
00:0000FBDC A5A50000
00:0000FBE0 76A20000        	  4328: .long     0x0000A276, 0x00009F65, 0x00009C71, 0x00009999
00:0000FBE4 659F0000
00:0000FBE8 719C0000
00:0000FBEC 99990000
00:0000FBF0 DB960000        	  4329: .long     0x000096DB, 0x00009435, 0x000091A7, 0x00008F2F
00:0000FBF4 35940000
00:0000FBF8 A7910000
00:0000FBFC 2F8F0000
00:0000FC00 CC8C0000        	  4330: .long     0x00008CCC, 0x00008A7D, 0x00008842, 0x00008618
00:0000FC04 7D8A0000
00:0000FC08 42880000
00:0000FC0C 18860000
00:0000FC10 FFFFFFFF        	  4331: .long     0xFFFFFFFF, 0x00220000, 0x00110000, 0x000B5555
00:0000FC14 00002200
00:0000FC18 00001100
00:0000FC1C 55550B00
00:0000FC20 00800800        	  4332: .long     0x00088000, 0x0006CCCC, 0x0005AAAA, 0x0004DB6D
00:0000FC24 CCCC0600
00:0000FC28 AAAA0500
00:0000FC2C 6DDB0400
00:0000FC30 00400400        	  4333: .long     0x00044000, 0x0003C71C, 0x00036666, 0x00031745
00:0000FC34 1CC70300
00:0000FC38 66660300
00:0000FC3C 45170300
00:0000FC40 55D50200        	  4334: .long     0x0002D555, 0x00029D89, 0x00026DB6, 0x00024444
00:0000FC44 899D0200
00:0000FC48 B66D0200
00:0000FC4C 44440200
00:0000FC50 00200200        	  4335: .long     0x00022000, 0x00020000, 0x0001E38E, 0x0001CA1A
00:0000FC54 00000200
00:0000FC58 8EE30100
00:0000FC5C 1ACA0100
00:0000FC60 33B30100        	  4336: .long     0x0001B333, 0x00019E79, 0x00018BA2, 0x00017A6F
00:0000FC64 799E0100
00:0000FC68 A28B0100
00:0000FC6C 6F7A0100
00:0000FC70 AA6A0100        	  4337: .long     0x00016AAA, 0x00015C28, 0x00014EC4, 0x0001425E
00:0000FC74 285C0100
00:0000FC78 C44E0100
00:0000FC7C 5E420100
00:0000FC80 DB360100        	  4338: .long     0x000136DB, 0x00012C23, 0x00012222, 0x000118C6
00:0000FC84 232C0100
00:0000FC88 22220100
00:0000FC8C C6180100
00:0000FC90 00100100        	  4339: .long     0x00011000, 0x000107C1, 0x00010000, 0x0000F8AF
00:0000FC94 C1070100
00:0000FC98 00000100
00:0000FC9C AFF80000
00:0000FCA0 C7F10000        	  4340: .long     0x0000F1C7, 0x0000EB3E, 0x0000E50D, 0x0000DF2D
00:0000FCA4 3EEB0000
00:0000FCA8 0DE50000
00:0000FCAC 2DDF0000
00:0000FCB0 99D90000        	  4341: .long     0x0000D999, 0x0000D44A, 0x0000CF3C, 0x0000CA6B
00:0000FCB4 4AD40000
00:0000FCB8 3CCF0000
00:0000FCBC 6BCA0000
00:0000FCC0 D1C50000        	  4342: .long     0x0000C5D1, 0x0000C16C, 0x0000BD37, 0x0000B931
00:0000FCC4 6CC10000
00:0000FCC8 37BD0000
00:0000FCCC 31B90000
00:0000FCD0 55B50000        	  4343: .long     0x0000B555, 0x0000B1A1, 0x0000AE14, 0x0000AAAA
00:0000FCD4 A1B10000
00:0000FCD8 14AE0000
00:0000FCDC AAAA0000
00:0000FCE0 62A70000        	  4344: .long     0x0000A762, 0x0000A439, 0x0000A12F, 0x00009E41
00:0000FCE4 39A40000
00:0000FCE8 2FA10000
00:0000FCEC 419E0000
00:0000FCF0 6D9B0000        	  4345: .long     0x00009B6D, 0x000098B3, 0x00009611, 0x00009386
00:0000FCF4 B3980000
00:0000FCF8 11960000
00:0000FCFC 86930000
00:0000FD00 11910000        	  4346: .long     0x00009111, 0x00008EB0, 0x00008C63, 0x00008A28
00:0000FD04 B08E0000
00:0000FD08 638C0000
00:0000FD0C 288A0000
00:0000FD10 FFFFFFFF        	  4347: .long     0xFFFFFFFF, 0x00230000, 0x00118000, 0x000BAAAA
00:0000FD14 00002300
00:0000FD18 00801100
00:0000FD1C AAAA0B00
00:0000FD20 00C00800        	  4348: .long     0x0008C000, 0x00070000, 0x0005D555, 0x00050000
00:0000FD24 00000700
00:0000FD28 55D50500
00:0000FD2C 00000500
00:0000FD30 00600400        	  4349: .long     0x00046000, 0x0003E38E, 0x00038000, 0x00032E8B
00:0000FD34 8EE30300
00:0000FD38 00800300
00:0000FD3C 8B2E0300
00:0000FD40 AAEA0200        	  4350: .long     0x0002EAAA, 0x0002B13B, 0x00028000, 0x00025555
00:0000FD44 3BB10200
00:0000FD48 00800200
00:0000FD4C 55550200
00:0000FD50 00300200        	  4351: .long     0x00023000, 0x00020F0F, 0x0001F1C7, 0x0001D794
00:0000FD54 0F0F0200
00:0000FD58 C7F10100
00:0000FD5C 94D70100
00:0000FD60 00C00100        	  4352: .long     0x0001C000, 0x0001AAAA, 0x00019745, 0x00018590
00:0000FD64 AAAA0100
00:0000FD68 45970100
00:0000FD6C 90850100
00:0000FD70 55750100        	  4353: .long     0x00017555, 0x00016666, 0x0001589D, 0x00014BDA
00:0000FD74 66660100
00:0000FD78 9D580100
00:0000FD7C DA4B0100
00:0000FD80 00400100        	  4354: .long     0x00014000, 0x000134F7, 0x00012AAA, 0x00012108
00:0000FD84 F7340100
00:0000FD88 AA2A0100
00:0000FD8C 08210100
00:0000FD90 00180100        	  4355: .long     0x00011800, 0x00010F83, 0x00010787, 0x00010000
00:0000FD94 830F0100
00:0000FD98 87070100
00:0000FD9C 00000100
00:0000FDA0 E3F80000        	  4356: .long     0x0000F8E3, 0x0000F229, 0x0000EBCA, 0x0000E5BE
00:0000FDA4 29F20000
00:0000FDA8 CAEB0000
00:0000FDAC BEE50000
00:0000FDB0 00E00000        	  4357: .long     0x0000E000, 0x0000DA89, 0x0000D555, 0x0000D05F
00:0000FDB4 89DA0000
00:0000FDB8 55D50000
00:0000FDBC 5FD00000
00:0000FDC0 A2CB0000        	  4358: .long     0x0000CBA2, 0x0000C71C, 0x0000C2C8, 0x0000BEA3
00:0000FDC4 1CC70000
00:0000FDC8 C8C20000
00:0000FDCC A3BE0000
00:0000FDD0 AABA0000        	  4359: .long     0x0000BAAA, 0x0000B6DB, 0x0000B333, 0x0000AFAF
00:0000FDD4 DBB60000
00:0000FDD8 33B30000
00:0000FDDC AFAF0000
00:0000FDE0 4EAC0000        	  4360: .long     0x0000AC4E, 0x0000A90E, 0x0000A5ED, 0x0000A2E8
00:0000FDE4 0EA90000
00:0000FDE8 EDA50000
00:0000FDEC E8A20000
00:0000FDF0 00A00000        	  4361: .long     0x0000A000, 0x00009D31, 0x00009A7B, 0x000097DD
00:0000FDF4 319D0000
00:0000FDF8 7B9A0000
00:0000FDFC DD970000
00:0000FE00 55950000        	  4362: .long     0x00009555, 0x000092E2, 0x00009084, 0x00008E38
00:0000FE04 E2920000
00:0000FE08 84900000
00:0000FE0C 388E0000
00:0000FE10 FFFFFFFF        	  4363: .long     0xFFFFFFFF, 0x00240000, 0x00120000, 0x000C0000
00:0000FE14 00002400
00:0000FE18 00001200
00:0000FE1C 00000C00
00:0000FE20 00000900        	  4364: .long     0x00090000, 0x00073333, 0x00060000, 0x00052492
00:0000FE24 33330700
00:0000FE28 00000600
00:0000FE2C 92240500
00:0000FE30 00800400        	  4365: .long     0x00048000, 0x00040000, 0x00039999, 0x000345D1
00:0000FE34 00000400
00:0000FE38 99990300
00:0000FE3C D1450300
00:0000FE40 00000300        	  4366: .long     0x00030000, 0x0002C4EC, 0x00029249, 0x00026666
00:0000FE44 ECC40200
00:0000FE48 49920200
00:0000FE4C 66660200
00:0000FE50 00400200        	  4367: .long     0x00024000, 0x00021E1E, 0x00020000, 0x0001E50D
00:0000FE54 1E1E0200
00:0000FE58 00000200
00:0000FE5C 0DE50100
00:0000FE60 CCCC0100        	  4368: .long     0x0001CCCC, 0x0001B6DB, 0x0001A2E8, 0x000190B2
00:0000FE64 DBB60100
00:0000FE68 E8A20100
00:0000FE6C B2900100
00:0000FE70 00800100        	  4369: .long     0x00018000, 0x000170A3, 0x00016276, 0x00015555
00:0000FE74 A3700100
00:0000FE78 76620100
00:0000FE7C 55550100
00:0000FE80 24490100        	  4370: .long     0x00014924, 0x00013DCB, 0x00013333, 0x0001294A
00:0000FE84 CB3D0100
00:0000FE88 33330100
00:0000FE8C 4A290100
00:0000FE90 00200100        	  4371: .long     0x00012000, 0x00011745, 0x00010F0F, 0x00010750
00:0000FE94 45170100
00:0000FE98 0F0F0100
00:0000FE9C 50070100
00:0000FEA0 00000100        	  4372: .long     0x00010000, 0x0000F914, 0x0000F286, 0x0000EC4E
00:0000FEA4 14F90000
00:0000FEA8 86F20000
00:0000FEAC 4EEC0000
00:0000FEB0 66E60000        	  4373: .long     0x0000E666, 0x0000E0C7, 0x0000DB6D, 0x0000D653
00:0000FEB4 C7E00000
00:0000FEB8 6DDB0000
00:0000FEBC 53D60000
00:0000FEC0 74D10000        	  4374: .long     0x0000D174, 0x0000CCCC, 0x0000C859, 0x0000C415
00:0000FEC4 CCCC0000
00:0000FEC8 59C80000
00:0000FECC 15C40000
00:0000FED0 00C00000        	  4375: .long     0x0000C000, 0x0000BC14, 0x0000B851, 0x0000B4B4
00:0000FED4 14BC0000
00:0000FED8 51B80000
00:0000FEDC B4B40000
00:0000FEE0 3BB10000        	  4376: .long     0x0000B13B, 0x0000ADE3, 0x0000AAAA, 0x0000A790
00:0000FEE4 E3AD0000
00:0000FEE8 AAAA0000
00:0000FEEC 90A70000
00:0000FEF0 92A40000        	  4377: .long     0x0000A492, 0x0000A1AF, 0x00009EE5, 0x00009C34
00:0000FEF4 AFA10000
00:0000FEF8 E59E0000
00:0000FEFC 349C0000
00:0000FF00 99990000        	  4378: .long     0x00009999, 0x00009714, 0x000094A5, 0x00009249
00:0000FF04 14970000
00:0000FF08 A5940000
00:0000FF0C 49920000
00:0000FF10 FFFFFFFF        	  4379: .long     0xFFFFFFFF, 0x00250000, 0x00128000, 0x000C5555
00:0000FF14 00002500
00:0000FF18 00801200
00:0000FF1C 55550C00
00:0000FF20 00400900        	  4380: .long     0x00094000, 0x00076666, 0x00062AAA, 0x00054924
00:0000FF24 66660700
00:0000FF28 AA2A0600
00:0000FF2C 24490500
00:0000FF30 00A00400        	  4381: .long     0x0004A000, 0x00041C71, 0x0003B333, 0x00035D17
00:0000FF34 711C0400
00:0000FF38 33B30300
00:0000FF3C 175D0300
00:0000FF40 55150300        	  4382: .long     0x00031555, 0x0002D89D, 0x0002A492, 0x00027777
00:0000FF44 9DD80200
00:0000FF48 92A40200
00:0000FF4C 77770200
00:0000FF50 00500200        	  4383: .long     0x00025000, 0x00022D2D, 0x00020E38, 0x0001F286
00:0000FF54 2D2D0200
00:0000FF58 380E0200
00:0000FF5C 86F20100
00:0000FF60 99D90100        	  4384: .long     0x0001D999, 0x0001C30C, 0x0001AE8B, 0x00019BD3
00:0000FF64 0CC30100
00:0000FF68 8BAE0100
00:0000FF6C D39B0100
00:0000FF70 AA8A0100        	  4385: .long     0x00018AAA, 0x00017AE1, 0x00016C4E, 0x00015ED0
00:0000FF74 E17A0100
00:0000FF78 4E6C0100
00:0000FF7C D05E0100
00:0000FF80 49520100        	  4386: .long     0x00015249, 0x0001469E, 0x00013BBB, 0x0001318C
00:0000FF84 9E460100
00:0000FF88 BB3B0100
00:0000FF8C 8C310100
00:0000FF90 00280100        	  4387: .long     0x00012800, 0x00011F07, 0x00011696, 0x00010EA0
00:0000FF94 071F0100
00:0000FF98 96160100
00:0000FF9C A00E0100
00:0000FFA0 1C070100        	  4388: .long     0x0001071C, 0x00010000, 0x0000F943, 0x0000F2DF
00:0000FFA4 00000100
00:0000FFA8 43F90000
00:0000FFAC DFF20000
00:0000FFB0 CCEC0000        	  4389: .long     0x0000ECCC, 0x0000E706, 0x0000E186, 0x0000DC47
00:0000FFB4 06E70000
00:0000FFB8 86E10000
00:0000FFBC 47DC0000
00:0000FFC0 45D70000        	  4390: .long     0x0000D745, 0x0000D27D, 0x0000CDE9, 0x0000C988
00:0000FFC4 7DD20000
00:0000FFC8 E9CD0000
00:0000FFCC 88C90000
00:0000FFD0 55C50000        	  4391: .long     0x0000C555, 0x0000C14E, 0x0000BD70, 0x0000B9B9
00:0000FFD4 4EC10000
00:0000FFD8 70BD0000
00:0000FFDC B9B90000
00:0000FFE0 27B60000        	  4392: .long     0x0000B627, 0x0000B2B7, 0x0000AF68, 0x0000AC37
00:0000FFE4 B7B20000
00:0000FFE8 68AF0000
00:0000FFEC 37AC0000
00:0000FFF0 24A90000        	  4393: .long     0x0000A924, 0x0000A62C, 0x0000A34F, 0x0000A08A
00:0000FFF4 2CA60000
00:0000FFF8 4FA30000
00:0000FFFC 8AA00000
00:00010000 DD9D0000        	  4394: .long     0x00009DDD, 0x00009B47, 0x000098C6, 0x00009659
00:00010004 479B0000
00:00010008 C6980000
00:0001000C 59960000
00:00010010 FFFFFFFF        	  4395: .long     0xFFFFFFFF, 0x00260000, 0x00130000, 0x000CAAAA
00:00010014 00002600
00:00010018 00001300
00:0001001C AAAA0C00
00:00010020 00800900        	  4396: .long     0x00098000, 0x00079999, 0x00065555, 0x00056DB6
00:00010024 99990700
00:00010028 55550600
00:0001002C B66D0500
00:00010030 00C00400        	  4397: .long     0x0004C000, 0x000438E3, 0x0003CCCC, 0x0003745D
00:00010034 E3380400
00:00010038 CCCC0300
00:0001003C 5D740300
00:00010040 AA2A0300        	  4398: .long     0x00032AAA, 0x0002EC4E, 0x0002B6DB, 0x00028888
00:00010044 4EEC0200
00:00010048 DBB60200
00:0001004C 88880200
00:00010050 00600200        	  4399: .long     0x00026000, 0x00023C3C, 0x00021C71, 0x00020000
00:00010054 3C3C0200
00:00010058 711C0200
00:0001005C 00000200
00:00010060 66E60100        	  4400: .long     0x0001E666, 0x0001CF3C, 0x0001BA2E, 0x0001A6F4
00:00010064 3CCF0100
00:00010068 2EBA0100
00:0001006C F4A60100
00:00010070 55950100        	  4401: .long     0x00019555, 0x0001851E, 0x00017627, 0x0001684B
00:00010074 1E850100
00:00010078 27760100
00:0001007C 4B680100
00:00010080 6D5B0100        	  4402: .long     0x00015B6D, 0x00014F72, 0x00014444, 0x000139CE
00:00010084 724F0100
00:00010088 44440100
00:0001008C CE390100
00:00010090 00300100        	  4403: .long     0x00013000, 0x000126C9, 0x00011E1E, 0x000115F1
00:00010094 C9260100
00:00010098 1E1E0100
00:0001009C F1150100
00:000100A0 380E0100        	  4404: .long     0x00010E38, 0x000106EB, 0x00010000, 0x0000F96F
00:000100A4 EB060100
00:000100A8 00000100
00:000100AC 6FF90000
00:000100B0 33F30000        	  4405: .long     0x0000F333, 0x0000ED44, 0x0000E79E, 0x0000E23B
00:000100B4 44ED0000
00:000100B8 9EE70000
00:000100BC 3BE20000
00:000100C0 17DD0000        	  4406: .long     0x0000DD17, 0x0000D82D, 0x0000D37A, 0x0000CEFA
00:000100C4 2DD80000
00:000100C8 7AD30000
00:000100CC FACE0000
00:000100D0 AACA0000        	  4407: .long     0x0000CAAA, 0x0000C687, 0x0000C28F, 0x0000BEBE
00:000100D4 87C60000
00:000100D8 8FC20000
00:000100DC BEBE0000
00:000100E0 13BB0000        	  4408: .long     0x0000BB13, 0x0000B78C, 0x0000B425, 0x0000B0DF
00:000100E4 8CB70000
00:000100E8 25B40000
00:000100EC DFB00000
00:000100F0 B6AD0000        	  4409: .long     0x0000ADB6, 0x0000AAAA, 0x0000A7B9, 0x0000A4E1
00:000100F4 AAAA0000
00:000100F8 B9A70000
00:000100FC E1A40000
00:00010100 22A20000        	  4410: .long     0x0000A222, 0x00009F79, 0x00009CE7, 0x00009A69
00:00010104 799F0000
00:00010108 E79C0000
00:0001010C 699A0000
00:00010110 FFFFFFFF        	  4411: .long     0xFFFFFFFF, 0x00270000, 0x00138000, 0x000D0000
00:00010114 00002700
00:00010118 00801300
00:0001011C 00000D00
00:00010120 00C00900        	  4412: .long     0x0009C000, 0x0007CCCC, 0x00068000, 0x00059249
00:00010124 CCCC0700
00:00010128 00800600
00:0001012C 49920500
00:00010130 00E00400        	  4413: .long     0x0004E000, 0x00045555, 0x0003E666, 0x00038BA2
00:00010134 55550400
00:00010138 66E60300
00:0001013C A28B0300
00:00010140 00400300        	  4414: .long     0x00034000, 0x00030000, 0x0002C924, 0x00029999
00:00010144 00000300
00:00010148 24C90200
00:0001014C 99990200
00:00010150 00700200        	  4415: .long     0x00027000, 0x00024B4B, 0x00022AAA, 0x00020D79
00:00010154 4B4B0200
00:00010158 AA2A0200
00:0001015C 790D0200
00:00010160 33F30100        	  4416: .long     0x0001F333, 0x0001DB6D, 0x0001C5D1, 0x0001B216
00:00010164 6DDB0100
00:00010168 D1C50100
00:0001016C 16B20100
00:00010170 00A00100        	  4417: .long     0x0001A000, 0x00018F5C, 0x00018000, 0x000171C7
00:00010174 5C8F0100
00:00010178 00800100
00:0001017C C7710100
00:00010180 92640100        	  4418: .long     0x00016492, 0x00015846, 0x00014CCC, 0x00014210
00:00010184 46580100
00:00010188 CC4C0100
00:0001018C 10420100
00:00010190 00380100        	  4419: .long     0x00013800, 0x00012E8B, 0x000125A5, 0x00011D41
00:00010194 8B2E0100
00:00010198 A5250100
00:0001019C 411D0100
00:000101A0 55150100        	  4420: .long     0x00011555, 0x00010DD6, 0x000106BC, 0x00010000
00:000101A4 D60D0100
00:000101A8 BC060100
00:000101AC 00000100
00:000101B0 99F90000        	  4421: .long     0x0000F999, 0x0000F383, 0x0000EDB6, 0x0000E82F
00:000101B4 83F30000
00:000101B8 B6ED0000
00:000101BC 2FE80000
00:000101C0 E8E20000        	  4422: .long     0x0000E2E8, 0x0000DDDD, 0x0000D90B, 0x0000D46C
00:000101C4 DDDD0000
00:000101C8 0BD90000
00:000101CC 6CD40000
00:000101D0 00D00000        	  4423: .long     0x0000D000, 0x0000CBC1, 0x0000C7AE, 0x0000C3C3
00:000101D4 C1CB0000
00:000101D8 AEC70000
00:000101DC C3C30000
00:000101E0 00C00000        	  4424: .long     0x0000C000, 0x0000BC60, 0x0000B8E3, 0x0000B586
00:000101E4 60BC0000
00:000101E8 E3B80000
00:000101EC 86B50000
00:000101F0 49B20000        	  4425: .long     0x0000B249, 0x0000AF28, 0x0000AC23, 0x0000A938
00:000101F4 28AF0000
00:000101F8 23AC0000
00:000101FC 38A90000
00:00010200 66A60000        	  4426: .long     0x0000A666, 0x0000A3AC, 0x0000A108, 0x00009E79
00:00010204 ACA30000
00:00010208 08A10000
00:0001020C 799E0000
00:00010210 FFFFFFFF        	  4427: .long     0xFFFFFFFF, 0x00280000, 0x00140000, 0x000D5555
00:00010214 00002800
00:00010218 00001400
00:0001021C 55550D00
00:00010220 00000A00        	  4428: .long     0x000A0000, 0x00080000, 0x0006AAAA, 0x0005B6DB
00:00010224 00000800
00:00010228 AAAA0600
00:0001022C DBB60500
00:00010230 00000500        	  4429: .long     0x00050000, 0x000471C7, 0x00040000, 0x0003A2E8
00:00010234 C7710400
00:00010238 00000400
00:0001023C E8A20300
00:00010240 55550300        	  4430: .long     0x00035555, 0x000313B1, 0x0002DB6D, 0x0002AAAA
00:00010244 B1130300
00:00010248 6DDB0200
00:0001024C AAAA0200
00:00010250 00800200        	  4431: .long     0x00028000, 0x00025A5A, 0x000238E3, 0x00021AF2
00:00010254 5A5A0200
00:00010258 E3380200
00:0001025C F21A0200
00:00010260 00000200        	  4432: .long     0x00020000, 0x0001E79E, 0x0001D174, 0x0001BD37
00:00010264 9EE70100
00:00010268 74D10100
00:0001026C 37BD0100
00:00010270 AAAA0100        	  4433: .long     0x0001AAAA, 0x00019999, 0x000189D8, 0x00017B42
00:00010274 99990100
00:00010278 D8890100
00:0001027C 427B0100
00:00010280 B66D0100        	  4434: .long     0x00016DB6, 0x0001611A, 0x00015555, 0x00014A52
00:00010284 1A610100
00:00010288 55550100
00:0001028C 524A0100
00:00010290 00400100        	  4435: .long     0x00014000, 0x0001364D, 0x00012D2D, 0x00012492
00:00010294 4D360100
00:00010298 2D2D0100
00:0001029C 92240100
00:000102A0 711C0100        	  4436: .long     0x00011C71, 0x000114C1, 0x00010D79, 0x00010690
00:000102A4 C1140100
00:000102A8 790D0100
00:000102AC 90060100
00:000102B0 00000100        	  4437: .long     0x00010000, 0x0000F9C1, 0x0000F3CF, 0x0000EE23
00:000102B4 C1F90000
00:000102B8 CFF30000
00:000102BC 23EE0000
00:000102C0 BAE80000        	  4438: .long     0x0000E8BA, 0x0000E38E, 0x0000DE9B, 0x0000D9DF
00:000102C4 8EE30000
00:000102C8 9BDE0000
00:000102CC DFD90000
00:000102D0 55D50000        	  4439: .long     0x0000D555, 0x0000D0FA, 0x0000CCCC, 0x0000C8C8
00:000102D4 FAD00000
00:000102D8 CCCC0000
00:000102DC C8C80000
00:000102E0 ECC40000        	  4440: .long     0x0000C4EC, 0x0000C135, 0x0000BDA1, 0x0000BA2E
00:000102E4 35C10000
00:000102E8 A1BD0000
00:000102EC 2EBA0000
00:000102F0 DBB60000        	  4441: .long     0x0000B6DB, 0x0000B3A6, 0x0000B08D, 0x0000AD8F
00:000102F4 A6B30000
00:000102F8 8DB00000
00:000102FC 8FAD0000
00:00010300 AAAA0000        	  4442: .long     0x0000AAAA, 0x0000A7DE, 0x0000A529, 0x0000A28A
00:00010304 DEA70000
00:00010308 29A50000
00:0001030C 8AA20000
00:00010310 FFFFFFFF        	  4443: .long     0xFFFFFFFF, 0x00290000, 0x00148000, 0x000DAAAA
00:00010314 00002900
00:00010318 00801400
00:0001031C AAAA0D00
00:00010320 00400A00        	  4444: .long     0x000A4000, 0x00083333, 0x0006D555, 0x0005DB6D
00:00010324 33330800
00:00010328 55D50600
00:0001032C 6DDB0500
00:00010330 00200500        	  4445: .long     0x00052000, 0x00048E38, 0x00041999, 0x0003BA2E
00:00010334 388E0400
00:00010338 99190400
00:0001033C 2EBA0300
00:00010340 AA6A0300        	  4446: .long     0x00036AAA, 0x00032762, 0x0002EDB6, 0x0002BBBB
00:00010344 62270300
00:00010348 B6ED0200
00:0001034C BBBB0200
00:00010350 00900200        	  4447: .long     0x00029000, 0x00026969, 0x0002471C, 0x0002286B
00:00010354 69690200
00:00010358 1C470200
00:0001035C 6B280200
00:00010360 CC0C0200        	  4448: .long     0x00020CCC, 0x0001F3CF, 0x0001DD17, 0x0001C859
00:00010364 CFF30100
00:00010368 17DD0100
00:0001036C 59C80100
00:00010370 55B50100        	  4449: .long     0x0001B555, 0x0001A3D7, 0x000193B1, 0x000184BD
00:00010374 D7A30100
00:00010378 B1930100
00:0001037C BD840100
00:00010380 DB760100        	  4450: .long     0x000176DB, 0x000169EE, 0x00015DDD, 0x00015294
00:00010384 EE690100
00:00010388 DD5D0100
00:0001038C 94520100
00:00010390 00480100        	  4451: .long     0x00014800, 0x00013E0F, 0x000134B4, 0x00012BE2
00:00010394 0F3E0100
00:00010398 B4340100
00:0001039C E22B0100
00:000103A0 8E230100        	  4452: .long     0x0001238E, 0x00011BAC, 0x00011435, 0x00010D20
00:000103A4 AC1B0100
00:000103A8 35140100
00:000103AC 200D0100
00:000103B0 66060100        	  4453: .long     0x00010666, 0x00010000, 0x0000F9E7, 0x0000F417
00:000103B4 00000100
00:000103B8 E7F90000
00:000103BC 17F40000
00:000103C0 8BEE0000        	  4454: .long     0x0000EE8B, 0x0000E93E, 0x0000E42C, 0x0000DF51
00:000103C4 3EE90000
00:000103C8 2CE40000
00:000103CC 51DF0000
00:000103D0 AADA0000        	  4455: .long     0x0000DAAA, 0x0000D634, 0x0000D1EB, 0x0000CDCD
00:000103D4 34D60000
00:000103D8 EBD10000
00:000103DC CDCD0000
00:000103E0 D8C90000        	  4456: .long     0x0000C9D8, 0x0000C609, 0x0000C25E, 0x0000BED6
00:000103E4 09C60000
00:000103E8 5EC20000
00:000103EC D6BE0000
00:000103F0 6DBB0000        	  4457: .long     0x0000BB6D, 0x0000B823, 0x0000B4F7, 0x0000B1E5
00:000103F4 23B80000
00:000103F8 F7B40000
00:000103FC E5B10000
00:00010400 EEAE0000        	  4458: .long     0x0000AEEE, 0x0000AC10, 0x0000A94A, 0x0000A69A
00:00010404 10AC0000
00:00010408 4AA90000
00:0001040C 9AA60000
00:00010410 FFFFFFFF        	  4459: .long     0xFFFFFFFF, 0x002A0000, 0x00150000, 0x000E0000
00:00010414 00002A00
00:00010418 00001500
00:0001041C 00000E00
00:00010420 00800A00        	  4460: .long     0x000A8000, 0x00086666, 0x00070000, 0x00060000
00:00010424 66660800
00:00010428 00000700
00:0001042C 00000600
00:00010430 00400500        	  4461: .long     0x00054000, 0x0004AAAA, 0x00043333, 0x0003D174
00:00010434 AAAA0400
00:00010438 33330400
00:0001043C 74D10300
00:00010440 00800300        	  4462: .long     0x00038000, 0x00033B13, 0x00030000, 0x0002CCCC
00:00010444 133B0300
00:00010448 00000300
00:0001044C CCCC0200
00:00010450 00A00200        	  4463: .long     0x0002A000, 0x00027878, 0x00025555, 0x000235E5
00:00010454 78780200
00:00010458 55550200
00:0001045C E5350200
00:00010460 99190200        	  4464: .long     0x00021999, 0x00020000, 0x0001E8BA, 0x0001D37A
00:00010464 00000200
00:00010468 BAE80100
00:0001046C 7AD30100
00:00010470 00C00100        	  4465: .long     0x0001C000, 0x0001AE14, 0x00019D89, 0x00018E38
00:00010474 14AE0100
00:00010478 899D0100
00:0001047C 388E0100
00:00010480 00800100        	  4466: .long     0x00018000, 0x000172C2, 0x00016666, 0x00015AD6
00:00010484 C2720100
00:00010488 66660100
00:0001048C D65A0100
00:00010490 00500100        	  4467: .long     0x00015000, 0x000145D1, 0x00013C3C, 0x00013333
00:00010494 D1450100
00:00010498 3C3C0100
00:0001049C 33330100
00:000104A0 AA2A0100        	  4468: .long     0x00012AAA, 0x00012298, 0x00011AF2, 0x000113B1
00:000104A4 98220100
00:000104A8 F21A0100
00:000104AC B1130100
00:000104B0 CC0C0100        	  4469: .long     0x00010CCC, 0x0001063E, 0x00010000, 0x0000FA0B
00:000104B4 3E060100
00:000104B8 00000100
00:000104BC 0BFA0000
00:000104C0 5DF40000        	  4470: .long     0x0000F45D, 0x0000EEEE, 0x0000E9BD, 0x0000E4C4
00:000104C4 EEEE0000
00:000104C8 BDE90000
00:000104CC C4E40000
00:000104D0 00E00000        	  4471: .long     0x0000E000, 0x0000DB6D, 0x0000D70A, 0x0000D2D2
00:000104D4 6DDB0000
00:000104D8 0AD70000
00:000104DC D2D20000
00:000104E0 C4CE0000        	  4472: .long     0x0000CEC4, 0x0000CADE, 0x0000C71C, 0x0000C37D
00:000104E4 DECA0000
00:000104E8 1CC70000
00:000104EC 7DC30000
00:000104F0 00C00000        	  4473: .long     0x0000C000, 0x0000BCA1, 0x0000B961, 0x0000B63C
00:000104F4 A1BC0000
00:000104F8 61B90000
00:000104FC 3CB60000
00:00010500 33B30000        	  4474: .long     0x0000B333, 0x0000B043, 0x0000AD6B, 0x0000AAAA
00:00010504 43B00000
00:00010508 6BAD0000
00:0001050C AAAA0000
00:00010510 FFFFFFFF        	  4475: .long     0xFFFFFFFF, 0x002B0000, 0x00158000, 0x000E5555
00:00010514 00002B00
00:00010518 00801500
00:0001051C 55550E00
00:00010520 00C00A00        	  4476: .long     0x000AC000, 0x00089999, 0x00072AAA, 0x00062492
00:00010524 99990800
00:00010528 AA2A0700
00:0001052C 92240600
00:00010530 00600500        	  4477: .long     0x00056000, 0x0004C71C, 0x00044CCC, 0x0003E8BA
00:00010534 1CC70400
00:00010538 CC4C0400
00:0001053C BAE80300
00:00010540 55950300        	  4478: .long     0x00039555, 0x00034EC4, 0x00031249, 0x0002DDDD
00:00010544 C44E0300
00:00010548 49120300
00:0001054C DDDD0200
00:00010550 00B00200        	  4479: .long     0x0002B000, 0x00028787, 0x0002638E, 0x0002435E
00:00010554 87870200
00:00010558 8E630200
00:0001055C 5E430200
00:00010560 66260200        	  4480: .long     0x00022666, 0x00020C30, 0x0001F45D, 0x0001DE9B
00:00010564 300C0200
00:00010568 5DF40100
00:0001056C 9BDE0100
00:00010570 AACA0100        	  4481: .long     0x0001CAAA, 0x0001B851, 0x0001A762, 0x000197B4
00:00010574 51B80100
00:00010578 62A70100
00:0001057C B4970100
00:00010580 24890100        	  4482: .long     0x00018924, 0x00017B96, 0x00016EEE, 0x00016318
00:00010584 967B0100
00:00010588 EE6E0100
00:0001058C 18630100
00:00010590 00580100        	  4483: .long     0x00015800, 0x00014D93, 0x000143C3, 0x00013A83
00:00010594 934D0100
00:00010598 C3430100
00:0001059C 833A0100
00:000105A0 C7310100        	  4484: .long     0x000131C7, 0x00012983, 0x000121AF, 0x00011A41
00:000105A4 83290100
00:000105A8 AF210100
00:000105AC 411A0100
00:000105B0 33130100        	  4485: .long     0x00011333, 0x00010C7C, 0x00010618, 0x00010000
00:000105B4 7C0C0100
00:000105B8 18060100
00:000105BC 00000100
00:000105C0 2EFA0000        	  4486: .long     0x0000FA2E, 0x0000F49F, 0x0000EF4D, 0x0000EA36
00:000105C4 9FF40000
00:000105C8 4DEF0000
00:000105CC 36EA0000
00:000105D0 55E50000        	  4487: .long     0x0000E555, 0x0000E0A7, 0x0000DC28, 0x0000D7D7
00:000105D4 A7E00000
00:000105D8 28DC0000
00:000105DC D7D70000
00:000105E0 B1D30000        	  4488: .long     0x0000D3B1, 0x0000CFB2, 0x0000CBDA, 0x0000C825
00:000105E4 B2CF0000
00:000105E8 DACB0000
00:000105EC 25C80000
00:000105F0 92C40000        	  4489: .long     0x0000C492, 0x0000C11F, 0x0000BDCB, 0x0000BA93
00:000105F4 1FC10000
00:000105F8 CBBD0000
00:000105FC 93BA0000
00:00010600 77B70000        	  4490: .long     0x0000B777, 0x0000B475, 0x0000B18C, 0x0000AEBA
00:00010604 75B40000
00:00010608 8CB10000
00:0001060C BAAE0000
00:00010610 FFFFFFFF        	  4491: .long     0xFFFFFFFF, 0x002C0000, 0x00160000, 0x000EAAAA
00:00010614 00002C00
00:00010618 00001600
00:0001061C AAAA0E00
00:00010620 00000B00        	  4492: .long     0x000B0000, 0x0008CCCC, 0x00075555, 0x00064924
00:00010624 CCCC0800
00:00010628 55550700
00:0001062C 24490600
00:00010630 00800500        	  4493: .long     0x00058000, 0x0004E38E, 0x00046666, 0x00040000
00:00010634 8EE30400
00:00010638 66660400
00:0001063C 00000400
00:00010640 AAAA0300        	  4494: .long     0x0003AAAA, 0x00036276, 0x00032492, 0x0002EEEE
00:00010644 76620300
00:00010648 92240300
00:0001064C EEEE0200
00:00010650 00C00200        	  4495: .long     0x0002C000, 0x00029696, 0x000271C7, 0x000250D7
00:00010654 96960200
00:00010658 C7710200
00:0001065C D7500200
00:00010660 33330200        	  4496: .long     0x00023333, 0x00021861, 0x00020000, 0x0001E9BD
00:00010664 61180200
00:00010668 00000200
00:0001066C BDE90100
00:00010670 55D50100        	  4497: .long     0x0001D555, 0x0001C28F, 0x0001B13B, 0x0001A12F
00:00010674 8FC20100
00:00010678 3BB10100
00:0001067C 2FA10100
00:00010680 49920100        	  4498: .long     0x00019249, 0x00018469, 0x00017777, 0x00016B5A
00:00010684 69840100
00:00010688 77770100
00:0001068C 5A6B0100
00:00010690 00600100        	  4499: .long     0x00016000, 0x00015555, 0x00014B4B, 0x000141D4
00:00010694 55550100
00:00010698 4B4B0100
00:0001069C D4410100
00:000106A0 E3380100        	  4500: .long     0x000138E3, 0x0001306E, 0x0001286B, 0x000120D2
00:000106A4 6E300100
00:000106A8 6B280100
00:000106AC D2200100
00:000106B0 99190100        	  4501: .long     0x00011999, 0x000112BB, 0x00010C30, 0x000105F4
00:000106B4 BB120100
00:000106B8 300C0100
00:000106BC F4050100
00:000106C0 00000100        	  4502: .long     0x00010000, 0x0000FA4F, 0x0000F4DE, 0x0000EFA8
00:000106C4 4FFA0000
00:000106C8 DEF40000
00:000106CC A8EF0000
00:000106D0 AAEA0000        	  4503: .long     0x0000EAAA, 0x0000E5E0, 0x0000E147, 0x0000DCDC
00:000106D4 E0E50000
00:000106D8 47E10000
00:000106DC DCDC0000
00:000106E0 9DD80000        	  4504: .long     0x0000D89D, 0x0000D487, 0x0000D097, 0x0000CCCC
00:000106E4 87D40000
00:000106E8 97D00000
00:000106EC CCCC0000
00:000106F0 24C90000        	  4505: .long     0x0000C924, 0x0000C59D, 0x0000C234, 0x0000BEEA
00:000106F4 9DC50000
00:000106F8 34C20000
00:000106FC EABE0000
00:00010700 BBBB0000        	  4506: .long     0x0000BBBB, 0x0000B8A7, 0x0000B5AD, 0x0000B2CB
00:00010704 A7B80000
00:00010708 ADB50000
00:0001070C CBB20000
00:00010710 FFFFFFFF        	  4507: .long     0xFFFFFFFF, 0x002D0000, 0x00168000, 0x000F0000
00:00010714 00002D00
00:00010718 00801600
00:0001071C 00000F00
00:00010720 00400B00        	  4508: .long     0x000B4000, 0x00090000, 0x00078000, 0x00066DB6
00:00010724 00000900
00:00010728 00800700
00:0001072C B66D0600
00:00010730 00A00500        	  4509: .long     0x0005A000, 0x00050000, 0x00048000, 0x00041745
00:00010734 00000500
00:00010738 00800400
00:0001073C 45170400
00:00010740 00C00300        	  4510: .long     0x0003C000, 0x00037627, 0x000336DB, 0x00030000
00:00010744 27760300
00:00010748 DB360300
00:0001074C 00000300
00:00010750 00D00200        	  4511: .long     0x0002D000, 0x0002A5A5, 0x00028000, 0x00025E50
00:00010754 A5A50200
00:00010758 00800200
00:0001075C 505E0200
00:00010760 00400200        	  4512: .long     0x00024000, 0x00022492, 0x00020BA2, 0x0001F4DE
00:00010764 92240200
00:00010768 A20B0200
00:0001076C DEF40100
00:00010770 00E00100        	  4513: .long     0x0001E000, 0x0001CCCC, 0x0001BB13, 0x0001AAAA
00:00010774 CCCC0100
00:00010778 13BB0100
00:0001077C AAAA0100
00:00010780 6D9B0100        	  4514: .long     0x00019B6D, 0x00018D3D, 0x00018000, 0x0001739C
00:00010784 3D8D0100
00:00010788 00800100
00:0001078C 9C730100
00:00010790 00680100        	  4515: .long     0x00016800, 0x00015D17, 0x000152D2, 0x00014924
00:00010794 175D0100
00:00010798 D2520100
00:0001079C 24490100
00:000107A0 00400100        	  4516: .long     0x00014000, 0x00013759, 0x00012F28, 0x00012762
00:000107A4 59370100
00:000107A8 282F0100
00:000107AC 62270100
00:000107B0 00200100        	  4517: .long     0x00012000, 0x000118F9, 0x00011249, 0x00010BE8
00:000107B4 F9180100
00:000107B8 49120100
00:000107BC E80B0100
00:000107C0 D1050100        	  4518: .long     0x000105D1, 0x00010000, 0x0000FA6F, 0x0000F51B
00:000107C4 00000100
00:000107C8 6FFA0000
00:000107CC 1BF50000
00:000107D0 00F00000        	  4519: .long     0x0000F000, 0x0000EB1A, 0x0000E666, 0x0000E1E1
00:000107D4 1AEB0000
00:000107D8 66E60000
00:000107DC E1E10000
00:000107E0 89DD0000        	  4520: .long     0x0000DD89, 0x0000D95B, 0x0000D555, 0x0000D174
00:000107E4 5BD90000
00:000107E8 55D50000
00:000107EC 74D10000
00:000107F0 B6CD0000        	  4521: .long     0x0000CDB6, 0x0000CA1A, 0x0000C69E, 0x0000C341
00:000107F4 1ACA0000
00:000107F8 9EC60000
00:000107FC 41C30000
00:00010800 00C00000        	  4522: .long     0x0000C000, 0x0000BCDA, 0x0000B9CE, 0x0000B6DB
00:00010804 DABC0000
00:00010808 CEB90000
00:0001080C DBB60000
00:00010810 FFFFFFFF        	  4523: .long     0xFFFFFFFF, 0x002E0000, 0x00170000, 0x000F5555
00:00010814 00002E00
00:00010818 00001700
00:0001081C 55550F00
00:00010820 00800B00        	  4524: .long     0x000B8000, 0x00093333, 0x0007AAAA, 0x00069249
00:00010824 33330900
00:00010828 AAAA0700
00:0001082C 49920600
00:00010830 00C00500        	  4525: .long     0x0005C000, 0x00051C71, 0x00049999, 0x00042E8B
00:00010834 711C0500
00:00010838 99990400
00:0001083C 8B2E0400
00:00010840 55D50300        	  4526: .long     0x0003D555, 0x000389D8, 0x00034924, 0x00031111
00:00010844 D8890300
00:00010848 24490300
00:0001084C 11110300
00:00010850 00E00200        	  4527: .long     0x0002E000, 0x0002B4B4, 0x00028E38, 0x00026BCA
00:00010854 B4B40200
00:00010858 388E0200
00:0001085C CA6B0200
00:00010860 CC4C0200        	  4528: .long     0x00024CCC, 0x000230C3, 0x00021745, 0x00020000
00:00010864 C3300200
00:00010868 45170200
00:0001086C 00000200
00:00010870 AAEA0100        	  4529: .long     0x0001EAAA, 0x0001D70A, 0x0001C4EC, 0x0001B425
00:00010874 0AD70100
00:00010878 ECC40100
00:0001087C 25B40100
00:00010880 92A40100        	  4530: .long     0x0001A492, 0x00019611, 0x00018888, 0x00017BDE
00:00010884 11960100
00:00010888 88880100
00:0001088C DE7B0100
00:00010890 00700100        	  4531: .long     0x00017000, 0x000164D9, 0x00015A5A, 0x00015075
00:00010894 D9640100
00:00010898 5A5A0100
00:0001089C 75500100
00:000108A0 1C470100        	  4532: .long     0x0001471C, 0x00013E45, 0x000135E5, 0x00012DF2
00:000108A4 453E0100
00:000108A8 E5350100
00:000108AC F22D0100
00:000108B0 66260100        	  4533: .long     0x00012666, 0x00011F38, 0x00011861, 0x000111DC
00:000108B4 381F0100
00:000108B8 61180100
00:000108BC DC110100
00:000108C0 A20B0100        	  4534: .long     0x00010BA2, 0x000105B0, 0x00010000, 0x0000FA8D
00:000108C4 B0050100
00:000108C8 00000100
00:000108CC 8DFA0000
00:000108D0 55F50000        	  4535: .long     0x0000F555, 0x0000F053, 0x0000EB85, 0x0000E6E6
00:000108D4 53F00000
00:000108D8 85EB0000
00:000108DC E6E60000
00:000108E0 76E20000        	  4536: .long     0x0000E276, 0x0000DE30, 0x0000DA12, 0x0000D61B
00:000108E4 30DE0000
00:000108E8 12DA0000
00:000108EC 1BD60000
00:000108F0 49D20000        	  4537: .long     0x0000D249, 0x0000CE98, 0x0000CB08, 0x0000C797
00:000108F4 98CE0000
00:000108F8 08CB0000
00:000108FC 97C70000
00:00010900 44C40000        	  4538: .long     0x0000C444, 0x0000C10C, 0x0000BDEF, 0x0000BAEB
00:00010904 0CC10000
00:00010908 EFBD0000
00:0001090C EBBA0000
00:00010910 FFFFFFFF        	  4539: .long     0xFFFFFFFF, 0x002F0000, 0x00178000, 0x000FAAAA
00:00010914 00002F00
00:00010918 00801700
00:0001091C AAAA0F00
00:00010920 00C00B00        	  4540: .long     0x000BC000, 0x00096666, 0x0007D555, 0x0006B6DB
00:00010924 66660900
00:00010928 55D50700
00:0001092C DBB60600
00:00010930 00E00500        	  4541: .long     0x0005E000, 0x000538E3, 0x0004B333, 0x000445D1
00:00010934 E3380500
00:00010938 33B30400
00:0001093C D1450400
00:00010940 AAEA0300        	  4542: .long     0x0003EAAA, 0x00039D89, 0x00035B6D, 0x00032222
00:00010944 899D0300
00:00010948 6D5B0300
00:0001094C 22220300
00:00010950 00F00200        	  4543: .long     0x0002F000, 0x0002C3C3, 0x00029C71, 0x00027943
00:00010954 C3C30200
00:00010958 719C0200
00:0001095C 43790200
00:00010960 99590200        	  4544: .long     0x00025999, 0x00023CF3, 0x000222E8, 0x00020B21
00:00010964 F33C0200
00:00010968 E8220200
00:0001096C 210B0200
00:00010970 55F50100        	  4545: .long     0x0001F555, 0x0001E147, 0x0001CEC4, 0x0001BDA1
00:00010974 47E10100
00:00010978 C4CE0100
00:0001097C A1BD0100
00:00010980 B6AD0100        	  4546: .long     0x0001ADB6, 0x00019EE5, 0x00019111, 0x00018421
00:00010984 E59E0100
00:00010988 11910100
00:0001098C 21840100
00:00010990 00780100        	  4547: .long     0x00017800, 0x00016C9B, 0x000161E1, 0x000157C5
00:00010994 9B6C0100
00:00010998 E1610100
00:0001099C C5570100
00:000109A0 384E0100        	  4548: .long     0x00014E38, 0x00014530, 0x00013CA1, 0x00013483
00:000109A4 30450100
00:000109A8 A13C0100
00:000109AC 83340100
00:000109B0 CC2C0100        	  4549: .long     0x00012CCC, 0x00012576, 0x00011E79, 0x000117D0
00:000109B4 76250100
00:000109B8 791E0100
00:000109BC D0170100
00:000109C0 74110100        	  4550: .long     0x00011174, 0x00010B60, 0x00010590, 0x00010000
00:000109C4 600B0100
00:000109C8 90050100
00:000109CC 00000100
00:000109D0 AAFA0000        	  4551: .long     0x0000FAAA, 0x0000F58D, 0x0000F0A3, 0x0000EBEB
00:000109D4 8DF50000
00:000109D8 A3F00000
00:000109DC EBEB0000
00:000109E0 62E70000        	  4552: .long     0x0000E762, 0x0000E304, 0x0000DED0, 0x0000DAC3
00:000109E4 04E30000
00:000109E8 D0DE0000
00:000109EC C3DA0000
00:000109F0 DBD60000        	  4553: .long     0x0000D6DB, 0x0000D316, 0x0000CF72, 0x0000CBEE
00:000109F4 16D30000
00:000109F8 72CF0000
00:000109FC EECB0000
00:00010A00 88C80000        	  4554: .long     0x0000C888, 0x0000C53E, 0x0000C210, 0x0000BEFB
00:00010A04 3EC50000
00:00010A08 10C20000
00:00010A0C FBBE0000
00:00010A10 FFFFFFFF        	  4555: .long     0xFFFFFFFF, 0x00300000, 0x00180000, 0x00100000
00:00010A14 00003000
00:00010A18 00001800
00:00010A1C 00001000
00:00010A20 00000C00        	  4556: .long     0x000C0000, 0x00099999, 0x00080000, 0x0006DB6D
00:00010A24 99990900
00:00010A28 00000800
00:00010A2C 6DDB0600
00:00010A30 00000600        	  4557: .long     0x00060000, 0x00055555, 0x0004CCCC, 0x00045D17
00:00010A34 55550500
00:00010A38 CCCC0400
00:00010A3C 175D0400
00:00010A40 00000400        	  4558: .long     0x00040000, 0x0003B13B, 0x00036DB6, 0x00033333
00:00010A44 3BB10300
00:00010A48 B66D0300
00:00010A4C 33330300
00:00010A50 00000300        	  4559: .long     0x00030000, 0x0002D2D2, 0x0002AAAA, 0x000286BC
00:00010A54 D2D20200
00:00010A58 AAAA0200
00:00010A5C BC860200
00:00010A60 66660200        	  4560: .long     0x00026666, 0x00024924, 0x00022E8B, 0x00021642
00:00010A64 24490200
00:00010A68 8B2E0200
00:00010A6C 42160200
00:00010A70 00000200        	  4561: .long     0x00020000, 0x0001EB85, 0x0001D89D, 0x0001C71C
00:00010A74 85EB0100
00:00010A78 9DD80100
00:00010A7C 1CC70100
00:00010A80 DBB60100        	  4562: .long     0x0001B6DB, 0x0001A7B9, 0x00019999, 0x00018C63
00:00010A84 B9A70100
00:00010A88 99990100
00:00010A8C 638C0100
00:00010A90 00800100        	  4563: .long     0x00018000, 0x0001745D, 0x00016969, 0x00015F15
00:00010A94 5D740100
00:00010A98 69690100
00:00010A9C 155F0100
00:00010AA0 55550100        	  4564: .long     0x00015555, 0x00014C1B, 0x0001435E, 0x00013B13
00:00010AA4 1B4C0100
00:00010AA8 5E430100
00:00010AAC 133B0100
00:00010AB0 33330100        	  4565: .long     0x00013333, 0x00012BB5, 0x00012492, 0x00011DC4
00:00010AB4 B52B0100
00:00010AB8 92240100
00:00010ABC C41D0100
00:00010AC0 45170100        	  4566: .long     0x00011745, 0x00011111, 0x00010B21, 0x00010572
00:00010AC4 11110100
00:00010AC8 210B0100
00:00010ACC 72050100
00:00010AD0 00000100        	  4567: .long     0x00010000, 0x0000FAC6, 0x0000F5C2, 0x0000F0F0
00:00010AD4 C6FA0000
00:00010AD8 C2F50000
00:00010ADC F0F00000
00:00010AE0 4EEC0000        	  4568: .long     0x0000EC4E, 0x0000E7D9, 0x0000E38E, 0x0000DF6B
00:00010AE4 D9E70000
00:00010AE8 8EE30000
00:00010AEC 6BDF0000
00:00010AF0 6DDB0000        	  4569: .long     0x0000DB6D, 0x0000D794, 0x0000D3DC, 0x0000D045
00:00010AF4 94D70000
00:00010AF8 DCD30000
00:00010AFC 45D00000
00:00010B00 CCCC0000        	  4570: .long     0x0000CCCC, 0x0000C971, 0x0000C631, 0x0000C30C
00:00010B04 71C90000
00:00010B08 31C60000
00:00010B0C 0CC30000
00:00010B10 FFFFFFFF        	  4571: .long     0xFFFFFFFF, 0x00310000, 0x00188000, 0x00105555
00:00010B14 00003100
00:00010B18 00801800
00:00010B1C 55551000
00:00010B20 00400C00        	  4572: .long     0x000C4000, 0x0009CCCC, 0x00082AAA, 0x00070000
00:00010B24 CCCC0900
00:00010B28 AA2A0800
00:00010B2C 00000700
00:00010B30 00200600        	  4573: .long     0x00062000, 0x000571C7, 0x0004E666, 0x0004745D
00:00010B34 C7710500
00:00010B38 66E60400
00:00010B3C 5D740400
00:00010B40 55150400        	  4574: .long     0x00041555, 0x0003C4EC, 0x00038000, 0x00034444
00:00010B44 ECC40300
00:00010B48 00800300
00:00010B4C 44440300
00:00010B50 00100300        	  4575: .long     0x00031000, 0x0002E1E1, 0x0002B8E3, 0x00029435
00:00010B54 E1E10200
00:00010B58 E3B80200
00:00010B5C 35940200
00:00010B60 33730200        	  4576: .long     0x00027333, 0x00025555, 0x00023A2E, 0x00022164
00:00010B64 55550200
00:00010B68 2E3A0200
00:00010B6C 64210200
00:00010B70 AA0A0200        	  4577: .long     0x00020AAA, 0x0001F5C2, 0x0001E276, 0x0001D097
00:00010B74 C2F50100
00:00010B78 76E20100
00:00010B7C 97D00100
00:00010B80 00C00100        	  4578: .long     0x0001C000, 0x0001B08D, 0x0001A222, 0x000194A5
00:00010B84 8DB00100
00:00010B88 22A20100
00:00010B8C A5940100
00:00010B90 00880100        	  4579: .long     0x00018800, 0x00017C1F, 0x000170F0, 0x00016666
00:00010B94 1F7C0100
00:00010B98 F0700100
00:00010B9C 66660100
00:00010BA0 715C0100        	  4580: .long     0x00015C71, 0x00015306, 0x00014A1A, 0x000141A4
00:00010BA4 06530100
00:00010BA8 1A4A0100
00:00010BAC A4410100
00:00010BB0 99390100        	  4581: .long     0x00013999, 0x000131F3, 0x00012AAA, 0x000123B8
00:00010BB4 F3310100
00:00010BB8 AA2A0100
00:00010BBC B8230100
00:00010BC0 171D0100        	  4582: .long     0x00011D17, 0x000116C1, 0x000110B2, 0x00010AE4
00:00010BC4 C1160100
00:00010BC8 B2100100
00:00010BCC E40A0100
00:00010BD0 55050100        	  4583: .long     0x00010555, 0x00010000, 0x0000FAE1, 0x0000F5F5
00:00010BD4 00000100
00:00010BD8 E1FA0000
00:00010BDC F5F50000
00:00010BE0 3BF10000        	  4584: .long     0x0000F13B, 0x0000ECAD, 0x0000E84B, 0x0000E412
00:00010BE4 ADEC0000
00:00010BE8 4BE80000
00:00010BEC 12E40000
00:00010BF0 00E00000        	  4585: .long     0x0000E000, 0x0000DC11, 0x0000D846, 0x0000D49C
00:00010BF4 11DC0000
00:00010BF8 46D80000
00:00010BFC 9CD40000
00:00010C00 11D10000        	  4586: .long     0x0000D111, 0x0000CDA3, 0x0000CA52, 0x0000C71C
00:00010C04 A3CD0000
00:00010C08 52CA0000
00:00010C0C 1CC70000
00:00010C10 FFFFFFFF        	  4587: .long     0xFFFFFFFF, 0x00320000, 0x00190000, 0x0010AAAA
00:00010C14 00003200
00:00010C18 00001900
00:00010C1C AAAA1000
00:00010C20 00800C00        	  4588: .long     0x000C8000, 0x000A0000, 0x00085555, 0x00072492
00:00010C24 00000A00
00:00010C28 55550800
00:00010C2C 92240700
00:00010C30 00400600        	  4589: .long     0x00064000, 0x00058E38, 0x00050000, 0x00048BA2
00:00010C34 388E0500
00:00010C38 00000500
00:00010C3C A28B0400
00:00010C40 AA2A0400        	  4590: .long     0x00042AAA, 0x0003D89D, 0x00039249, 0x00035555
00:00010C44 9DD80300
00:00010C48 49920300
00:00010C4C 55550300
00:00010C50 00200300        	  4591: .long     0x00032000, 0x0002F0F0, 0x0002C71C, 0x0002A1AF
00:00010C54 F0F00200
00:00010C58 1CC70200
00:00010C5C AFA10200
00:00010C60 00800200        	  4592: .long     0x00028000, 0x00026186, 0x000245D1, 0x00022C85
00:00010C64 86610200
00:00010C68 D1450200
00:00010C6C 852C0200
00:00010C70 55150200        	  4593: .long     0x00021555, 0x00020000, 0x0001EC4E, 0x0001DA12
00:00010C74 00000200
00:00010C78 4EEC0100
00:00010C7C 12DA0100
00:00010C80 24C90100        	  4594: .long     0x0001C924, 0x0001B961, 0x0001AAAA, 0x00019CE7
00:00010C84 61B90100
00:00010C88 AAAA0100
00:00010C8C E79C0100
00:00010C90 00900100        	  4595: .long     0x00019000, 0x000183E0, 0x00017878, 0x00016DB6
00:00010C94 E0830100
00:00010C98 78780100
00:00010C9C B66D0100
00:00010CA0 8E630100        	  4596: .long     0x0001638E, 0x000159F2, 0x000150D7, 0x00014834
00:00010CA4 F2590100
00:00010CA8 D7500100
00:00010CAC 34480100
00:00010CB0 00400100        	  4597: .long     0x00014000, 0x00013831, 0x000130C3, 0x000129AC
00:00010CB4 31380100
00:00010CB8 C3300100
00:00010CBC AC290100
00:00010CC0 E8220100        	  4598: .long     0x000122E8, 0x00011C71, 0x00011642, 0x00011057
00:00010CC4 711C0100
00:00010CC8 42160100
00:00010CCC 57100100
00:00010CD0 AA0A0100        	  4599: .long     0x00010AAA, 0x00010539, 0x00010000, 0x0000FAFA
00:00010CD4 39050100
00:00010CD8 00000100
00:00010CDC FAFA0000
00:00010CE0 27F60000        	  4600: .long     0x0000F627, 0x0000F182, 0x0000ED09, 0x0000E8BA
00:00010CE4 82F10000
00:00010CE8 09ED0000
00:00010CEC BAE80000
00:00010CF0 92E40000        	  4601: .long     0x0000E492, 0x0000E08F, 0x0000DCB0, 0x0000D8F2
00:00010CF4 8FE00000
00:00010CF8 B0DC0000
00:00010CFC F2D80000
00:00010D00 55D50000        	  4602: .long     0x0000D555, 0x0000D1D6, 0x0000CE73, 0x0000CB2C
00:00010D04 D6D10000
00:00010D08 73CE0000
00:00010D0C 2CCB0000
00:00010D10 FFFFFFFF        	  4603: .long     0xFFFFFFFF, 0x00330000, 0x00198000, 0x00110000
00:00010D14 00003300
00:00010D18 00801900
00:00010D1C 00001100
00:00010D20 00C00C00        	  4604: .long     0x000CC000, 0x000A3333, 0x00088000, 0x00074924
00:00010D24 33330A00
00:00010D28 00800800
00:00010D2C 24490700
00:00010D30 00600600        	  4605: .long     0x00066000, 0x0005AAAA, 0x00051999, 0x0004A2E8
00:00010D34 AAAA0500
00:00010D38 99190500
00:00010D3C E8A20400
00:00010D40 00400400        	  4606: .long     0x00044000, 0x0003EC4E, 0x0003A492, 0x00036666
00:00010D44 4EEC0300
00:00010D48 92A40300
00:00010D4C 66660300
00:00010D50 00300300        	  4607: .long     0x00033000, 0x00030000, 0x0002D555, 0x0002AF28
00:00010D54 00000300
00:00010D58 55D50200
00:00010D5C 28AF0200
00:00010D60 CC8C0200        	  4608: .long     0x00028CCC, 0x00026DB6, 0x00025174, 0x000237A6
00:00010D64 B66D0200
00:00010D68 74510200
00:00010D6C A6370200
00:00010D70 00200200        	  4609: .long     0x00022000, 0x00020A3D, 0x0001F627, 0x0001E38E
00:00010D74 3D0A0200
00:00010D78 27F60100
00:00010D7C 8EE30100
00:00010D80 49D20100        	  4610: .long     0x0001D249, 0x0001C234, 0x0001B333, 0x0001A529
00:00010D84 34C20100
00:00010D88 33B30100
00:00010D8C 29A50100
00:00010D90 00980100        	  4611: .long     0x00019800, 0x00018BA2, 0x00018000, 0x00017507
00:00010D94 A28B0100
00:00010D98 00800100
00:00010D9C 07750100
00:00010DA0 AA6A0100        	  4612: .long     0x00016AAA, 0x000160DD, 0x00015794, 0x00014EC4
00:00010DA4 DD600100
00:00010DA8 94570100
00:00010DAC C44E0100
00:00010DB0 66460100        	  4613: .long     0x00014666, 0x00013E70, 0x000136DB, 0x00012FA0
00:00010DB4 703E0100
00:00010DB8 DB360100
00:00010DBC A02F0100
00:00010DC0 BA280100        	  4614: .long     0x000128BA, 0x00012222, 0x00011BD3, 0x000115C9
00:00010DC4 22220100
00:00010DC8 D31B0100
00:00010DCC C9150100
00:00010DD0 00100100        	  4615: .long     0x00011000, 0x00010A72, 0x0001051E, 0x00010000
00:00010DD4 720A0100
00:00010DD8 1E050100
00:00010DDC 00000100
00:00010DE0 13FB0000        	  4616: .long     0x0000FB13, 0x0000F656, 0x0000F1C7, 0x0000ED61
00:00010DE4 56F60000
00:00010DE8 C7F10000
00:00010DEC 61ED0000
00:00010DF0 24E90000        	  4617: .long     0x0000E924, 0x0000E50D, 0x0000E11A, 0x0000DD49
00:00010DF4 0DE50000
00:00010DF8 1AE10000
00:00010DFC 49DD0000
00:00010E00 99D90000        	  4618: .long     0x0000D999, 0x0000D608, 0x0000D294, 0x0000CF3C
00:00010E04 08D60000
00:00010E08 94D20000
00:00010E0C 3CCF0000
00:00010E10 FFFFFFFF        	  4619: .long     0xFFFFFFFF, 0x00340000, 0x001A0000, 0x00115555
00:00010E14 00003400
00:00010E18 00001A00
00:00010E1C 55551100
00:00010E20 00000D00        	  4620: .long     0x000D0000, 0x000A6666, 0x0008AAAA, 0x00076DB6
00:00010E24 66660A00
00:00010E28 AAAA0800
00:00010E2C B66D0700
00:00010E30 00800600        	  4621: .long     0x00068000, 0x0005C71C, 0x00053333, 0x0004BA2E
00:00010E34 1CC70500
00:00010E38 33330500
00:00010E3C 2EBA0400
00:00010E40 55550400        	  4622: .long     0x00045555, 0x00040000, 0x0003B6DB, 0x00037777
00:00010E44 00000400
00:00010E48 DBB60300
00:00010E4C 77770300
00:00010E50 00400300        	  4623: .long     0x00034000, 0x00030F0F, 0x0002E38E, 0x0002BCA1
00:00010E54 0F0F0300
00:00010E58 8EE30200
00:00010E5C A1BC0200
00:00010E60 99990200        	  4624: .long     0x00029999, 0x000279E7, 0x00025D17, 0x000242C8
00:00010E64 E7790200
00:00010E68 175D0200
00:00010E6C C8420200
00:00010E70 AA2A0200        	  4625: .long     0x00022AAA, 0x0002147A, 0x00020000, 0x0001ED09
00:00010E74 7A140200
00:00010E78 00000200
00:00010E7C 09ED0100
00:00010E80 6DDB0100        	  4626: .long     0x0001DB6D, 0x0001CB08, 0x0001BBBB, 0x0001AD6B
00:00010E84 08CB0100
00:00010E88 BBBB0100
00:00010E8C 6BAD0100
00:00010E90 00A00100        	  4627: .long     0x0001A000, 0x00019364, 0x00018787, 0x00017C57
00:00010E94 64930100
00:00010E98 87870100
00:00010E9C 577C0100
00:00010EA0 C7710100        	  4628: .long     0x000171C7, 0x000167C8, 0x00015E50, 0x00015555
00:00010EA4 C8670100
00:00010EA8 505E0100
00:00010EAC 55550100
00:00010EB0 CC4C0100        	  4629: .long     0x00014CCC, 0x000144AE, 0x00013CF3, 0x00013594
00:00010EB4 AE440100
00:00010EB8 F33C0100
00:00010EBC 94350100
00:00010EC0 8B2E0100        	  4630: .long     0x00012E8B, 0x000127D2, 0x00012164, 0x00011B3B
00:00010EC4 D2270100
00:00010EC8 64210100
00:00010ECC 3B1B0100
00:00010ED0 55150100        	  4631: .long     0x00011555, 0x00010FAC, 0x00010A3D, 0x00010505
00:00010ED4 AC0F0100
00:00010ED8 3D0A0100
00:00010EDC 05050100
00:00010EE0 00000100        	  4632: .long     0x00010000, 0x0000FB2B, 0x0000F684, 0x0000F209
00:00010EE4 2BFB0000
00:00010EE8 84F60000
00:00010EEC 09F20000
00:00010EF0 B6ED0000        	  4633: .long     0x0000EDB6, 0x0000E98B, 0x0000E584, 0x0000E1A0
00:00010EF4 8BE90000
00:00010EF8 84E50000
00:00010EFC A0E10000
00:00010F00 DDDD0000        	  4634: .long     0x0000DDDD, 0x0000DA3A, 0x0000D6B5, 0x0000D34D
00:00010F04 3ADA0000
00:00010F08 B5D60000
00:00010F0C 4DD30000
00:00010F10 FFFFFFFF        	  4635: .long     0xFFFFFFFF, 0x00350000, 0x001A8000, 0x0011AAAA
00:00010F14 00003500
00:00010F18 00801A00
00:00010F1C AAAA1100
00:00010F20 00400D00        	  4636: .long     0x000D4000, 0x000A9999, 0x0008D555, 0x00079249
00:00010F24 99990A00
00:00010F28 55D50800
00:00010F2C 49920700
00:00010F30 00A00600        	  4637: .long     0x0006A000, 0x0005E38E, 0x00054CCC, 0x0004D174
00:00010F34 8EE30500
00:00010F38 CC4C0500
00:00010F3C 74D10400
00:00010F40 AA6A0400        	  4638: .long     0x00046AAA, 0x000413B1, 0x0003C924, 0x00038888
00:00010F44 B1130400
00:00010F48 24C90300
00:00010F4C 88880300
00:00010F50 00500300        	  4639: .long     0x00035000, 0x00031E1E, 0x0002F1C7, 0x0002CA1A
00:00010F54 1E1E0300
00:00010F58 C7F10200
00:00010F5C 1ACA0200
00:00010F60 66A60200        	  4640: .long     0x0002A666, 0x00028618, 0x000268BA, 0x00024DE9
00:00010F64 18860200
00:00010F68 BA680200
00:00010F6C E94D0200
00:00010F70 55350200        	  4641: .long     0x00023555, 0x00021EB8, 0x000209D8, 0x0001F684
00:00010F74 B81E0200
00:00010F78 D8090200
00:00010F7C 84F60100
00:00010F80 92E40100        	  4642: .long     0x0001E492, 0x0001D3DC, 0x0001C444, 0x0001B5AD
00:00010F84 DCD30100
00:00010F88 44C40100
00:00010F8C ADB50100
00:00010F90 00A80100        	  4643: .long     0x0001A800, 0x00019B26, 0x00018F0F, 0x000183A8
00:00010F94 269B0100
00:00010F98 0F8F0100
00:00010F9C A8830100
00:00010FA0 E3780100        	  4644: .long     0x000178E3, 0x00016EB3, 0x0001650D, 0x00015BE5
00:00010FA4 B36E0100
00:00010FA8 0D650100
00:00010FAC E55B0100
00:00010FB0 33530100        	  4645: .long     0x00015333, 0x00014AED, 0x0001430C, 0x00013B88
00:00010FB4 ED4A0100
00:00010FB8 0C430100
00:00010FBC 883B0100
00:00010FC0 5D340100        	  4646: .long     0x0001345D, 0x00012D82, 0x000126F4, 0x000120AE
00:00010FC4 822D0100
00:00010FC8 F4260100
00:00010FCC AE200100
00:00010FD0 AA1A0100        	  4647: .long     0x00011AAA, 0x000114E5, 0x00010F5C, 0x00010A0A
00:00010FD4 E5140100
00:00010FD8 5C0F0100
00:00010FDC 0A0A0100
00:00010FE0 EC040100        	  4648: .long     0x000104EC, 0x00010000, 0x0000FB42, 0x0000F6B0
00:00010FE4 00000100
00:00010FE8 42FB0000
00:00010FEC B0F60000
00:00010FF0 49F20000        	  4649: .long     0x0000F249, 0x0000EE08, 0x0000E9EE, 0x0000E5F7
00:00010FF4 08EE0000
00:00010FF8 EEE90000
00:00010FFC F7E50000
00:00011000 22E20000        	  4650: .long     0x0000E222, 0x0000DE6D, 0x0000DAD6, 0x0000D75D
00:00011004 6DDE0000
00:00011008 D6DA0000
00:0001100C 5DD70000
00:00011010 FFFFFFFF        	  4651: .long     0xFFFFFFFF, 0x00360000, 0x001B0000, 0x00120000
00:00011014 00003600
00:00011018 00001B00
00:0001101C 00001200
00:00011020 00800D00        	  4652: .long     0x000D8000, 0x000ACCCC, 0x00090000, 0x0007B6DB
00:00011024 CCCC0A00
00:00011028 00000900
00:0001102C DBB60700
00:00011030 00C00600        	  4653: .long     0x0006C000, 0x00060000, 0x00056666, 0x0004E8BA
00:00011034 00000600
00:00011038 66660500
00:0001103C BAE80400
00:00011040 00800400        	  4654: .long     0x00048000, 0x00042762, 0x0003DB6D, 0x00039999
00:00011044 62270400
00:00011048 6DDB0300
00:0001104C 99990300
00:00011050 00600300        	  4655: .long     0x00036000, 0x00032D2D, 0x00030000, 0x0002D794
00:00011054 2D2D0300
00:00011058 00000300
00:0001105C 94D70200
00:00011060 33B30200        	  4656: .long     0x0002B333, 0x00029249, 0x0002745D, 0x0002590B
00:00011064 49920200
00:00011068 5D740200
00:0001106C 0B590200
00:00011070 00400200        	  4657: .long     0x00024000, 0x000228F5, 0x000213B1, 0x00020000
00:00011074 F5280200
00:00011078 B1130200
00:0001107C 00000200
00:00011080 B6ED0100        	  4658: .long     0x0001EDB6, 0x0001DCB0, 0x0001CCCC, 0x0001BDEF
00:00011084 B0DC0100
00:00011088 CCCC0100
00:0001108C EFBD0100
00:00011090 00B00100        	  4659: .long     0x0001B000, 0x0001A2E8, 0x00019696, 0x00018AF8
00:00011094 E8A20100
00:00011098 96960100
00:0001109C F88A0100
00:000110A0 00800100        	  4660: .long     0x00018000, 0x0001759F, 0x00016BCA, 0x00016276
00:000110A4 9F750100
00:000110A8 CA6B0100
00:000110AC 76620100
00:000110B0 99590100        	  4661: .long     0x00015999, 0x0001512B, 0x00014924, 0x0001417D
00:000110B4 2B510100
00:000110B8 24490100
00:000110BC 7D410100
00:000110C0 2E3A0100        	  4662: .long     0x00013A2E, 0x00013333, 0x00012C85, 0x00012620
00:000110C4 33330100
00:000110C8 852C0100
00:000110CC 20260100
00:000110D0 00200100        	  4663: .long     0x00012000, 0x00011A1F, 0x0001147A, 0x00010F0F
00:000110D4 1F1A0100
00:000110D8 7A140100
00:000110DC 0F0F0100
00:000110E0 D8090100        	  4664: .long     0x000109D8, 0x000104D4, 0x00010000, 0x0000FB58
00:000110E4 D4040100
00:000110E8 00000100
00:000110EC 58FB0000
00:000110F0 DBF60000        	  4665: .long     0x0000F6DB, 0x0000F286, 0x0000EE58, 0x0000EA4E
00:000110F4 86F20000
00:000110F8 58EE0000
00:000110FC 4EEA0000
00:00011100 66E60000        	  4666: .long     0x0000E666, 0x0000E29F, 0x0000DEF7, 0x0000DB6D
00:00011104 9FE20000
00:00011108 F7DE0000
00:0001110C 6DDB0000
00:00011110 FFFFFFFF        	  4667: .long     0xFFFFFFFF, 0x00370000, 0x001B8000, 0x00125555
00:00011114 00003700
00:00011118 00801B00
00:0001111C 55551200
00:00011120 00C00D00        	  4668: .long     0x000DC000, 0x000B0000, 0x00092AAA, 0x0007DB6D
00:00011124 00000B00
00:00011128 AA2A0900
00:0001112C 6DDB0700
00:00011130 00E00600        	  4669: .long     0x0006E000, 0x00061C71, 0x00058000, 0x00050000
00:00011134 711C0600
00:00011138 00800500
00:0001113C 00000500
00:00011140 55950400        	  4670: .long     0x00049555, 0x00043B13, 0x0003EDB6, 0x0003AAAA
00:00011144 133B0400
00:00011148 B6ED0300
00:0001114C AAAA0300
00:00011150 00700300        	  4671: .long     0x00037000, 0x00033C3C, 0x00030E38, 0x0002E50D
00:00011154 3C3C0300
00:00011158 380E0300
00:0001115C 0DE50200
00:00011160 00C00200        	  4672: .long     0x0002C000, 0x00029E79, 0x00028000, 0x0002642C
00:00011164 799E0200
00:00011168 00800200
00:0001116C 2C640200
00:00011170 AA4A0200        	  4673: .long     0x00024AAA, 0x00023333, 0x00021D89, 0x0002097B
00:00011174 33330200
00:00011178 891D0200
00:0001117C 7B090200
00:00011180 DBF60100        	  4674: .long     0x0001F6DB, 0x0001E584, 0x0001D555, 0x0001C631
00:00011184 84E50100
00:00011188 55D50100
00:0001118C 31C60100
00:00011190 00B80100        	  4675: .long     0x0001B800, 0x0001AAAA, 0x00019E1E, 0x00019249
00:00011194 AAAA0100
00:00011198 1E9E0100
00:0001119C 49920100
00:000111A0 1C870100        	  4676: .long     0x0001871C, 0x00017C8A, 0x00017286, 0x00016906
00:000111A4 8A7C0100
00:000111A8 86720100
00:000111AC 06690100
00:000111B0 00600100        	  4677: .long     0x00016000, 0x0001576A, 0x00014F3C, 0x00014771
00:000111B4 6A570100
00:000111B8 3C4F0100
00:000111BC 71470100
00:000111C0 00400100        	  4678: .long     0x00014000, 0x000138E3, 0x00013216, 0x00012B93
00:000111C4 E3380100
00:000111C8 16320100
00:000111CC 932B0100
00:000111D0 55250100        	  4679: .long     0x00012555, 0x00011F58, 0x00011999, 0x00011414
00:000111D4 581F0100
00:000111D8 99190100
00:000111DC 14140100
00:000111E0 C40E0100        	  4680: .long     0x00010EC4, 0x000109A9, 0x000104BD, 0x00010000
00:000111E4 A9090100
00:000111E8 BD040100
00:000111EC 00000100
00:000111F0 6DFB0000        	  4681: .long     0x0000FB6D, 0x0000F704, 0x0000F2C2, 0x0000EEA4
00:000111F4 04F70000
00:000111F8 C2F20000
00:000111FC A4EE0000
00:00011200 AAEA0000        	  4682: .long     0x0000EAAA, 0x0000E6D1, 0x0000E318, 0x0000DF7D
00:00011204 D1E60000
00:00011208 18E30000
00:0001120C 7DDF0000
00:00011210 FFFFFFFF        	  4683: .long     0xFFFFFFFF, 0x00380000, 0x001C0000, 0x0012AAAA
00:00011214 00003800
00:00011218 00001C00
00:0001121C AAAA1200
00:00011220 00000E00        	  4684: .long     0x000E0000, 0x000B3333, 0x00095555, 0x00080000
00:00011224 33330B00
00:00011228 55550900
00:0001122C 00000800
00:00011230 00000700        	  4685: .long     0x00070000, 0x000638E3, 0x00059999, 0x00051745
00:00011234 E3380600
00:00011238 99990500
00:0001123C 45170500
00:00011240 AAAA0400        	  4686: .long     0x0004AAAA, 0x00044EC4, 0x00040000, 0x0003BBBB
00:00011244 C44E0400
00:00011248 00000400
00:0001124C BBBB0300
00:00011250 00800300        	  4687: .long     0x00038000, 0x00034B4B, 0x00031C71, 0x0002F286
00:00011254 4B4B0300
00:00011258 711C0300
00:0001125C 86F20200
00:00011260 CCCC0200        	  4688: .long     0x0002CCCC, 0x0002AAAA, 0x00028BA2, 0x00026F4D
00:00011264 AAAA0200
00:00011268 A28B0200
00:0001126C 4D6F0200
00:00011270 55550200        	  4689: .long     0x00025555, 0x00023D70, 0x00022762, 0x000212F6
00:00011274 703D0200
00:00011278 62270200
00:0001127C F6120200
00:00011280 00000200        	  4690: .long     0x00020000, 0x0001EE58, 0x0001DDDD, 0x0001CE73
00:00011284 58EE0100
00:00011288 DDDD0100
00:0001128C 73CE0100
00:00011290 00C00100        	  4691: .long     0x0001C000, 0x0001B26C, 0x0001A5A5, 0x00019999
00:00011294 6CB20100
00:00011298 A5A50100
00:0001129C 99990100
00:000112A0 388E0100        	  4692: .long     0x00018E38, 0x00018375, 0x00017943, 0x00016F96
00:000112A4 75830100
00:000112A8 43790100
00:000112AC 966F0100
00:000112B0 66660100        	  4693: .long     0x00016666, 0x00015DA8, 0x00015555, 0x00014D65
00:000112B4 A85D0100
00:000112B8 55550100
00:000112BC 654D0100
00:000112C0 D1450100        	  4694: .long     0x000145D1, 0x00013E93, 0x000137A6, 0x00013105
00:000112C4 933E0100
00:000112C8 A6370100
00:000112CC 05310100
00:000112D0 AA2A0100        	  4695: .long     0x00012AAA, 0x00012492, 0x00011EB8, 0x00011919
00:000112D4 92240100
00:000112D8 B81E0100
00:000112DC 19190100
00:000112E0 B1130100        	  4696: .long     0x000113B1, 0x00010E7D, 0x0001097B, 0x000104A7
00:000112E4 7D0E0100
00:000112E8 7B090100
00:000112EC A7040100
00:000112F0 00000100        	  4697: .long     0x00010000, 0x0000FB82, 0x0000F72C, 0x0000F2FB
00:000112F4 82FB0000
00:000112F8 2CF70000
00:000112FC FBF20000
00:00011300 EEEE0000        	  4698: .long     0x0000EEEE, 0x0000EB04, 0x0000E739, 0x0000E38E
00:00011304 04EB0000
00:00011308 39E70000
00:0001130C 8EE30000
00:00011310 FFFFFFFF        	  4699: .long     0xFFFFFFFF, 0x00390000, 0x001C8000, 0x00130000
00:00011314 00003900
00:00011318 00801C00
00:0001131C 00001300
00:00011320 00400E00        	  4700: .long     0x000E4000, 0x000B6666, 0x00098000, 0x00082492
00:00011324 66660B00
00:00011328 00800900
00:0001132C 92240800
00:00011330 00200700        	  4701: .long     0x00072000, 0x00065555, 0x0005B333, 0x00052E8B
00:00011334 55550600
00:00011338 33B30500
00:0001133C 8B2E0500
00:00011340 00C00400        	  4702: .long     0x0004C000, 0x00046276, 0x00041249, 0x0003CCCC
00:00011344 76620400
00:00011348 49120400
00:0001134C CCCC0300
00:00011350 00900300        	  4703: .long     0x00039000, 0x00035A5A, 0x00032AAA, 0x00030000
00:00011354 5A5A0300
00:00011358 AA2A0300
00:0001135C 00000300
00:00011360 99D90200        	  4704: .long     0x0002D999, 0x0002B6DB, 0x00029745, 0x00027A6F
00:00011364 DBB60200
00:00011368 45970200
00:0001136C 6F7A0200
00:00011370 00600200        	  4705: .long     0x00026000, 0x000247AE, 0x0002313B, 0x00021C71
00:00011374 AE470200
00:00011378 3B310200
00:0001137C 711C0200
00:00011380 24090200        	  4706: .long     0x00020924, 0x0001F72C, 0x0001E666, 0x0001D6B5
00:00011384 2CF70100
00:00011388 66E60100
00:0001138C B5D60100
00:00011390 00C80100        	  4707: .long     0x0001C800, 0x0001BA2E, 0x0001AD2D, 0x0001A0EA
00:00011394 2EBA0100
00:00011398 2DAD0100
00:0001139C EAA00100
00:000113A0 55950100        	  4708: .long     0x00019555, 0x00018A60, 0x00018000, 0x00017627
00:000113A4 608A0100
00:000113A8 00800100
00:000113AC 27760100
00:000113B0 CC6C0100        	  4709: .long     0x00016CCC, 0x000163E7, 0x00015B6D, 0x00015359
00:000113B4 E7630100
00:000113B8 6D5B0100
00:000113BC 59530100
00:000113C0 A24B0100        	  4710: .long     0x00014BA2, 0x00014444, 0x00013D37, 0x00013677
00:000113C4 44440100
00:000113C8 373D0100
00:000113CC 77360100
00:000113D0 00300100        	  4711: .long     0x00013000, 0x000129CB, 0x000123D7, 0x00011E1E
00:000113D4 CB290100
00:000113D8 D7230100
00:000113DC 1E1E0100
00:000113E0 9D180100        	  4712: .long     0x0001189D, 0x00011352, 0x00010E38, 0x0001094F
00:000113E4 52130100
00:000113E8 380E0100
00:000113EC 4F090100
00:000113F0 92040100        	  4713: .long     0x00010492, 0x00010000, 0x0000FB96, 0x0000F752
00:000113F4 00000100
00:000113F8 96FB0000
00:000113FC 52F70000
00:00011400 33F30000        	  4714: .long     0x0000F333, 0x0000EF36, 0x0000EB5A, 0x0000E79E
00:00011404 36EF0000
00:00011408 5AEB0000
00:0001140C 9EE70000
00:00011410 FFFFFFFF        	  4715: .long     0xFFFFFFFF, 0x003A0000, 0x001D0000, 0x00135555
00:00011414 00003A00
00:00011418 00001D00
00:0001141C 55551300
00:00011420 00800E00        	  4716: .long     0x000E8000, 0x000B9999, 0x0009AAAA, 0x00084924
00:00011424 99990B00
00:00011428 AAAA0900
00:0001142C 24490800
00:00011430 00400700        	  4717: .long     0x00074000, 0x000671C7, 0x0005CCCC, 0x000545D1
00:00011434 C7710600
00:00011438 CCCC0500
00:0001143C D1450500
00:00011440 55D50400        	  4718: .long     0x0004D555, 0x00047627, 0x00042492, 0x0003DDDD
00:00011444 27760400
00:00011448 92240400
00:0001144C DDDD0300
00:00011450 00A00300        	  4719: .long     0x0003A000, 0x00036969, 0x000338E3, 0x00030D79
00:00011454 69690300
00:00011458 E3380300
00:0001145C 790D0300
00:00011460 66E60200        	  4720: .long     0x0002E666, 0x0002C30C, 0x0002A2E8, 0x00028590
00:00011464 0CC30200
00:00011468 E8A20200
00:0001146C 90850200
00:00011470 AA6A0200        	  4721: .long     0x00026AAA, 0x000251EB, 0x00023B13, 0x000225ED
00:00011474 EB510200
00:00011478 133B0200
00:0001147C ED250200
00:00011480 49120200        	  4722: .long     0x00021249, 0x00020000, 0x0001EEEE, 0x0001DEF7
00:00011484 00000200
00:00011488 EEEE0100
00:0001148C F7DE0100
00:00011490 00D00100        	  4723: .long     0x0001D000, 0x0001C1F0, 0x0001B4B4, 0x0001A83A
00:00011494 F0C10100
00:00011498 B4B40100
00:0001149C 3AA80100
00:000114A0 719C0100        	  4724: .long     0x00019C71, 0x0001914C, 0x000186BC, 0x00017CB7
00:000114A4 4C910100
00:000114A8 BC860100
00:000114AC B77C0100
00:000114B0 33730100        	  4725: .long     0x00017333, 0x00016A25, 0x00016186, 0x0001594D
00:000114B4 256A0100
00:000114B8 86610100
00:000114BC 4D590100
00:000114C0 74510100        	  4726: .long     0x00015174, 0x000149F4, 0x000142C8, 0x00013BEA
00:000114C4 F4490100
00:000114C8 C8420100
00:000114CC EA3B0100
00:000114D0 55350100        	  4727: .long     0x00013555, 0x00012F05, 0x000128F5, 0x00012323
00:000114D4 052F0100
00:000114D8 F5280100
00:000114DC 23230100
00:000114E0 891D0100        	  4728: .long     0x00011D89, 0x00011826, 0x000112F6, 0x00010DF6
00:000114E4 26180100
00:000114E8 F6120100
00:000114EC F60D0100
00:000114F0 24090100        	  4729: .long     0x00010924, 0x0001047D, 0x00010000, 0x0000FBA9
00:000114F4 7D040100
00:000114F8 00000100
00:000114FC A9FB0000
00:00011500 77F70000        	  4730: .long     0x0000F777, 0x0000F368, 0x0000EF7B, 0x0000EBAE
00:00011504 68F30000
00:00011508 7BEF0000
00:0001150C AEEB0000
00:00011510 FFFFFFFF        	  4731: .long     0xFFFFFFFF, 0x003B0000, 0x001D8000, 0x0013AAAA
00:00011514 00003B00
00:00011518 00801D00
00:0001151C AAAA1300
00:00011520 00C00E00        	  4732: .long     0x000EC000, 0x000BCCCC, 0x0009D555, 0x00086DB6
00:00011524 CCCC0B00
00:00011528 55D50900
00:0001152C B66D0800
00:00011530 00600700        	  4733: .long     0x00076000, 0x00068E38, 0x0005E666, 0x00055D17
00:00011534 388E0600
00:00011538 66E60500
00:0001153C 175D0500
00:00011540 AAEA0400        	  4734: .long     0x0004EAAA, 0x000489D8, 0x000436DB, 0x0003EEEE
00:00011544 D8890400
00:00011548 DB360400
00:0001154C EEEE0300
00:00011550 00B00300        	  4735: .long     0x0003B000, 0x00037878, 0x0003471C, 0x00031AF2
00:00011554 78780300
00:00011558 1C470300
00:0001155C F21A0300
00:00011560 33F30200        	  4736: .long     0x0002F333, 0x0002CF3C, 0x0002AE8B, 0x000290B2
00:00011564 3CCF0200
00:00011568 8BAE0200
00:0001156C B2900200
00:00011570 55750200        	  4737: .long     0x00027555, 0x00025C28, 0x000244EC, 0x00022F68
00:00011574 285C0200
00:00011578 EC440200
00:0001157C 682F0200
00:00011580 6D1B0200        	  4738: .long     0x00021B6D, 0x000208D3, 0x0001F777, 0x0001E739
00:00011584 D3080200
00:00011588 77F70100
00:0001158C 39E70100
00:00011590 00D80100        	  4739: .long     0x0001D800, 0x0001C9B2, 0x0001BC3C, 0x0001AF8A
00:00011594 B2C90100
00:00011598 3CBC0100
00:0001159C 8AAF0100
00:000115A0 8EA30100        	  4740: .long     0x0001A38E, 0x00019837, 0x00018D79, 0x00018348
00:000115A4 37980100
00:000115A8 798D0100
00:000115AC 48830100
00:000115B0 99790100        	  4741: .long     0x00017999, 0x00017063, 0x0001679E, 0x00015F41
00:000115B4 63700100
00:000115B8 9E670100
00:000115BC 415F0100
00:000115C0 45570100        	  4742: .long     0x00015745, 0x00014FA4, 0x00014859, 0x0001415C
00:000115C4 A44F0100
00:000115C8 59480100
00:000115CC 5C410100
00:000115D0 AA3A0100        	  4743: .long     0x00013AAA, 0x0001343E, 0x00012E14, 0x00012828
00:000115D4 3E340100
00:000115D8 142E0100
00:000115DC 28280100
00:000115E0 76220100        	  4744: .long     0x00012276, 0x00011CFB, 0x000117B4, 0x0001129E
00:000115E4 FB1C0100
00:000115E8 B4170100
00:000115EC 9E120100
00:000115F0 B60D0100        	  4745: .long     0x00010DB6, 0x000108FB, 0x00010469, 0x00010000
00:000115F4 FB080100
00:000115F8 69040100
00:000115FC 00000100
00:00011600 BBFB0000        	  4746: .long     0x0000FBBB, 0x0000F79B, 0x0000F39C, 0x0000EFBE
00:00011604 9BF70000
00:00011608 9CF30000
00:0001160C BEEF0000
00:00011610 FFFFFFFF        	  4747: .long     0xFFFFFFFF, 0x003C0000, 0x001E0000, 0x00140000
00:00011614 00003C00
00:00011618 00001E00
00:0001161C 00001400
00:00011620 00000F00        	  4748: .long     0x000F0000, 0x000C0000, 0x000A0000, 0x00089249
00:00011624 00000C00
00:00011628 00000A00
00:0001162C 49920800
00:00011630 00800700        	  4749: .long     0x00078000, 0x0006AAAA, 0x00060000, 0x0005745D
00:00011634 AAAA0600
00:00011638 00000600
00:0001163C 5D740500
00:00011640 00000500        	  4750: .long     0x00050000, 0x00049D89, 0x00044924, 0x00040000
00:00011644 899D0400
00:00011648 24490400
00:0001164C 00000400
00:00011650 00C00300        	  4751: .long     0x0003C000, 0x00038787, 0x00035555, 0x0003286B
00:00011654 87870300
00:00011658 55550300
00:0001165C 6B280300
00:00011660 00000300        	  4752: .long     0x00030000, 0x0002DB6D, 0x0002BA2E, 0x00029BD3
00:00011664 6DDB0200
00:00011668 2EBA0200
00:0001166C D39B0200
00:00011670 00800200        	  4753: .long     0x00028000, 0x00026666, 0x00024EC4, 0x000238E3
00:00011674 66660200
00:00011678 C44E0200
00:0001167C E3380200
00:00011680 92240200        	  4754: .long     0x00022492, 0x000211A7, 0x00020000, 0x0001EF7B
00:00011684 A7110200
00:00011688 00000200
00:0001168C 7BEF0100
00:00011690 00E00100        	  4755: .long     0x0001E000, 0x0001D174, 0x0001C3C3, 0x0001B6DB
00:00011694 74D10100
00:00011698 C3C30100
00:0001169C DBB60100
00:000116A0 AAAA0100        	  4756: .long     0x0001AAAA, 0x00019F22, 0x00019435, 0x000189D8
00:000116A4 229F0100
00:000116A8 35940100
00:000116AC D8890100
00:000116B0 00800100        	  4757: .long     0x00018000, 0x000176A2, 0x00016DB6, 0x00016535
00:000116B4 A2760100
00:000116B8 B66D0100
00:000116BC 35650100
00:000116C0 175D0100        	  4758: .long     0x00015D17, 0x00015555, 0x00014DE9, 0x000146CE
00:000116C4 55550100
00:000116C8 E94D0100
00:000116CC CE460100
00:000116D0 00400100        	  4759: .long     0x00014000, 0x00013978, 0x00013333, 0x00012D2D
00:000116D4 78390100
00:000116D8 33330100
00:000116DC 2D2D0100
00:000116E0 62270100        	  4760: .long     0x00012762, 0x000121CF, 0x00011C71, 0x00011745
00:000116E4 CF210100
00:000116E8 711C0100
00:000116EC 45170100
00:000116F0 49120100        	  4761: .long     0x00011249, 0x00010D79, 0x000108D3, 0x00010456
00:000116F4 790D0100
00:000116F8 D3080100
00:000116FC 56040100
00:00011700 00000100        	  4762: .long     0x00010000, 0x0000FBCD, 0x0000F7BD, 0x0000F3CF
00:00011704 CDFB0000
00:00011708 BDF70000
00:0001170C CFF30000
00:00011710 FFFFFFFF        	  4763: .long     0xFFFFFFFF, 0x003D0000, 0x001E8000, 0x00145555
00:00011714 00003D00
00:00011718 00801E00
00:0001171C 55551400
00:00011720 00400F00        	  4764: .long     0x000F4000, 0x000C3333, 0x000A2AAA, 0x0008B6DB
00:00011724 33330C00
00:00011728 AA2A0A00
00:0001172C DBB60800
00:00011730 00A00700        	  4765: .long     0x0007A000, 0x0006C71C, 0x00061999, 0x00058BA2
00:00011734 1CC70600
00:00011738 99190600
00:0001173C A28B0500
00:00011740 55150500        	  4766: .long     0x00051555, 0x0004B13B, 0x00045B6D, 0x00041111
00:00011744 3BB10400
00:00011748 6D5B0400
00:0001174C 11110400
00:00011750 00D00300        	  4767: .long     0x0003D000, 0x00039696, 0x0003638E, 0x000335E5
00:00011754 96960300
00:00011758 8E630300
00:0001175C E5350300
00:00011760 CC0C0300        	  4768: .long     0x00030CCC, 0x0002E79E, 0x0002C5D1, 0x0002A6F4
00:00011764 9EE70200
00:00011768 D1C50200
00:0001176C F4A60200
00:00011770 AA8A0200        	  4769: .long     0x00028AAA, 0x000270A3, 0x0002589D, 0x0002425E
00:00011774 A3700200
00:00011778 9D580200
00:0001177C 5E420200
00:00011780 B62D0200        	  4770: .long     0x00022DB6, 0x00021A7B, 0x00020888, 0x0001F7BD
00:00011784 7B1A0200
00:00011788 88080200
00:0001178C BDF70100
00:00011790 00E80100        	  4771: .long     0x0001E800, 0x0001D936, 0x0001CB4B, 0x0001BE2B
00:00011794 36D90100
00:00011798 4BCB0100
00:0001179C 2BBE0100
00:000117A0 C7B10100        	  4772: .long     0x0001B1C7, 0x0001A60D, 0x00019AF2, 0x00019069
00:000117A4 0DA60100
00:000117A8 F29A0100
00:000117AC 69900100
00:000117B0 66860100        	  4773: .long     0x00018666, 0x00017CE0, 0x000173CF, 0x00016B29
00:000117B4 E07C0100
00:000117B8 CF730100
00:000117BC 296B0100
00:000117C0 E8620100        	  4774: .long     0x000162E8, 0x00015B05, 0x0001537A, 0x00014C41
00:000117C4 055B0100
00:000117C8 7A530100
00:000117CC 414C0100
00:000117D0 55450100        	  4775: .long     0x00014555, 0x00013EB1, 0x00013851, 0x00013232
00:000117D4 B13E0100
00:000117D8 51380100
00:000117DC 32320100
00:000117E0 4E2C0100        	  4776: .long     0x00012C4E, 0x000126A4, 0x0001212F, 0x00011BED
00:000117E4 A4260100
00:000117E8 2F210100
00:000117EC ED1B0100
00:000117F0 DB160100        	  4777: .long     0x000116DB, 0x000111F7, 0x00010D3D, 0x000108AD
00:000117F4 F7110100
00:000117F8 3D0D0100
00:000117FC AD080100
00:00011800 44040100        	  4778: .long     0x00010444, 0x00010000, 0x0000FBDE, 0x0000F7DF
00:00011804 00000100
00:00011808 DEFB0000
00:0001180C DFF70000
00:00011810 FFFFFFFF        	  4779: .long     0xFFFFFFFF, 0x003E0000, 0x001F0000, 0x0014AAAA
00:00011814 00003E00
00:00011818 00001F00
00:0001181C AAAA1400
00:00011820 00800F00        	  4780: .long     0x000F8000, 0x000C6666, 0x000A5555, 0x0008DB6D
00:00011824 66660C00
00:00011828 55550A00
00:0001182C 6DDB0800
00:00011830 00C00700        	  4781: .long     0x0007C000, 0x0006E38E, 0x00063333, 0x0005A2E8
00:00011834 8EE30600
00:00011838 33330600
00:0001183C E8A20500
00:00011840 AA2A0500        	  4782: .long     0x00052AAA, 0x0004C4EC, 0x00046DB6, 0x00042222
00:00011844 ECC40400
00:00011848 B66D0400
00:0001184C 22220400
00:00011850 00E00300        	  4783: .long     0x0003E000, 0x0003A5A5, 0x000371C7, 0x0003435E
00:00011854 A5A50300
00:00011858 C7710300
00:0001185C 5E430300
00:00011860 99190300        	  4784: .long     0x00031999, 0x0002F3CF, 0x0002D174, 0x0002B216
00:00011864 CFF30200
00:00011868 74D10200
00:0001186C 16B20200
00:00011870 55950200        	  4785: .long     0x00029555, 0x00027AE1, 0x00026276, 0x00024BDA
00:00011874 E17A0200
00:00011878 76620200
00:0001187C DA4B0200
00:00011880 DB360200        	  4786: .long     0x000236DB, 0x0002234F, 0x00021111, 0x00020000
00:00011884 4F230200
00:00011888 11110200
00:0001188C 00000200
00:00011890 00F00100        	  4787: .long     0x0001F000, 0x0001E0F8, 0x0001D2D2, 0x0001C57C
00:00011894 F8E00100
00:00011898 D2D20100
00:0001189C 7CC50100
00:000118A0 E3B80100        	  4788: .long     0x0001B8E3, 0x0001ACF9, 0x0001A1AF, 0x000196F9
00:000118A4 F9AC0100
00:000118A8 AFA10100
00:000118AC F9960100
00:000118B0 CC8C0100        	  4789: .long     0x00018CCC, 0x0001831F, 0x000179E7, 0x0001711D
00:000118B4 1F830100
00:000118B8 E7790100
00:000118BC 1D710100
00:000118C0 BA680100        	  4790: .long     0x000168BA, 0x000160B6, 0x0001590B, 0x000151B3
00:000118C4 B6600100
00:000118C8 0B590100
00:000118CC B3510100
00:000118D0 AA4A0100        	  4791: .long     0x00014AAA, 0x000143EB, 0x00013D70, 0x00013737
00:000118D4 EB430100
00:000118D8 703D0100
00:000118DC 37370100
00:000118E0 3B310100        	  4792: .long     0x0001313B, 0x00012B78, 0x000125ED, 0x00012094
00:000118E4 782B0100
00:000118E8 ED250100
00:000118EC 94200100
00:000118F0 6D1B0100        	  4793: .long     0x00011B6D, 0x00011674, 0x000111A7, 0x00010D04
00:000118F4 74160100
00:000118F8 A7110100
00:000118FC 040D0100
00:00011900 88080100        	  4794: .long     0x00010888, 0x00010432, 0x00010000, 0x0000FBEF
00:00011904 32040100
00:00011908 00000100
00:0001190C EFFB0000
00:00011910 FFFFFFFF        	  4795: .long     0xFFFFFFFF, 0x003F0000, 0x001F8000, 0x00150000
00:00011914 00003F00
00:00011918 00801F00
00:0001191C 00001500
00:00011920 00C00F00        	  4796: .long     0x000FC000, 0x000C9999, 0x000A8000, 0x00090000
00:00011924 99990C00
00:00011928 00800A00
00:0001192C 00000900
00:00011930 00E00700        	  4797: .long     0x0007E000, 0x00070000, 0x00064CCC, 0x0005BA2E
00:00011934 00000700
00:00011938 CC4C0600
00:0001193C 2EBA0500
00:00011940 00400500        	  4798: .long     0x00054000, 0x0004D89D, 0x00048000, 0x00043333
00:00011944 9DD80400
00:00011948 00800400
00:0001194C 33330400
00:00011950 00F00300        	  4799: .long     0x0003F000, 0x0003B4B4, 0x00038000, 0x000350D7
00:00011954 B4B40300
00:00011958 00800300
00:0001195C D7500300
00:00011960 66260300        	  4800: .long     0x00032666, 0x00030000, 0x0002DD17, 0x0002BD37
00:00011964 00000300
00:00011968 17DD0200
00:0001196C 37BD0200
00:00011970 00A00200        	  4801: .long     0x0002A000, 0x0002851E, 0x00026C4E, 0x00025555
00:00011974 1E850200
00:00011978 4E6C0200
00:0001197C 55550200
00:00011980 00400200        	  4802: .long     0x00024000, 0x00022C23, 0x00021999, 0x00020842
00:00011984 232C0200
00:00011988 99190200
00:0001198C 42080200
00:00011990 00F80100        	  4803: .long     0x0001F800, 0x0001E8BA, 0x0001DA5A, 0x0001CCCC
00:00011994 BAE80100
00:00011998 5ADA0100
00:0001199C CCCC0100
00:000119A0 00C00100        	  4804: .long     0x0001C000, 0x0001B3E4, 0x0001A86B, 0x00019D89
00:000119A4 E4B30100
00:000119A8 6BA80100
00:000119AC 899D0100
00:000119B0 33930100        	  4805: .long     0x00019333, 0x0001895D, 0x00018000, 0x00017711
00:000119B4 5D890100
00:000119B8 00800100
00:000119BC 11770100
00:000119C0 8B6E0100        	  4806: .long     0x00016E8B, 0x00016666, 0x00015E9B, 0x00015726
00:000119C4 66660100
00:000119C8 9B5E0100
00:000119CC 26570100
00:000119D0 00500100        	  4807: .long     0x00015000, 0x00014924, 0x0001428F, 0x00013C3C
00:000119D4 24490100
00:000119D8 8F420100
00:000119DC 3C3C0100
00:000119E0 27360100        	  4808: .long     0x00013627, 0x0001304D, 0x00012AAA, 0x0001253C
00:000119E4 4D300100
00:000119E8 AA2A0100
00:000119EC 3C250100
00:000119F0 00200100        	  4809: .long     0x00012000, 0x00011AF2, 0x00011611, 0x0001115B
00:000119F4 F21A0100
00:000119F8 11160100
00:000119FC 5B110100
00:00011A00 CC0C0100        	  4810: .long     0x00010CCC, 0x00010864, 0x00010421, 0x00010000
00:00011A04 64080100
00:00011A08 21040100
00:00011A0C 00000100
                            	  4811: endCode:
                            	  4812: 


Symbols by name:
AbortWithMemoryError             A:0000A5A4
AddBulletParticleToBuffer        A:00008A84
AddDebrisParticleToBuffer        A:00008B70
AddExhaustParticleToBuffer       A:00008A8C
AddExplosionToBuffer             A:00008CBC
AddMovingParticleToBuffer        A:00008AA0
AddRisingParticleToBuffer        A:00008A98
AddShipExplosionToBuffer         A:00008CDC
AddSmallExplosionToBuffer        A:00008A28
AddSmokeParticleToBuffer         A:00008B0C
AddSparkCloudToBuffer            A:00008CFC
AddSparkParticleToBuffer         A:00008C40
AddSprayParticleToBuffer         A:00008C58
AddStaticParticleToBuffer        A:00008A94
AddTerminatorsToBuffers          A:00009CFC
AddVectorToVertices              A:0000991C
AddVectors                       A:000098F8
AddVectorsWithFeedback           A:000093B4
BUFFER_SIZE                      S:000010D4
BounceParticle                   A:00008998
CAMERA_PLAYER_Z                  S:05000000
CODE                             S:00008000
CalculateRotationMatrix          A:000093E4
DeleteParticleData               A:00008A58
Draw1x1ParticleFromBuffer        A:00009AC4
Draw2x1ParticleFromBuffer        A:00009AE8
Draw2x2ParticleFromBuffer        A:00009B10
Draw3x1ParticleFromBuffer        A:00009B78
Draw3x2ParticleFromBuffer        A:00009B40
DrawFuelLevel                    A:000091FC
DrawGraphicsBuffer               A:00009CDC
DrawHorizontalLine               A:0000A4C8
DrawLandscapeAndBuffers          A:0000808C
DrawLineSegment                  A:0000A524
DrawNextFromGraphicsBuffer       A:00009CEC
DrawObject                       A:00008EC4
DrawObjects                      A:00008DDC
DrawParticleShadowToBuffer       A:00009BF4
DrawParticleToBuffer             A:00009BB8
DrawQuadrilateral                A:00009DC8
DrawTriangle                     A:00009DDC
DrawTriangleFromBuffer           A:00009BA4
DrawTriangleShadowToBuffer       A:00009C28
DrawTriangleToBuffer             A:00009C58
DropARockFromTheSky              A:00008BD8
DropRocksFromTheSky              A:00008D40
EXPLODE_Y                        S:00500000
EndGame                          A:0000A8AC
Entry                            A:0000A614
GameOver                         A:00008744
GetDotProduct                    A:0000928C
GetLandscapeAltitude             A:000081F4
GetLandscapeBelowVertex          A:000082AC
GetLandscapeTileColour           A:000082DC
GetMouseInPolarCoordinates       A:00009574
GetRandomNumbers                 A:00009A40
HALF_TILES_X                     S:00000006
HIGHEST_ALTITUDE                 S:34000000
InitialiseParticleData           A:00008AF4
LANDING_SPEED                    S:00200000
LANDSCAPE_X                      S:05800000
LANDSCAPE_X_HALF                 S:06000000
LANDSCAPE_X_WIDTH                S:0B000000
LANDSCAPE_Y                      S:00000000
LANDSCAPE_Z                      S:14000000
LANDSCAPE_Z_BEYOND               S:0B000000
LANDSCAPE_Z_DEPTH                S:0A000000
LANDSCAPE_Z_FRONT                S:0A000000
LANDSCAPE_Z_MID                  S:0F000000
LAND_MID_HEIGHT                  S:05000000
LAUNCHPAD_ALTITUDE               S:03500000
LAUNCHPAD_OBJECT                 S:00000009
LAUNCHPAD_SIZE                   S:08000000
LAUNCHPAD_Y                      S:02EC0000
LandOnLaunchpad                  A:00008654
LoseLife                         A:000086C8
LoseLifeFromParticleLoop         A:000086C4
MAX_PARTICLES                    S:000001E4
MainLoop                         A:0000A850
MoveAndDrawParticles             A:000087F4
MoveAndDrawPlayer                A:00008398
MultiplyVectorByConstant         A:00009948
MultiplyVectorByMatrix           A:00009254
OS_BinaryToDecimal               S:00000028
OS_Byte                          S:00000006
OS_Mouse                         S:0000001C
OS_ReadC                         S:00000004
OS_Word                          S:00000007
OS_WriteC                        S:00000000
OS_WriteS                        S:00000001
PLAYER_FRONT_Z                   S:06000000
PlaceObjectsOnMap                A:0000A774
PlacePlayerOnLaunchpad           A:0000A7F8
PrintCurrentScore                A:00009108
PrintHexDigit                    A:0000A948
PrintHexNumber                   A:0000A8E0
PrintScoreInBothBanks            A:00009160
ProcessObjectDestruction         A:000089C8
ProjectParticleOntoScreen        A:00009670
ProjectVertexOntoScreen          A:00009748
ROCK_HEIGHT                      S:20000000
ResetMousePosition               A:0000A594
ReturnToDesktop                  A:0000A8D4
SAFE_HEIGHT                      S:01800000
SEA_LEVEL                        S:05500000
SMOKE_HEIGHT                     S:00C00000
SMOKE_RISING_SPEED               S:00080000
SPLASH_HEIGHT                    S:00100000
STORE                            S:00000000
SetParticleColourToFade          A:0000893C
SpawnRock                        A:00008D24
SplashParticleIntoSea            A:00008A34
StartNewGame                     A:0000A734
StoreParticleData                A:00008AC8
SwitchScreenBank                 A:00009D3C
TILES_X                          S:0000000D
TILES_Z                          S:0000000B
TILE_SIZE                        S:01000000
TerminateGraphicsBuffer          A:00009CF8
TransposeRotationMatrix          A:0000937C
UNDERCARRIAGE_Y                  S:00640000
altitude                         S:00000100
arctanTable                      A:0000C810
arctanTableAddr                  A:000091F4
bank1                            A:00009DAC
buffer                           S:00032FF0
bufferJump                       A:00009C8C
buffers                          S:00014400
cornerStore1                     S:00000400
cornerStore2                     S:00000500
crashLoopCount                   S:0000011C
crashedFlag                      S:00000120
currentScore                     S:00000124
divisionTable                    A:0000DA10
divisionTableAddr                A:00009D38
dobj1                            A:00008EFC
dobj2                            A:00008F54
dobj3                            A:00008FBC
dobj4                            A:00009038
dobj5                            A:000090F4
dobs1                            A:00008DFC
dobs2                            A:00008E04
dobs3                            A:00008E1C
dobs4                            A:00008E38
dobs5                            A:00008E80
dobs6                            A:00008E8C
dotp1                            A:000092BC
dotp2                            A:00009308
dotp3                            A:00009358
dpar1                            A:00008800
dpar2                            A:0000880C
dpar3                            A:000088E8
dpar4                            A:00008904
endCode                          A:00011A10
entr1                            A:0000A6E4
expl1                            A:00008CC0
fuelBarColour                    A:000091EC
fuelBurnRate                     S:0000015C
fuelLevel                        S:00000128
graphicsBuffEndAddr2             A:000087EC
graphicsBufferAddr               A:00009250
graphicsBufferEndAddr            A:0000924C
graphicsBuffers                  A:0000802C
graphicsBuffersEnd               A:0000805C
gravity                          S:0000012C
greyColourWords                  A:00009A70
greyColourWordsAddr              A:00009AC0
highScore                        S:00000138
hlin1                            A:0000A4F4
initialFuelLevel                 A:0000A580
initialHighScore                 A:0000A57C
initialScore                     A:0000A578
labOffset                        S:0000006C
land1                            A:000080DC
land2                            A:00008114
land3                            A:0000816C
land4                            A:00008170
land5                            A:000081E0
landscapeConfig                  A:00008010
landscapeConfigAddr              A:00008028
landscapeOffset                  A:00008000
landscapeOffsetAddr              A:0000800C
lineJump                         A:0000A480
lose1                            A:000086EC
mainLoopCount                    S:00000118
memoryTestAddr                   A:0000A574
mouseParameters                  A:0000A588
mouseParametersAddr              A:0000A590
objectBuilding                   A:0000B29C
objectBuildingFaces              A:0000B36C
objectBuildingVertices           A:0000B2AC
objectData                       S:00000110
objectFirTree                    A:0000B08C
objectFirTreeFaces               A:0000B0D8
objectFirTreeVertices            A:0000B09C
objectFlags                      S:00000114
objectGazebo                     A:0000B110
objectGazeboFaces                A:0000B1BC
objectGazeboVertices             A:0000B120
objectMap                        S:00004400
objectPlayer                     A:0000AB8C
objectPlayerAddr                 A:00008EBC
objectPlayerFaces                A:0000AC08
objectPlayerVertices             A:0000AB9C
objectPyramid                    A:0000AA98
objectPyramidFaces               A:0000AAE4
objectPyramidVertices            A:0000AAA8
objectRock                       A:0000A960
objectRockAddr                   A:00008EC0
objectRockFaces                  A:0000A9B8
objectRockVertices               A:0000A970
objectRocket                     A:0000B684
objectRocketFaces                A:0000B730
objectRocketVertices             A:0000B694
objectSmallLeafyTree             A:0000AD04
objectSmallLeafyTreeFaces        A:0000AD98
objectSmallLeafyTreeVertices     A:0000AD14
objectSmokingBuilding            A:0000B4BC
objectSmokingBuildingFaces       A:0000B514
objectSmokingBuildingVertices    A:0000B4CC
objectSmokingGazebo              A:0000B5BC
objectSmokingGazeboFaces         A:0000B614
objectSmokingGazeboVertices      A:0000B5CC
objectSmokingRemainsLeft         A:0000AF84
objectSmokingRemainsLeftFaces    A:0000AFD0
objectSmokingRemainsLeftVertices  A:0000AF94
objectSmokingRemainsRight        A:0000B008
objectSmokingRemainsRightFaces   A:0000B054
objectSmokingRemainsRightVertices  A:0000B018
objectTallLeafyTree              A:0000AE24
objectTallLeafyTreeFaces         A:0000AEDC
objectTallLeafyTreeVertices      A:0000AE34
objectType                       S:000000F4
objectTypes                      A:00008D78
particleCount                    S:0000010C
particleData                     S:00000700
particleEnd                      S:00000108
playingGame                      S:00000130
pole1                            A:000095AC
pole2                            A:000095CC
pole3                            A:000095D4
pole4                            A:000095F0
pole5                            A:00009624
pole6                            A:00009648
ppar1                            A:000096A8
ppar2                            A:000096DC
ppar3                            A:00009700
prevAltitude                     S:00000104
previousColumn                   S:000000C4
prsb1                            A:000091A0
prsb2                            A:000091D8
prsc1                            A:00009140
psea1                            A:00008A4C
pver1                            A:00009788
pver2                            A:000097B8
pver3                            A:000097DC
pver4                            A:00009820
pver5                            A:00009830
pver6                            A:00009864
pver7                            A:00009890
randomSeed1                      A:00009A38
randomSeed2                      A:00009A3C
remainingLives                   S:00000134
rmat1                            A:00009450
rmat2                            A:00009498
rmat3                            A:000094E4
rmat4                            A:00009530
rotationMatrix                   S:00000030
screenAddr                       A:00009A6C
screenBank1Addr                  A:00009D30
screenBank2Addr                  A:00009D2C
screenBankNumber                 A:00009D34
ship1                            A:00008400
ship2                            A:00008408
ship3                            A:0000841C
ship4                            A:00008424
ship5                            A:00008508
ship6                            A:0000850C
ship7                            A:000085F4
ship8                            A:00008650
shipDirection                    S:00000154
shipPitch                        S:00000158
sinTable                         A:0000B810
sinTableAddr                     A:000091F0
snew1                            A:0000A78C
snew2                            A:0000A7A0
snew3                            A:0000A7E0
spcl1                            A:00008D14
squareRootTable                  A:0000CA10
squareRootTableAddr              A:000091F8
stack                            S:000121FC
stackAddr                        A:0000A570
stackPointerOnEntry              A:0000A584
stringBuffer                     S:00000200
term1                            A:00009D10
tileCornerRow                    S:000000E4
tileRowOddEven                   S:000000F8
trin1                            A:00009E20
trin10                           A:00009F38
trin11                           A:00009F8C
trin12                           A:00009F98
trin13                           A:00009FB0
trin14                           A:00009FEC
trin15                           A:0000A014
trin16                           A:0000A030
trin17                           A:0000A05C
trin18                           A:0000A068
trin19                           A:0000A080
trin2                            A:00009E40
trin20                           A:0000A0B0
trin21                           A:0000A0BC
trin22                           A:0000A0D4
trin23                           A:0000A110
trin24                           A:0000A158
trin25                           A:0000A178
trin26                           A:0000A198
trin27                           A:0000A1CC
trin28                           A:0000A1D8
trin29                           A:0000A1F0
trin3                            A:00009E60
trin30                           A:0000A220
trin31                           A:0000A22C
trin32                           A:0000A244
trin33                           A:0000A2A0
trin34                           A:0000A2AC
trin35                           A:0000A2C4
trin36                           A:0000A300
trin37                           A:0000A30C
trin38                           A:0000A328
trin39                           A:0000A354
trin4                            A:00009E98
trin40                           A:0000A360
trin41                           A:0000A378
trin42                           A:0000A3A8
trin43                           A:0000A3B4
trin44                           A:0000A3CC
trin45                           A:0000A408
trin46                           A:0000A414
trin47                           A:0000A46C
trin48                           A:0000A470
trin5                            A:00009EA4
trin6                            A:00009EBC
trin7                            A:00009EEC
trin8                            A:00009EF8
trin9                            A:00009F10
typeOffset                       S:000000CC
unusedConfig                     S:000000F0
varOffset                        S:00000054
vcon1                            A:0000997C
vcon2                            A:000099C4
vcon3                            A:00009A0C
vertexProjected                  S:00000600
vmod1                            A:000098E4
vmod2                            A:000098E8
vmod3                            A:000098EC
vmod4                            A:000098F0
vmod5                            A:000098F4
workspace                        S:00012200
workspaceAddr                    A:0000A56C
xCamera                          S:0000013C
xCameraTile                      S:00000148
xCoord                           S:00000074
xLandscapeCol                    S:00000170
xLandscapeRow                    S:00000160
xNoseV                           S:00000030
xObject                          S:00000000
xObjectScaled                    S:00000084
xPlayer                          S:00000094
xRoofV                           S:00000034
xSideV                           S:00000038
xVelocity                        S:000000A0
xVertex                          S:00000054
xVertexRotated                   S:00000064
yCamera                          S:00000140
yCoord                           S:00000078
yLandscapeCol                    S:00000174
yNoseV                           S:0000003C
yPlayer                          S:00000098
yRoofV                           S:00000040
ySideV                           S:00000044
yVelocity                        S:000000A4
yVertex                          S:00000058
zCamera                          S:00000144
zCameraTile                      S:00000150
zLandscapeRow                    S:00000168
zNoseV                           S:00000048
zObject                          S:00000008
zRoofV                           S:0000004C
zSideV                           S:00000050
zVelocity                        S:000000A8

Symbols by value:
00000000 LANDSCAPE_Y
00000000 xObject
00000000 OS_WriteC
00000000 STORE
00000001 OS_WriteS
00000004 OS_ReadC
00000006 HALF_TILES_X
00000006 OS_Byte
00000007 OS_Word
00000008 zObject
00000009 LAUNCHPAD_OBJECT
0000000B TILES_Z
0000000D TILES_X
0000001C OS_Mouse
00000028 OS_BinaryToDecimal
00000030 xNoseV
00000030 rotationMatrix
00000034 xRoofV
00000038 xSideV
0000003C yNoseV
00000040 yRoofV
00000044 ySideV
00000048 zNoseV
0000004C zRoofV
00000050 zSideV
00000054 varOffset
00000054 xVertex
00000058 yVertex
00000064 xVertexRotated
0000006C labOffset
00000074 xCoord
00000078 yCoord
00000084 xObjectScaled
00000094 xPlayer
00000098 yPlayer
000000A0 xVelocity
000000A4 yVelocity
000000A8 zVelocity
000000C4 previousColumn
000000CC typeOffset
000000E4 tileCornerRow
000000F0 unusedConfig
000000F4 objectType
000000F8 tileRowOddEven
00000100 altitude
00000104 prevAltitude
00000108 particleEnd
0000010C particleCount
00000110 objectData
00000114 objectFlags
00000118 mainLoopCount
0000011C crashLoopCount
00000120 crashedFlag
00000124 currentScore
00000128 fuelLevel
0000012C gravity
00000130 playingGame
00000134 remainingLives
00000138 highScore
0000013C xCamera
00000140 yCamera
00000144 zCamera
00000148 xCameraTile
00000150 zCameraTile
00000154 shipDirection
00000158 shipPitch
0000015C fuelBurnRate
00000160 xLandscapeRow
00000168 zLandscapeRow
00000170 xLandscapeCol
00000174 yLandscapeCol
000001E4 MAX_PARTICLES
00000200 stringBuffer
00000400 cornerStore1
00000500 cornerStore2
00000600 vertexProjected
00000700 particleData
000010D4 BUFFER_SIZE
00004400 objectMap
00008000 CODE
00008000 landscapeOffset
0000800C landscapeOffsetAddr
00008010 landscapeConfig
00008028 landscapeConfigAddr
0000802C graphicsBuffers
0000805C graphicsBuffersEnd
0000808C DrawLandscapeAndBuffers
000080DC land1
00008114 land2
0000816C land3
00008170 land4
000081E0 land5
000081F4 GetLandscapeAltitude
000082AC GetLandscapeBelowVertex
000082DC GetLandscapeTileColour
00008398 MoveAndDrawPlayer
00008400 ship1
00008408 ship2
0000841C ship3
00008424 ship4
00008508 ship5
0000850C ship6
000085F4 ship7
00008650 ship8
00008654 LandOnLaunchpad
000086C4 LoseLifeFromParticleLoop
000086C8 LoseLife
000086EC lose1
00008744 GameOver
000087EC graphicsBuffEndAddr2
000087F4 MoveAndDrawParticles
00008800 dpar1
0000880C dpar2
000088E8 dpar3
00008904 dpar4
0000893C SetParticleColourToFade
00008998 BounceParticle
000089C8 ProcessObjectDestruction
00008A28 AddSmallExplosionToBuffer
00008A34 SplashParticleIntoSea
00008A4C psea1
00008A58 DeleteParticleData
00008A84 AddBulletParticleToBuffer
00008A8C AddExhaustParticleToBuffer
00008A94 AddStaticParticleToBuffer
00008A98 AddRisingParticleToBuffer
00008AA0 AddMovingParticleToBuffer
00008AC8 StoreParticleData
00008AF4 InitialiseParticleData
00008B0C AddSmokeParticleToBuffer
00008B70 AddDebrisParticleToBuffer
00008BD8 DropARockFromTheSky
00008C40 AddSparkParticleToBuffer
00008C58 AddSprayParticleToBuffer
00008CBC AddExplosionToBuffer
00008CC0 expl1
00008CDC AddShipExplosionToBuffer
00008CFC AddSparkCloudToBuffer
00008D14 spcl1
00008D24 SpawnRock
00008D40 DropRocksFromTheSky
00008D78 objectTypes
00008DDC DrawObjects
00008DFC dobs1
00008E04 dobs2
00008E1C dobs3
00008E38 dobs4
00008E80 dobs5
00008E8C dobs6
00008EBC objectPlayerAddr
00008EC0 objectRockAddr
00008EC4 DrawObject
00008EFC dobj1
00008F54 dobj2
00008FBC dobj3
00009038 dobj4
000090F4 dobj5
00009108 PrintCurrentScore
00009140 prsc1
00009160 PrintScoreInBothBanks
000091A0 prsb1
000091D8 prsb2
000091EC fuelBarColour
000091F0 sinTableAddr
000091F4 arctanTableAddr
000091F8 squareRootTableAddr
000091FC DrawFuelLevel
0000924C graphicsBufferEndAddr
00009250 graphicsBufferAddr
00009254 MultiplyVectorByMatrix
0000928C GetDotProduct
000092BC dotp1
00009308 dotp2
00009358 dotp3
0000937C TransposeRotationMatrix
000093B4 AddVectorsWithFeedback
000093E4 CalculateRotationMatrix
00009450 rmat1
00009498 rmat2
000094E4 rmat3
00009530 rmat4
00009574 GetMouseInPolarCoordinates
000095AC pole1
000095CC pole2
000095D4 pole3
000095F0 pole4
00009624 pole5
00009648 pole6
00009670 ProjectParticleOntoScreen
000096A8 ppar1
000096DC ppar2
00009700 ppar3
00009748 ProjectVertexOntoScreen
00009788 pver1
000097B8 pver2
000097DC pver3
00009820 pver4
00009830 pver5
00009864 pver6
00009890 pver7
000098E4 vmod1
000098E8 vmod2
000098EC vmod3
000098F0 vmod4
000098F4 vmod5
000098F8 AddVectors
0000991C AddVectorToVertices
00009948 MultiplyVectorByConstant
0000997C vcon1
000099C4 vcon2
00009A0C vcon3
00009A38 randomSeed1
00009A3C randomSeed2
00009A40 GetRandomNumbers
00009A6C screenAddr
00009A70 greyColourWords
00009AC0 greyColourWordsAddr
00009AC4 Draw1x1ParticleFromBuffer
00009AE8 Draw2x1ParticleFromBuffer
00009B10 Draw2x2ParticleFromBuffer
00009B40 Draw3x2ParticleFromBuffer
00009B78 Draw3x1ParticleFromBuffer
00009BA4 DrawTriangleFromBuffer
00009BB8 DrawParticleToBuffer
00009BF4 DrawParticleShadowToBuffer
00009C28 DrawTriangleShadowToBuffer
00009C58 DrawTriangleToBuffer
00009C8C bufferJump
00009CDC DrawGraphicsBuffer
00009CEC DrawNextFromGraphicsBuffer
00009CF8 TerminateGraphicsBuffer
00009CFC AddTerminatorsToBuffers
00009D10 term1
00009D2C screenBank2Addr
00009D30 screenBank1Addr
00009D34 screenBankNumber
00009D38 divisionTableAddr
00009D3C SwitchScreenBank
00009DAC bank1
00009DC8 DrawQuadrilateral
00009DDC DrawTriangle
00009E20 trin1
00009E40 trin2
00009E60 trin3
00009E98 trin4
00009EA4 trin5
00009EBC trin6
00009EEC trin7
00009EF8 trin8
00009F10 trin9
00009F38 trin10
00009F8C trin11
00009F98 trin12
00009FB0 trin13
00009FEC trin14
0000A014 trin15
0000A030 trin16
0000A05C trin17
0000A068 trin18
0000A080 trin19
0000A0B0 trin20
0000A0BC trin21
0000A0D4 trin22
0000A110 trin23
0000A158 trin24
0000A178 trin25
0000A198 trin26
0000A1CC trin27
0000A1D8 trin28
0000A1F0 trin29
0000A220 trin30
0000A22C trin31
0000A244 trin32
0000A2A0 trin33
0000A2AC trin34
0000A2C4 trin35
0000A300 trin36
0000A30C trin37
0000A328 trin38
0000A354 trin39
0000A360 trin40
0000A378 trin41
0000A3A8 trin42
0000A3B4 trin43
0000A3CC trin44
0000A408 trin45
0000A414 trin46
0000A46C trin47
0000A470 trin48
0000A480 lineJump
0000A4C8 DrawHorizontalLine
0000A4F4 hlin1
0000A524 DrawLineSegment
0000A56C workspaceAddr
0000A570 stackAddr
0000A574 memoryTestAddr
0000A578 initialScore
0000A57C initialHighScore
0000A580 initialFuelLevel
0000A584 stackPointerOnEntry
0000A588 mouseParameters
0000A590 mouseParametersAddr
0000A594 ResetMousePosition
0000A5A4 AbortWithMemoryError
0000A614 Entry
0000A6E4 entr1
0000A734 StartNewGame
0000A774 PlaceObjectsOnMap
0000A78C snew1
0000A7A0 snew2
0000A7E0 snew3
0000A7F8 PlacePlayerOnLaunchpad
0000A850 MainLoop
0000A8AC EndGame
0000A8D4 ReturnToDesktop
0000A8E0 PrintHexNumber
0000A948 PrintHexDigit
0000A960 objectRock
0000A970 objectRockVertices
0000A9B8 objectRockFaces
0000AA98 objectPyramid
0000AAA8 objectPyramidVertices
0000AAE4 objectPyramidFaces
0000AB8C objectPlayer
0000AB9C objectPlayerVertices
0000AC08 objectPlayerFaces
0000AD04 objectSmallLeafyTree
0000AD14 objectSmallLeafyTreeVertices
0000AD98 objectSmallLeafyTreeFaces
0000AE24 objectTallLeafyTree
0000AE34 objectTallLeafyTreeVertices
0000AEDC objectTallLeafyTreeFaces
0000AF84 objectSmokingRemainsLeft
0000AF94 objectSmokingRemainsLeftVertices
0000AFD0 objectSmokingRemainsLeftFaces
0000B008 objectSmokingRemainsRight
0000B018 objectSmokingRemainsRightVertices
0000B054 objectSmokingRemainsRightFaces
0000B08C objectFirTree
0000B09C objectFirTreeVertices
0000B0D8 objectFirTreeFaces
0000B110 objectGazebo
0000B120 objectGazeboVertices
0000B1BC objectGazeboFaces
0000B29C objectBuilding
0000B2AC objectBuildingVertices
0000B36C objectBuildingFaces
0000B4BC objectSmokingBuilding
0000B4CC objectSmokingBuildingVertices
0000B514 objectSmokingBuildingFaces
0000B5BC objectSmokingGazebo
0000B5CC objectSmokingGazeboVertices
0000B614 objectSmokingGazeboFaces
0000B684 objectRocket
0000B694 objectRocketVertices
0000B730 objectRocketFaces
0000B810 sinTable
0000C810 arctanTable
0000CA10 squareRootTable
0000DA10 divisionTable
00011A10 endCode
000121FC stack
00012200 workspace
00014400 buffers
00032FF0 buffer
00080000 SMOKE_RISING_SPEED
00100000 SPLASH_HEIGHT
00200000 LANDING_SPEED
00500000 EXPLODE_Y
00640000 UNDERCARRIAGE_Y
00C00000 SMOKE_HEIGHT
01000000 TILE_SIZE
01800000 SAFE_HEIGHT
02EC0000 LAUNCHPAD_Y
03500000 LAUNCHPAD_ALTITUDE
05000000 LAND_MID_HEIGHT
05000000 CAMERA_PLAYER_Z
05500000 SEA_LEVEL
05800000 LANDSCAPE_X
06000000 LANDSCAPE_X_HALF
06000000 PLAYER_FRONT_Z
08000000 LAUNCHPAD_SIZE
0A000000 LANDSCAPE_Z_DEPTH
0A000000 LANDSCAPE_Z_FRONT
0B000000 LANDSCAPE_Z_BEYOND
0B000000 LANDSCAPE_X_WIDTH
0F000000 LANDSCAPE_Z_MID
14000000 LANDSCAPE_Z
20000000 ROCK_HEIGHT
34000000 HIGHEST_ALTITUDE
